(dp1
S'category'
p2
(dp3
S'type'
p4
S'reference category'
p5
sS'sortable'
p6
I3
sS'sql'
p7
S'INTEGER REFERENCES category(id) ON DELETE CASCADE'
p8
ssS'description'
p9
(dp10
g4
S'string'
p11
sg6
I4
sg7
S'CHAR(512)'
p12
ssS'price'
p13
(dp14
g4
S'double'
p15
sg6
I6
sg7
S'DOUBLE'
p16
ssS'name'
p17
(dp18
g4
g11
sg6
I2
sg7
S'CHAR(512)'
p19
ssS'id'
p20
(dp21
g4
g20
sg6
I1
sg7
S'INTEGER PRIMARY KEY AUTOINCREMENT'
p22
ssS'quantity'
p23
(dp24
g4
S'integer'
p25
sg6
I5
sg7
S'INTEGER'
p26
ss.