(dp1
S'created_on'
p2
(dp3
S'type'
p4
S'datetime'
p5
sS'sortable'
p6
I3
sS'sql'
p7
S'TIMESTAMP'
p8
ssS'presupuesto'
p9
(dp10
g4
S'string'
p11
sg6
I2
sg7
S'CHAR(512)'
p12
ssS'cotiza'
p13
(dp14
g4
S'double'
p15
sg6
I5
sg7
S'DOUBLE'
p16
ssS'id_empresa'
p17
(dp18
g4
S'integer'
p19
sg6
I4
sg7
S'INTEGER'
p20
ssS'fecha'
p21
(dp22
S'sortable'
p23
I3
sS'type'
p24
S'datetime'
p25
sS'sql'
p26
S'TIMESTAMP'
p27
ssS'id'
p28
(dp29
g4
S'id'
p30
sg6
I1
sg7
S'INTEGER PRIMARY KEY AUTOINCREMENT'
p31
ss.