(dp1
S'output'
p2
S"<type 'exceptions.SyntaxError'> invalid syntax (controllers/default.py, line 266)"
p3
sS'layer'
p4
S'c:\\Users\\Jorge\\Downloads\\web2py_src\\web2py\\applications\\init\\controllers/default.py'
p5
sS'code'
p6
S'# -*- coding: utf-8 -*-\nif 0:\n    from gluon.globals import *\n    from gluon.html import *\n    from gluon.http import *\n    from gluon.tools import Auth\n    from gluon.sqlhtml import SQLFORM, SQLTABLE, form_factory\n    session = Session()\n    request = Request()\n    response = Response()\n\n### required - do no delete\ndef user(): return dict(form=auth())\ndef download(): return response.download(request,db)\ndef call(): return service()\n### end requires\n\n\n\ndef index():\n    return dict()\n\ndef error():\n    return dict()\n\n@auth.requires_login()\ndef cliente():\n    # presentacion de listado de clientes\n    datasource = db(db.cliente.id>0).select()\n    powerTable = plugins.powerTable\n    powerTable.datasource = datasource\n    powerTable.headers = \'labels\'\n    powerTable.showkeycolumn = False\n    powerTable.dtfeatures[\'bJQueryUI\'] = request.vars.get(\'jqueryui\',True)\n    powerTable.uitheme = request.vars.get(\'theme\',\'Smoothness\')\n    powerTable.dtfeatures["sScrollY"] = "100%"\n    powerTable.dtfeatures["sScrollX"] = "100%"\n    powerTable.dtfeatures[\'sPaginationType\'] = \'full_numbers\'\n    powerTable.dtfeatures["iDisplayLength"] = 20\n    # alta de clientes \n    mystep = [dict(title=\'NUEVO CLIENTE\',Legend=\'Ingrese los datos del nuevo cliente\',\n                   fields=[\'empresa\',\'contacto\',\'telefono\',\'correo\'])]\n    from plugin_PowerFormWizard import PowerFormWizard\n    options = {\'description\':False,\'legend\':True,\'validate\':True}\n    form = PowerFormWizard(db.cliente, steps=mystep, options=options)\n    \n    if form.accepts(request.vars, session):\n        response.flash = "registro aceptado"\n    elif form.errors:\n        form.step_validation()\n        response.flash = "error en los datos"\n    return dict( table=powerTable.create(),form=form)    \n   \n@auth.requires_login()\ndef categoria():\n    # presentacion de categorias de articulos\n    datasource = db(db.categoria.id>0).select()\n    powerTable = plugins.powerTable\n    powerTable.datasource = datasource\n    powerTable.headers = \'labels\'\n    powerTable.showkeycolumn = False\n    powerTable.dtfeatures[\'bJQueryUI\'] = request.vars.get(\'jqueryui\',True)\n    powerTable.uitheme = request.vars.get(\'theme\',\'Smoothness\')\n    powerTable.dtfeatures["sScrollY"] = "100%"\n    powerTable.dtfeatures["sScrollX"] = "100%"\n    powerTable.dtfeatures[\'sPaginationType\'] = \'full_numbers\'\n    powerTable.dtfeatures["iDisplayLength"] = 30\n    # alta de categoria de articulos\n    mystep = [dict(title=\'NUEVAS CATEGORIAS\',Legend=\'Ingrese una Categoria para Agrupar art\xc3\xadculos\',fields=[\'name\'])]\n    from plugin_PowerFormWizard import PowerFormWizard\n    options = {\'description\':False,\'legend\':True,\'validate\':True}\n    form = PowerFormWizard(db.categoria, steps=mystep, options=options)\n    \n    if form.accepts(request.vars, session):\n        response.flash = "registro aceptado"\n    elif form.errors:\n        form.step_validation()\n        response.flash = "error en los datos"\n    return dict( table=powerTable.create(),form=form)\n\ndef editablefunction():\n    id = request.vars.row_id\n    column = request.vars.column\n    db(db.order_lines.id==id).update(column=value)\n    db.commit()\n\n@auth.requires_login()\ndef articulo():\n    \n    # presentacion de tabla de articulos ############    \n    datasource = db(db.articulo.id>0).select()\n    powerTable = plugins.powerTable\n    powerTable.datasource = datasource\n    powerTable.headers = \'labels\'\n    powerTable.showkeycolumn = False\n    powerTable.dtfeatures[\'bJQueryUI\'] = request.vars.get(\'jqueryui\',True)\n    powerTable.uitheme = request.vars.get(\'theme\',\'Smoothness\')\n    powerTable.dtfeatures["sScrollY"] = "100%"\n    powerTable.dtfeatures["sScrollX"] = "100%"\n    powerTable.dtfeatures[\'sPaginationType\'] = \'full_numbers\'\n    powerTable.dtfeatures["iDisplayLength"] = 10\n    powerTable.extrajs = dict(autoresize={},\n                             tooltip={},\n                             details={\'detailscolumns\':\'articulo.memo\'}\n                             )\n    powerTable.keycolumn = \'articulo.id\'\n    powerTable.columns = [\'articulo.descripcion\',\'articulo.link\',\n                          \'articulo.precio\',\'articulo.categoria\']\n    # alta de articulos ####################    \n    mystep = [dict(title=\'NUEVOS ARTICULOS\',Legend=\'Ingrese los datos del articulo\',\n                   fields=[\'descripcion\',\'memo\',\'iva\',\'precio\',\'categoria\'])]\n    from plugin_PowerFormWizard import PowerFormWizard\n    options = {\'description\':False,\'legend\':True,\'validate\':True}\n    form = PowerFormWizard(db.articulo, steps=mystep, options=options)\n    \n    if form.accepts(request.vars, session):\n        response.flash = "registro aceptado"\n    elif form.errors:\n        form.step_validation()\n        response.flash = "error en los datos"\n    return dict( table=powerTable.create(),form=form)\n\n\ndef features():\n    from plugin_PowerGrid.CallBack import CallBack        \n    return CallBack(db.movimientos.id>0 and db.movimientos.fecha_devuelta==None)\n\n@auth.requires(auth.has_membership(role=\'Admin\'))   \ndef presupuestos():\n            \n    from plugin_PowerGrid.PowerGrid import PowerGrid\n    p = PowerGrid(\n                  callback=URL(\'default\',\'features\', extension=\'json\'),\n                  buttons=[\n                            #(\'details\',URL(\'plugin_PowerGrid\',\'data\',args=[\'read\',\'products\'])+\'/${id}\',\'_blank\',\'Details of Record ${id}\',\'modal positive left button\',\'magnifier\',[600,500]),\n                            (\'cargar comprobante\',URL(\'default\',\'prueba\',args=[\'read\',\'movimientos\'])+\'/${id}\',\'_blank\',\'Editando Registro ${id}\',\'refreshmodal middle button\', \'pen\',[600,800]),\n                            #(\'delete\',URL(\'plugin_PowerGrid\',\'data\',args=[\'delete\',\'products\'])+\'/${id}\',\'_blank\',\'Are you sure you want to delete record ${id}\',\'confirmationmodal right negative button\', \'cross\'),\n                          \n                         ],\n                  addurl=URL(\'plugin_PowerGrid\',\'data\',args=[\'create\',\'features\']), \n                  addLabel=\'Add New Record\',   \n                  addTitle=\'You are adding a new record\',              \n                  headers=[[\'id\',\'Codigo\'],[\'entregado_x\',\'Entrega: \'], [\'retirado_x\',\'Retira\'],\n                           ],\n                  \n                  #headers=[[\'entregado_x\',\'Entrega: \'], [\'retirado_x\',\'Retira\'], [\'id_articulo\',\'Articulo\'],[\'cantidad\',\'Cantidad\'],\n                           #[\'cliente\',\'Usado en\']],\n                  #hidecontrolbuttons=True,\n                  #hiderefreshbutton=True,\n                  hideaddbutton=True,\n                  #_id="banana",\n                  #target="melancia",\n                  #searchBy=\'equal\',\n                  minH=800,\n                  options=dict(#colsWidth=[60,60,60],\n                               #width=700,\n                               #buttonBackTitle=\'Back\',\n                               #buttonMax=4,\n                               #buttonNextTitle=\'Next\',\n                               #success="""js[function(){alert(\'Executed on success\');}]js""",\n                               #before="""js[function(){alert(\'Executed before\');}]js""",\n                               #error="""js[function(){alert(\'Executed on load error\');}]js""",\n                               #buttonOption=False,\n                               #buttonsWidth=200\n                               #buttonTitle=\'oi\',\n                               #clickFx=False,\n                               #debug=True,\n                               #find=\'name\',search=\'J\',\n                               #searchOption=False,\n                               searchButtonLabel=\'Buscar\',\n                               searchButtonTitle=\'Clique para buscar\',\n                               searchFocus=True,\n                               #cache=True,\n                               #contentType=\'application/x-www-form-urlencoded; charset=utf-8\',\n                               #type=\'get\',\n                               #dataType=\'jsonp\',\n                               #jsonp=True,\n                               #jsonpCallback=\'callback\',\n                               #findsName=[[\'name\',\'name\']],\n                               #hoverFx=False,\n                               #loadingOption=True,\n                               #loadingText=\'Carregando...\',\n                               #messageOption=False,\n                               #noResultOption=False,\n                               noResultText=\'no se encontraron datos \',\n                               #page=1,\n                               #rows=3,\n                               #rowsNumber=[3,25],\n                               #params=\'&blablabla=45\',\n                               #resize=False,\n                               #resultOption=False,\n                               #resultText= \'Exibindo {from} - {to} de {total} registros\',\n                               #scroll=True,height=100,\n                               #searchText=\'Busque aqui\',\n                               #sortName=\'name\',\n                               #sortOrder=\'asc\',\n                               #template=\'template\',\n                               #templateStyle=\'blabla\',\n\n\n\n                                   ),\n                  )\n\n    return dict(p=p)\n\n@auth.requires_login()\ndef presupuestos2():\n            \n    class Virtual(object):\n        @virtualsettings(label=T(\'Informacion: \'))\n        def virtualtooltip(self):\n            return T(\'se retiro para  <strong>%s</strong>, en concepto de <strong>%s</strong>\' %\n                     (self.cliente.empresa,self.movimientos.concepto))\n        \n    datasource = db(db.movimientos.cliente==db.cliente.id).select() \n    powerTable = plugins.powerTable\n    powerTable.datasource = datasource\n    powerTable.virtualfields = Virtual()\n    powerTable.headers = \'labels\'\n    powerTable.showkeycolumn = True\n    powerTable.dtfeatures[\'bJQueryUI\'] = request.vars.get(\'jqueryui\',True)\n    powerTable.uitheme = request.vars.get(\'theme\',\'Smoothness\')\n    powerTable.dtfeatures[\'sScrollX\'] = \'100%\'\n    powerTable.dtfeatures[\'sPaginationType\'] = request.vars.get(\'pager\',\'scrolling\')\n    powerTable.extrajs = dict(autoresize={},\n                               tooltip={},\n                               )\n    powerTable.columns = [\'movimientos.id\',\n                         \'movimientos.entregado_x\',\n                         \'movimientos.retirado_x\',\n                         \'movimientos.id_articulo\',\n                         \'movimientos.cantidad\',\n                         \'movimientos.Comprobante\',\n                         \'movimientos.fecha_pedido\',\n                         \'movimientos.fecha_devuelta\'\n                         ]\n    return dict(table=powerTable.create())\n\n@auth.requires(auth.has_membership(role=\'Admin\'))  \ndef movimientos():\n    mystep = [dict(title=\'MOVIMIENTOS\',Legend=\'Ingrese los datos solicitados\',\n                   fields=[\'entregado_x\',\'retirado_x\',\'id_articulo\',\'cantidad\',\n                           \'estado\',\'Comprobante\',\n                           \'cliente\',\'concepto\'])]\n    from plugin_PowerFormWizard import PowerFormWizard\n    options = {\'description\':False,\'legend\':True,\'validate\':True}\n    form = PowerFormWizard(db.movimientos, steps=mystep, options=options)\n    \n    if form.accepts(request.vars, session):\n        response.flash = "registro aceptado"\n        #rows = db(db.movimientos.id>0).select()\n        #last_row = rows.last()\n        #a=db.memomovi.insert(referencia=last_row.id,entregado_x=last_row.entregado_x,\n                             #retirado_x=last_row.retirado_x,id_articulo=last_row.id_articulo,\n                             #cantidad=last_row.cantidad,fecha_pedido=last_row.fecha_pedido,\n                             #fecha_devuelta=last_row.fecha_devuelta,estado=last_row.estado,\n                             #Comprobante=last_row.Comprobante,cliente=last_row.cliente)\n        #db.commit()\n    elif form.errors:\n        form.step_validation()\n        response.flash = "error en los datos"\n    return dict(form=form)\n\ndef prueba():\n    indice = \n    form=FORM(\'Your name:\',\n              INPUT(_name=\'name\', requires=IS_NOT_EMPTY()),\n              INPUT(_type=\'submit\'))\n    if form.accepts(request.vars, session):\n        response.flash = \'form accepted \'\n    elif form.errors:\n        response.flash = \'form has errors  _id\'\n    else:\n        response.flash = \'please fill the form  ${id}\'\n    return dict(form=form)\nresponse._vars=response._caller(prueba)\n'
p7
sS'snapshot'
p8
(dp9
S'exception'
p10
(dp11
S'__getslice__'
p12
S"<method-wrapper '__getslice__' of exceptions.SyntaxError object>"
p13
sS'text'
p14
S"'    indice = \\n'"
p15
sS'__str__'
p16
S"<method-wrapper '__str__' of exceptions.SyntaxError object>"
p17
sS'__reduce__'
p18
S'<built-in method __reduce__ of exceptions.SyntaxError object>'
p19
sS'__dict__'
p20
S'{}'
p21
sS'__sizeof__'
p22
S'<built-in method __sizeof__ of exceptions.SyntaxError object>'
p23
sS'__init__'
p24
S"<method-wrapper '__init__' of exceptions.SyntaxError object>"
p25
sS'__setattr__'
p26
S"<method-wrapper '__setattr__' of exceptions.SyntaxError object>"
p27
sS'__reduce_ex__'
p28
S'<built-in method __reduce_ex__ of exceptions.SyntaxError object>'
p29
sS'__new__'
p30
S'<built-in method __new__ of type object>'
p31
sS'__format__'
p32
S'<built-in method __format__ of exceptions.SyntaxError object>'
p33
sS'__class__'
p34
S"<type 'exceptions.SyntaxError'>"
p35
sS'filename'
p36
S"r'c:\\Users\\Jorge\\Downloads\\web2py_src\\web2py\\applications\\init\\controllers/default.py'"
p37
sS'lineno'
p38
S'266'
p39
sS'msg'
p40
S"'invalid syntax'"
p41
sS'__doc__'
p42
S"'Invalid syntax.'"
p43
sS'__getitem__'
p44
S"<method-wrapper '__getitem__' of exceptions.SyntaxError object>"
p45
sS'__setstate__'
p46
S'<built-in method __setstate__ of exceptions.SyntaxError object>'
p47
sS'__getattribute__'
p48
S"<method-wrapper '__getattribute__' of exceptions.SyntaxError object>"
p49
sS'print_file_and_line'
p50
S'None'
p51
sS'args'
p52
S"('invalid syntax', (r'c:\\Users\\Jorge\\Downloads\\web2py_src\\web2py\\applications\\init\\controllers/default.py', 266, 14, '    indice = \\n'))"
p53
sS'__subclasshook__'
p54
S'<built-in method __subclasshook__ of type object>'
p55
sS'offset'
p56
S'14'
p57
sS'__unicode__'
p58
S'<built-in method __unicode__ of exceptions.SyntaxError object>'
p59
sS'__delattr__'
p60
S"<method-wrapper '__delattr__' of exceptions.SyntaxError object>"
p61
sS'__repr__'
p62
S"<method-wrapper '__repr__' of exceptions.SyntaxError object>"
p63
sS'__hash__'
p64
S"<method-wrapper '__hash__' of exceptions.SyntaxError object>"
p65
ssS'evalue'
p66
S'invalid syntax (controllers/default.py, line 266)'
p67
sS'request'
p68
ccopy_reg
_reconstructor
p69
(cgluon.html
BEAUTIFY
p70
c__builtin__
object
p71
NtRp72
(dp73
S'attributes'
p74
(dp75
sS'components'
p76
(lp77
g69
(cgluon.html
TABLE
p78
g71
NtRp79
(dp80
g74
(dp81
S'level'
p82
I5
ssS'parent'
p83
Nsg76
(lp84
g69
(cgluon.html
TR
p85
g71
NtRp86
(dp87
g74
(dp88
sg83
g79
sg76
(lp89
g69
(cgluon.html
TD
p90
g71
NtRp91
(dp92
g74
(dp93
S'_style'
p94
S'font-weight:bold;vertical-align:top'
p95
ssg83
g86
sg76
(lp96
S'ajax'
p97
asbag69
(g90
g71
NtRp98
(dp99
g74
(dp100
S'_valign'
p101
S'top'
p102
ssg83
g86
sg76
(lp103
S':'
asbag69
(g90
g71
NtRp104
(dp105
g74
(dp106
sg83
g86
sg76
(lp107
g69
(g70
g71
NtRp108
(dp109
g74
(dp110
g82
I5
ssg83
g104
sg76
(lp111
S'False'
p112
asbasbasbag69
(g85
g71
NtRp113
(dp114
g74
(dp115
sg83
g79
sg76
(lp116
g69
(g90
g71
NtRp117
(dp118
g74
(dp119
g94
g95
ssg83
g113
sg76
(lp120
S'application'
p121
asbag69
(g90
g71
NtRp122
(dp123
g74
(dp124
g101
g102
ssg83
g113
sg76
(lp125
S':'
asbag69
(g90
g71
NtRp126
(dp127
g74
(dp128
sg83
g113
sg76
(lp129
g69
(g70
g71
NtRp130
(dp131
g74
(dp132
g82
I5
ssg83
g126
sg76
(lp133
S'init'
p134
asbasbasbag69
(g85
g71
NtRp135
(dp136
g74
(dp137
sg83
g79
sg76
(lp138
g69
(g90
g71
NtRp139
(dp140
g74
(dp141
g94
g95
ssg83
g135
sg76
(lp142
g52
asbag69
(g90
g71
NtRp143
(dp144
g74
(dp145
g101
g102
ssg83
g135
sg76
(lp146
S':'
asbag69
(g90
g71
NtRp147
(dp148
g74
(dp149
sg83
g135
sg76
(lp150
g69
(g70
g71
NtRp151
(dp152
g74
(dp153
g82
I5
ssg83
g147
sg76
(lp154
g69
(g78
g71
NtRp155
(dp156
g74
(dp157
g82
I4
ssg83
Nsg76
(lp158
g69
(g85
g71
NtRp159
(dp160
g74
(dp161
sg83
g155
sg76
(lp162
g69
(g90
g71
NtRp163
(dp164
g74
(dp165
sg83
g159
sg76
(lp166
g69
(g70
g71
NtRp167
(dp168
g74
(dp169
g82
I4
ssg83
g163
sg76
(lp170
S'read'
p171
asbasbasbag69
(g85
g71
NtRp172
(dp173
g74
(dp174
sg83
g155
sg76
(lp175
g69
(g90
g71
NtRp176
(dp177
g74
(dp178
sg83
g172
sg76
(lp179
g69
(g70
g71
NtRp180
(dp181
g74
(dp182
g82
I4
ssg83
g176
sg76
(lp183
S'movimientos'
p184
asbasbasbag69
(g85
g71
NtRp185
(dp186
g74
(dp187
sg83
g155
sg76
(lp188
g69
(g90
g71
NtRp189
(dp190
g74
(dp191
sg83
g185
sg76
(lp192
g69
(g70
g71
NtRp193
(dp194
g74
(dp195
g82
I4
ssg83
g189
sg76
(lp196
S'20'
p197
asbasbasbasbasbasbasbag69
(g85
g71
NtRp198
(dp199
g74
(dp200
sg83
g79
sg76
(lp201
g69
(g90
g71
NtRp202
(dp203
g74
(dp204
g94
g95
ssg83
g198
sg76
(lp205
S'body'
p206
asbag69
(g90
g71
NtRp207
(dp208
g74
(dp209
g101
g102
ssg83
g198
sg76
(lp210
S':'
asbag69
(g90
g71
NtRp211
(dp212
g74
(dp213
sg83
g198
sg76
(lp214
g69
(g70
g71
NtRp215
(dp216
g74
(dp217
g82
I5
ssg83
g211
sg76
(lp218
S'<cStringIO.StringO object at 0x0000000009C22A78>'
p219
asbasbasbag69
(g85
g71
NtRp220
(dp221
g74
(dp222
sg83
g79
sg76
(lp223
g69
(g90
g71
NtRp224
(dp225
g74
(dp226
g94
g95
ssg83
g220
sg76
(lp227
S'client'
p228
asbag69
(g90
g71
NtRp229
(dp230
g74
(dp231
g101
g102
ssg83
g220
sg76
(lp232
S':'
asbag69
(g90
g71
NtRp233
(dp234
g74
(dp235
sg83
g220
sg76
(lp236
g69
(g70
g71
NtRp237
(dp238
g74
(dp239
g82
I5
ssg83
g233
sg76
(lp240
S'127.0.0.1'
p241
asbasbasbag69
(g85
g71
NtRp242
(dp243
g74
(dp244
sg83
g79
sg76
(lp245
g69
(g90
g71
NtRp246
(dp247
g74
(dp248
g94
g95
ssg83
g242
sg76
(lp249
S'controller'
p250
asbag69
(g90
g71
NtRp251
(dp252
g74
(dp253
g101
g102
ssg83
g242
sg76
(lp254
S':'
asbag69
(g90
g71
NtRp255
(dp256
g74
(dp257
sg83
g242
sg76
(lp258
g69
(g70
g71
NtRp259
(dp260
g74
(dp261
g82
I5
ssg83
g255
sg76
(lp262
S'default'
p263
asbasbasbag69
(g85
g71
NtRp264
(dp265
g74
(dp266
sg83
g79
sg76
(lp267
g69
(g90
g71
NtRp268
(dp269
g74
(dp270
g94
g95
ssg83
g264
sg76
(lp271
S'cookies'
p272
asbag69
(g90
g71
NtRp273
(dp274
g74
(dp275
g101
g102
ssg83
g264
sg76
(lp276
S':'
asbag69
(g90
g71
NtRp277
(dp278
g74
(dp279
sg83
g264
sg76
(lp280
g69
(g70
g71
NtRp281
(dp282
g74
(dp283
g82
I5
ssg83
g277
sg76
(lp284
g69
(g78
g71
NtRp285
(dp286
g74
(dp287
g82
I4
ssg83
Nsg76
(lp288
g69
(g85
g71
NtRp289
(dp290
g74
(dp291
sg83
g285
sg76
(lp292
g69
(g90
g71
NtRp293
(dp294
g74
(dp295
g94
g95
ssg83
g289
sg76
(lp296
S'session_id_admin'
p297
asbag69
(g90
g71
NtRp298
(dp299
g74
(dp300
g101
g102
ssg83
g289
sg76
(lp301
S':'
asbag69
(g90
g71
NtRp302
(dp303
g74
(dp304
sg83
g289
sg76
(lp305
g69
(g70
g71
NtRp306
(dp307
g74
(dp308
g82
I4
ssg83
g302
sg76
(lp309
g69
(g78
g71
NtRp310
(dp311
g74
(dp312
g82
I3
ssg83
Nsg76
(lp313
g69
(g85
g71
NtRp314
(dp315
g74
(dp316
sg83
g310
sg76
(lp317
g69
(g90
g71
NtRp318
(dp319
g74
(dp320
g94
g95
ssg83
g314
sg76
(lp321
S'comment'
p322
asbag69
(g90
g71
NtRp323
(dp324
g74
(dp325
g101
g102
ssg83
g314
sg76
(lp326
S':'
asbag69
(g90
g71
NtRp327
(dp328
g74
(dp329
sg83
g314
sg76
(lp330
g69
(g70
g71
NtRp331
(dp332
g74
(dp333
g82
I3
ssg83
g327
sg76
(lp334
S''
asbasbasbag69
(g85
g71
NtRp335
(dp336
g74
(dp337
sg83
g310
sg76
(lp338
g69
(g90
g71
NtRp339
(dp340
g74
(dp341
g94
g95
ssg83
g335
sg76
(lp342
S'domain'
p343
asbag69
(g90
g71
NtRp344
(dp345
g74
(dp346
g101
g102
ssg83
g335
sg76
(lp347
S':'
asbag69
(g90
g71
NtRp348
(dp349
g74
(dp350
sg83
g335
sg76
(lp351
g69
(g70
g71
NtRp352
(dp353
g74
(dp354
g82
I3
ssg83
g348
sg76
(lp355
S''
asbasbasbag69
(g85
g71
NtRp356
(dp357
g74
(dp358
sg83
g310
sg76
(lp359
g69
(g90
g71
NtRp360
(dp361
g74
(dp362
g94
g95
ssg83
g356
sg76
(lp363
S'expires'
p364
asbag69
(g90
g71
NtRp365
(dp366
g74
(dp367
g101
g102
ssg83
g356
sg76
(lp368
S':'
asbag69
(g90
g71
NtRp369
(dp370
g74
(dp371
sg83
g356
sg76
(lp372
g69
(g70
g71
NtRp373
(dp374
g74
(dp375
g82
I3
ssg83
g369
sg76
(lp376
S''
asbasbasbag69
(g85
g71
NtRp377
(dp378
g74
(dp379
sg83
g310
sg76
(lp380
g69
(g90
g71
NtRp381
(dp382
g74
(dp383
g94
g95
ssg83
g377
sg76
(lp384
S'httponly'
p385
asbag69
(g90
g71
NtRp386
(dp387
g74
(dp388
g101
g102
ssg83
g377
sg76
(lp389
S':'
asbag69
(g90
g71
NtRp390
(dp391
g74
(dp392
sg83
g377
sg76
(lp393
g69
(g70
g71
NtRp394
(dp395
g74
(dp396
g82
I3
ssg83
g390
sg76
(lp397
S''
asbasbasbag69
(g85
g71
NtRp398
(dp399
g74
(dp400
sg83
g310
sg76
(lp401
g69
(g90
g71
NtRp402
(dp403
g74
(dp404
g94
g95
ssg83
g398
sg76
(lp405
S'max-age'
p406
asbag69
(g90
g71
NtRp407
(dp408
g74
(dp409
g101
g102
ssg83
g398
sg76
(lp410
S':'
asbag69
(g90
g71
NtRp411
(dp412
g74
(dp413
sg83
g398
sg76
(lp414
g69
(g70
g71
NtRp415
(dp416
g74
(dp417
g82
I3
ssg83
g411
sg76
(lp418
S''
asbasbasbag69
(g85
g71
NtRp419
(dp420
g74
(dp421
sg83
g310
sg76
(lp422
g69
(g90
g71
NtRp423
(dp424
g74
(dp425
g94
g95
ssg83
g419
sg76
(lp426
S'path'
p427
asbag69
(g90
g71
NtRp428
(dp429
g74
(dp430
g101
g102
ssg83
g419
sg76
(lp431
S':'
asbag69
(g90
g71
NtRp432
(dp433
g74
(dp434
sg83
g419
sg76
(lp435
g69
(g70
g71
NtRp436
(dp437
g74
(dp438
g82
I3
ssg83
g432
sg76
(lp439
S''
asbasbasbag69
(g85
g71
NtRp440
(dp441
g74
(dp442
sg83
g310
sg76
(lp443
g69
(g90
g71
NtRp444
(dp445
g74
(dp446
g94
g95
ssg83
g440
sg76
(lp447
S'secure'
p448
asbag69
(g90
g71
NtRp449
(dp450
g74
(dp451
g101
g102
ssg83
g440
sg76
(lp452
S':'
asbag69
(g90
g71
NtRp453
(dp454
g74
(dp455
sg83
g440
sg76
(lp456
g69
(g70
g71
NtRp457
(dp458
g74
(dp459
g82
I3
ssg83
g453
sg76
(lp460
S''
asbasbasbag69
(g85
g71
NtRp461
(dp462
g74
(dp463
sg83
g310
sg76
(lp464
g69
(g90
g71
NtRp465
(dp466
g74
(dp467
g94
g95
ssg83
g461
sg76
(lp468
S'version'
p469
asbag69
(g90
g71
NtRp470
(dp471
g74
(dp472
g101
g102
ssg83
g461
sg76
(lp473
S':'
asbag69
(g90
g71
NtRp474
(dp475
g74
(dp476
sg83
g461
sg76
(lp477
g69
(g70
g71
NtRp478
(dp479
g74
(dp480
g82
I3
ssg83
g474
sg76
(lp481
S''
asbasbasbasbasbasbasbag69
(g85
g71
NtRp482
(dp483
g74
(dp484
sg83
g285
sg76
(lp485
g69
(g90
g71
NtRp486
(dp487
g74
(dp488
g94
g95
ssg83
g482
sg76
(lp489
S'session_id_init'
p490
asbag69
(g90
g71
NtRp491
(dp492
g74
(dp493
g101
g102
ssg83
g482
sg76
(lp494
S':'
asbag69
(g90
g71
NtRp495
(dp496
g74
(dp497
sg83
g482
sg76
(lp498
g69
(g70
g71
NtRp499
(dp500
g74
(dp501
g82
I4
ssg83
g495
sg76
(lp502
g69
(g78
g71
NtRp503
(dp504
g74
(dp505
g82
I3
ssg83
Nsg76
(lp506
g69
(g85
g71
NtRp507
(dp508
g74
(dp509
sg83
g503
sg76
(lp510
g69
(g90
g71
NtRp511
(dp512
g74
(dp513
g94
g95
ssg83
g507
sg76
(lp514
g322
asbag69
(g90
g71
NtRp515
(dp516
g74
(dp517
g101
g102
ssg83
g507
sg76
(lp518
S':'
asbag69
(g90
g71
NtRp519
(dp520
g74
(dp521
sg83
g507
sg76
(lp522
g69
(g70
g71
NtRp523
(dp524
g74
(dp525
g82
I3
ssg83
g519
sg76
(lp526
S''
asbasbasbag69
(g85
g71
NtRp527
(dp528
g74
(dp529
sg83
g503
sg76
(lp530
g69
(g90
g71
NtRp531
(dp532
g74
(dp533
g94
g95
ssg83
g527
sg76
(lp534
g343
asbag69
(g90
g71
NtRp535
(dp536
g74
(dp537
g101
g102
ssg83
g527
sg76
(lp538
S':'
asbag69
(g90
g71
NtRp539
(dp540
g74
(dp541
sg83
g527
sg76
(lp542
g69
(g70
g71
NtRp543
(dp544
g74
(dp545
g82
I3
ssg83
g539
sg76
(lp546
S''
asbasbasbag69
(g85
g71
NtRp547
(dp548
g74
(dp549
sg83
g503
sg76
(lp550
g69
(g90
g71
NtRp551
(dp552
g74
(dp553
g94
g95
ssg83
g547
sg76
(lp554
g364
asbag69
(g90
g71
NtRp555
(dp556
g74
(dp557
g101
g102
ssg83
g547
sg76
(lp558
S':'
asbag69
(g90
g71
NtRp559
(dp560
g74
(dp561
sg83
g547
sg76
(lp562
g69
(g70
g71
NtRp563
(dp564
g74
(dp565
g82
I3
ssg83
g559
sg76
(lp566
S''
asbasbasbag69
(g85
g71
NtRp567
(dp568
g74
(dp569
sg83
g503
sg76
(lp570
g69
(g90
g71
NtRp571
(dp572
g74
(dp573
g94
g95
ssg83
g567
sg76
(lp574
g385
asbag69
(g90
g71
NtRp575
(dp576
g74
(dp577
g101
g102
ssg83
g567
sg76
(lp578
S':'
asbag69
(g90
g71
NtRp579
(dp580
g74
(dp581
sg83
g567
sg76
(lp582
g69
(g70
g71
NtRp583
(dp584
g74
(dp585
g82
I3
ssg83
g579
sg76
(lp586
S''
asbasbasbag69
(g85
g71
NtRp587
(dp588
g74
(dp589
sg83
g503
sg76
(lp590
g69
(g90
g71
NtRp591
(dp592
g74
(dp593
g94
g95
ssg83
g587
sg76
(lp594
g406
asbag69
(g90
g71
NtRp595
(dp596
g74
(dp597
g101
g102
ssg83
g587
sg76
(lp598
S':'
asbag69
(g90
g71
NtRp599
(dp600
g74
(dp601
sg83
g587
sg76
(lp602
g69
(g70
g71
NtRp603
(dp604
g74
(dp605
g82
I3
ssg83
g599
sg76
(lp606
S''
asbasbasbag69
(g85
g71
NtRp607
(dp608
g74
(dp609
sg83
g503
sg76
(lp610
g69
(g90
g71
NtRp611
(dp612
g74
(dp613
g94
g95
ssg83
g607
sg76
(lp614
g427
asbag69
(g90
g71
NtRp615
(dp616
g74
(dp617
g101
g102
ssg83
g607
sg76
(lp618
S':'
asbag69
(g90
g71
NtRp619
(dp620
g74
(dp621
sg83
g607
sg76
(lp622
g69
(g70
g71
NtRp623
(dp624
g74
(dp625
g82
I3
ssg83
g619
sg76
(lp626
S''
asbasbasbag69
(g85
g71
NtRp627
(dp628
g74
(dp629
sg83
g503
sg76
(lp630
g69
(g90
g71
NtRp631
(dp632
g74
(dp633
g94
g95
ssg83
g627
sg76
(lp634
g448
asbag69
(g90
g71
NtRp635
(dp636
g74
(dp637
g101
g102
ssg83
g627
sg76
(lp638
S':'
asbag69
(g90
g71
NtRp639
(dp640
g74
(dp641
sg83
g627
sg76
(lp642
g69
(g70
g71
NtRp643
(dp644
g74
(dp645
g82
I3
ssg83
g639
sg76
(lp646
S''
asbasbasbag69
(g85
g71
NtRp647
(dp648
g74
(dp649
sg83
g503
sg76
(lp650
g69
(g90
g71
NtRp651
(dp652
g74
(dp653
g94
g95
ssg83
g647
sg76
(lp654
g469
asbag69
(g90
g71
NtRp655
(dp656
g74
(dp657
g101
g102
ssg83
g647
sg76
(lp658
S':'
asbag69
(g90
g71
NtRp659
(dp660
g74
(dp661
sg83
g647
sg76
(lp662
g69
(g70
g71
NtRp663
(dp664
g74
(dp665
g82
I3
ssg83
g659
sg76
(lp666
S''
asbasbasbasbasbasbasbasbasbasbasbag69
(g85
g71
NtRp667
(dp668
g74
(dp669
sg83
g79
sg76
(lp670
g69
(g90
g71
NtRp671
(dp672
g74
(dp673
g94
g95
ssg83
g667
sg76
(lp674
S'env'
p675
asbag69
(g90
g71
NtRp676
(dp677
g74
(dp678
g101
g102
ssg83
g667
sg76
(lp679
S':'
asbag69
(g90
g71
NtRp680
(dp681
g74
(dp682
sg83
g667
sg76
(lp683
g69
(g70
g71
NtRp684
(dp685
g74
(dp686
g82
I5
ssg83
g680
sg76
(lp687
g69
(g78
g71
NtRp688
(dp689
g74
(dp690
g82
I4
ssg83
Nsg76
(lp691
g69
(g85
g71
NtRp692
(dp693
g74
(dp694
sg83
g688
sg76
(lp695
g69
(g90
g71
NtRp696
(dp697
g74
(dp698
g94
g95
ssg83
g692
sg76
(lp699
S'app_folders'
p700
asbag69
(g90
g71
NtRp701
(dp702
g74
(dp703
g101
g102
ssg83
g692
sg76
(lp704
S':'
asbag69
(g90
g71
NtRp705
(dp706
g74
(dp707
sg83
g692
sg76
(lp708
g69
(g70
g71
NtRp709
(dp710
g74
(dp711
g82
I4
ssg83
g705
sg76
(lp712
S"set(['c:\\\\Users\\\\Jorge\\\\Downloads\\\\web2py_src\\\\web2py\\\\applications\\\\admin\\\\', 'c:\\\\Users\\\\Jorge\\\\Downloads\\\\web2py_src\\\\web2py\\\\applications\\\\init\\\\'])"
p713
asbasbasbag69
(g85
g71
NtRp714
(dp715
g74
(dp716
sg83
g688
sg76
(lp717
g69
(g90
g71
NtRp718
(dp719
g74
(dp720
g94
g95
ssg83
g714
sg76
(lp721
S'applications_parent'
p722
asbag69
(g90
g71
NtRp723
(dp724
g74
(dp725
g101
g102
ssg83
g714
sg76
(lp726
S':'
asbag69
(g90
g71
NtRp727
(dp728
g74
(dp729
sg83
g714
sg76
(lp730
g69
(g70
g71
NtRp731
(dp732
g74
(dp733
g82
I4
ssg83
g727
sg76
(lp734
S'c:\\Users\\Jorge\\Downloads\\web2py_src\\web2py'
p735
asbasbasbag69
(g85
g71
NtRp736
(dp737
g74
(dp738
sg83
g688
sg76
(lp739
g69
(g90
g71
NtRp740
(dp741
g74
(dp742
g94
g95
ssg83
g736
sg76
(lp743
S'cmd_args'
p744
asbag69
(g90
g71
NtRp745
(dp746
g74
(dp747
g101
g102
ssg83
g736
sg76
(lp748
S':'
asbag69
(g90
g71
NtRp749
(dp750
g74
(dp751
sg83
g736
sg76
(lp752
g69
(g70
g71
NtRp753
(dp754
g74
(dp755
g82
I4
ssg83
g749
sg76
(lp756
g69
(g78
g71
NtRp757
(dp758
g74
(dp759
g82
I3
ssg83
Nsg76
(lp760
sbasbasbasbag69
(g85
g71
NtRp761
(dp762
g74
(dp763
sg83
g688
sg76
(lp764
g69
(g90
g71
NtRp765
(dp766
g74
(dp767
g94
g95
ssg83
g761
sg76
(lp768
S'cmd_options'
p769
asbag69
(g90
g71
NtRp770
(dp771
g74
(dp772
g101
g102
ssg83
g761
sg76
(lp773
S':'
asbag69
(g90
g71
NtRp774
(dp775
g74
(dp776
sg83
g761
sg76
(lp777
g69
(g70
g71
NtRp778
(dp779
g74
(dp780
g82
I4
ssg83
g774
sg76
(lp781
S"<Values at 0x374e208: {'verbose': False, 'ip': '127.0.0.1', 'shutdown_timeout': 5, 'taskbar': False, 'nocron': False, 'pid_filename': 'httpserver.pid', 'maxthreads': None, 'softcron': False, 'server_name': 'Jorge-PC', 'bpython': False, 'nogui': False, 'port': 8000, 'extcron': False, 'debuglevel': 30, 'test': None, 'folder': 'c:\\\\Users\\\\Jorge\\\\Downloads\\\\web2py_src\\\\web2py', 'config': '', 'import_models': False, 'winservice': '', 'shell': None, 'run': '', 'log_filename': 'httpserver.log', 'args': [''], 'socket_timeout': 5, 'ssl_ca_certificate': None, 'scheduler': None, 'profiler_filename': None, 'ssl_private_key': '', 'password': '<ask>', 'request_queue_size': 5, 'ssl_certificate': '', 'cronjob': False, 'numthreads': None, 'quiet': False, 'interfaces': None, 'minthreads': None, 'timeout': 10, 'plain': False, 'nobanner': False}>"
p782
asbasbasbag69
(g85
g71
NtRp783
(dp784
g74
(dp785
sg83
g688
sg76
(lp786
g69
(g90
g71
NtRp787
(dp788
g74
(dp789
g94
g95
ssg83
g783
sg76
(lp790
S'db_sessions'
p791
asbag69
(g90
g71
NtRp792
(dp793
g74
(dp794
g101
g102
ssg83
g783
sg76
(lp795
S':'
asbag69
(g90
g71
NtRp796
(dp797
g74
(dp798
sg83
g783
sg76
(lp799
g69
(g70
g71
NtRp800
(dp801
g74
(dp802
g82
I4
ssg83
g796
sg76
(lp803
S'set([])'
p804
asbasbasbag69
(g85
g71
NtRp805
(dp806
g74
(dp807
sg83
g688
sg76
(lp808
g69
(g90
g71
NtRp809
(dp810
g74
(dp811
g94
g95
ssg83
g805
sg76
(lp812
S'debugging'
p813
asbag69
(g90
g71
NtRp814
(dp815
g74
(dp816
g101
g102
ssg83
g805
sg76
(lp817
S':'
asbag69
(g90
g71
NtRp818
(dp819
g74
(dp820
sg83
g805
sg76
(lp821
g69
(g70
g71
NtRp822
(dp823
g74
(dp824
g82
I4
ssg83
g818
sg76
(lp825
g112
asbasbasbag69
(g85
g71
NtRp826
(dp827
g74
(dp828
sg83
g688
sg76
(lp829
g69
(g90
g71
NtRp830
(dp831
g74
(dp832
g94
g95
ssg83
g826
sg76
(lp833
S'gluon_parent'
p834
asbag69
(g90
g71
NtRp835
(dp836
g74
(dp837
g101
g102
ssg83
g826
sg76
(lp838
S':'
asbag69
(g90
g71
NtRp839
(dp840
g74
(dp841
sg83
g826
sg76
(lp842
g69
(g70
g71
NtRp843
(dp844
g74
(dp845
g82
I4
ssg83
g839
sg76
(lp846
S'c:\\Users\\Jorge\\Downloads\\web2py_src\\web2py'
p847
asbasbasbag69
(g85
g71
NtRp848
(dp849
g74
(dp850
sg83
g688
sg76
(lp851
g69
(g90
g71
NtRp852
(dp853
g74
(dp854
g94
g95
ssg83
g848
sg76
(lp855
S'http_accept'
p856
asbag69
(g90
g71
NtRp857
(dp858
g74
(dp859
g101
g102
ssg83
g848
sg76
(lp860
S':'
asbag69
(g90
g71
NtRp861
(dp862
g74
(dp863
sg83
g848
sg76
(lp864
g69
(g70
g71
NtRp865
(dp866
g74
(dp867
g82
I4
ssg83
g861
sg76
(lp868
S'text/html,application/xhtml+xml,application/xml;q=0.9,*/*;q=0.8'
p869
asbasbasbag69
(g85
g71
NtRp870
(dp871
g74
(dp872
sg83
g688
sg76
(lp873
g69
(g90
g71
NtRp874
(dp875
g74
(dp876
g94
g95
ssg83
g870
sg76
(lp877
S'http_accept_encoding'
p878
asbag69
(g90
g71
NtRp879
(dp880
g74
(dp881
g101
g102
ssg83
g870
sg76
(lp882
S':'
asbag69
(g90
g71
NtRp883
(dp884
g74
(dp885
sg83
g870
sg76
(lp886
g69
(g70
g71
NtRp887
(dp888
g74
(dp889
g82
I4
ssg83
g883
sg76
(lp890
S'gzip, deflate'
p891
asbasbasbag69
(g85
g71
NtRp892
(dp893
g74
(dp894
sg83
g688
sg76
(lp895
g69
(g90
g71
NtRp896
(dp897
g74
(dp898
g94
g95
ssg83
g892
sg76
(lp899
S'http_accept_language'
p900
asbag69
(g90
g71
NtRp901
(dp902
g74
(dp903
g101
g102
ssg83
g892
sg76
(lp904
S':'
asbag69
(g90
g71
NtRp905
(dp906
g74
(dp907
sg83
g892
sg76
(lp908
g69
(g70
g71
NtRp909
(dp910
g74
(dp911
g82
I4
ssg83
g905
sg76
(lp912
S'es-es,es;q=0.8,en-us;q=0.5,en;q=0.3'
p913
asbasbasbag69
(g85
g71
NtRp914
(dp915
g74
(dp916
sg83
g688
sg76
(lp917
g69
(g90
g71
NtRp918
(dp919
g74
(dp920
g94
g95
ssg83
g914
sg76
(lp921
S'http_connection'
p922
asbag69
(g90
g71
NtRp923
(dp924
g74
(dp925
g101
g102
ssg83
g914
sg76
(lp926
S':'
asbag69
(g90
g71
NtRp927
(dp928
g74
(dp929
sg83
g914
sg76
(lp930
g69
(g70
g71
NtRp931
(dp932
g74
(dp933
g82
I4
ssg83
g927
sg76
(lp934
S'keep-alive'
p935
asbasbasbag69
(g85
g71
NtRp936
(dp937
g74
(dp938
sg83
g688
sg76
(lp939
g69
(g90
g71
NtRp940
(dp941
g74
(dp942
g94
g95
ssg83
g936
sg76
(lp943
S'http_cookie'
p944
asbag69
(g90
g71
NtRp945
(dp946
g74
(dp947
g101
g102
ssg83
g936
sg76
(lp948
S':'
asbag69
(g90
g71
NtRp949
(dp950
g74
(dp951
sg83
g936
sg76
(lp952
g69
(g70
g71
NtRp953
(dp954
g74
(dp955
g82
I4
ssg83
g949
sg76
(lp956
S'session_id_init=127.0.0.1-db1a5172-e0eb-4779-bead-3eff2ec2fe17; session_id_admin=127.0.0.1-1af679c7-1fb7-4e3c-be5e-91b2ecc5c8df'
p957
asbasbasbag69
(g85
g71
NtRp958
(dp959
g74
(dp960
sg83
g688
sg76
(lp961
g69
(g90
g71
NtRp962
(dp963
g74
(dp964
g94
g95
ssg83
g958
sg76
(lp965
S'http_host'
p966
asbag69
(g90
g71
NtRp967
(dp968
g74
(dp969
g101
g102
ssg83
g958
sg76
(lp970
S':'
asbag69
(g90
g71
NtRp971
(dp972
g74
(dp973
sg83
g958
sg76
(lp974
g69
(g70
g71
NtRp975
(dp976
g74
(dp977
g82
I4
ssg83
g971
sg76
(lp978
S'127.0.0.1:8000'
p979
asbasbasbag69
(g85
g71
NtRp980
(dp981
g74
(dp982
sg83
g688
sg76
(lp983
g69
(g90
g71
NtRp984
(dp985
g74
(dp986
g94
g95
ssg83
g980
sg76
(lp987
S'http_referer'
p988
asbag69
(g90
g71
NtRp989
(dp990
g74
(dp991
g101
g102
ssg83
g980
sg76
(lp992
S':'
asbag69
(g90
g71
NtRp993
(dp994
g74
(dp995
sg83
g980
sg76
(lp996
g69
(g70
g71
NtRp997
(dp998
g74
(dp999
g82
I4
ssg83
g993
sg76
(lp1000
S'http://127.0.0.1:8000/init/default/presupuestos'
p1001
asbasbasbag69
(g85
g71
NtRp1002
(dp1003
g74
(dp1004
sg83
g688
sg76
(lp1005
g69
(g90
g71
NtRp1006
(dp1007
g74
(dp1008
g94
g95
ssg83
g1002
sg76
(lp1009
S'http_user_agent'
p1010
asbag69
(g90
g71
NtRp1011
(dp1012
g74
(dp1013
g101
g102
ssg83
g1002
sg76
(lp1014
S':'
asbag69
(g90
g71
NtRp1015
(dp1016
g74
(dp1017
sg83
g1002
sg76
(lp1018
g69
(g70
g71
NtRp1019
(dp1020
g74
(dp1021
g82
I4
ssg83
g1015
sg76
(lp1022
S'Mozilla/5.0 (Windows NT 6.1; WOW64; rv:11.0) Gecko/20100101 Firefox/11.0'
p1023
asbasbasbag69
(g85
g71
NtRp1024
(dp1025
g74
(dp1026
sg83
g688
sg76
(lp1027
g69
(g90
g71
NtRp1028
(dp1029
g74
(dp1030
g94
g95
ssg83
g1024
sg76
(lp1031
S'is_jython'
p1032
asbag69
(g90
g71
NtRp1033
(dp1034
g74
(dp1035
g101
g102
ssg83
g1024
sg76
(lp1036
S':'
asbag69
(g90
g71
NtRp1037
(dp1038
g74
(dp1039
sg83
g1024
sg76
(lp1040
g69
(g70
g71
NtRp1041
(dp1042
g74
(dp1043
g82
I4
ssg83
g1037
sg76
(lp1044
g112
asbasbasbag69
(g85
g71
NtRp1045
(dp1046
g74
(dp1047
sg83
g688
sg76
(lp1048
g69
(g90
g71
NtRp1049
(dp1050
g74
(dp1051
g94
g95
ssg83
g1045
sg76
(lp1052
S'is_pypy'
p1053
asbag69
(g90
g71
NtRp1054
(dp1055
g74
(dp1056
g101
g102
ssg83
g1045
sg76
(lp1057
S':'
asbag69
(g90
g71
NtRp1058
(dp1059
g74
(dp1060
sg83
g1045
sg76
(lp1061
g69
(g70
g71
NtRp1062
(dp1063
g74
(dp1064
g82
I4
ssg83
g1058
sg76
(lp1065
g112
asbasbasbag69
(g85
g71
NtRp1066
(dp1067
g74
(dp1068
sg83
g688
sg76
(lp1069
g69
(g90
g71
NtRp1070
(dp1071
g74
(dp1072
g94
g95
ssg83
g1066
sg76
(lp1073
S'path_info'
p1074
asbag69
(g90
g71
NtRp1075
(dp1076
g74
(dp1077
g101
g102
ssg83
g1066
sg76
(lp1078
S':'
asbag69
(g90
g71
NtRp1079
(dp1080
g74
(dp1081
sg83
g1066
sg76
(lp1082
g69
(g70
g71
NtRp1083
(dp1084
g74
(dp1085
g82
I4
ssg83
g1079
sg76
(lp1086
S'/init/default/prueba/read/movimientos/20'
p1087
asbasbasbag69
(g85
g71
NtRp1088
(dp1089
g74
(dp1090
sg83
g688
sg76
(lp1091
g69
(g90
g71
NtRp1092
(dp1093
g74
(dp1094
g94
g95
ssg83
g1088
sg76
(lp1095
S'query_string'
p1096
asbag69
(g90
g71
NtRp1097
(dp1098
g74
(dp1099
g101
g102
ssg83
g1088
sg76
(lp1100
S':'
asbag69
(g90
g71
NtRp1101
(dp1102
g74
(dp1103
sg83
g1088
sg76
(lp1104
g69
(g70
g71
NtRp1105
(dp1106
g74
(dp1107
g82
I4
ssg83
g1101
sg76
(lp1108
S''
asbasbasbag69
(g85
g71
NtRp1109
(dp1110
g74
(dp1111
sg83
g688
sg76
(lp1112
g69
(g90
g71
NtRp1113
(dp1114
g74
(dp1115
g94
g95
ssg83
g1109
sg76
(lp1116
S'remote_addr'
p1117
asbag69
(g90
g71
NtRp1118
(dp1119
g74
(dp1120
g101
g102
ssg83
g1109
sg76
(lp1121
S':'
asbag69
(g90
g71
NtRp1122
(dp1123
g74
(dp1124
sg83
g1109
sg76
(lp1125
g69
(g70
g71
NtRp1126
(dp1127
g74
(dp1128
g82
I4
ssg83
g1122
sg76
(lp1129
g241
asbasbasbag69
(g85
g71
NtRp1130
(dp1131
g74
(dp1132
sg83
g688
sg76
(lp1133
g69
(g90
g71
NtRp1134
(dp1135
g74
(dp1136
g94
g95
ssg83
g1130
sg76
(lp1137
S'remote_port'
p1138
asbag69
(g90
g71
NtRp1139
(dp1140
g74
(dp1141
g101
g102
ssg83
g1130
sg76
(lp1142
S':'
asbag69
(g90
g71
NtRp1143
(dp1144
g74
(dp1145
sg83
g1130
sg76
(lp1146
g69
(g70
g71
NtRp1147
(dp1148
g74
(dp1149
g82
I4
ssg83
g1143
sg76
(lp1150
S'50168'
p1151
asbasbasbag69
(g85
g71
NtRp1152
(dp1153
g74
(dp1154
sg83
g688
sg76
(lp1155
g69
(g90
g71
NtRp1156
(dp1157
g74
(dp1158
g94
g95
ssg83
g1152
sg76
(lp1159
S'request_method'
p1160
asbag69
(g90
g71
NtRp1161
(dp1162
g74
(dp1163
g101
g102
ssg83
g1152
sg76
(lp1164
S':'
asbag69
(g90
g71
NtRp1165
(dp1166
g74
(dp1167
sg83
g1152
sg76
(lp1168
g69
(g70
g71
NtRp1169
(dp1170
g74
(dp1171
g82
I4
ssg83
g1165
sg76
(lp1172
S'GET'
p1173
asbasbasbag69
(g85
g71
NtRp1174
(dp1175
g74
(dp1176
sg83
g688
sg76
(lp1177
g69
(g90
g71
NtRp1178
(dp1179
g74
(dp1180
g94
g95
ssg83
g1174
sg76
(lp1181
S'script_name'
p1182
asbag69
(g90
g71
NtRp1183
(dp1184
g74
(dp1185
g101
g102
ssg83
g1174
sg76
(lp1186
S':'
asbag69
(g90
g71
NtRp1187
(dp1188
g74
(dp1189
sg83
g1174
sg76
(lp1190
g69
(g70
g71
NtRp1191
(dp1192
g74
(dp1193
g82
I4
ssg83
g1187
sg76
(lp1194
S''
asbasbasbag69
(g85
g71
NtRp1195
(dp1196
g74
(dp1197
sg83
g688
sg76
(lp1198
g69
(g90
g71
NtRp1199
(dp1200
g74
(dp1201
g94
g95
ssg83
g1195
sg76
(lp1202
S'server_name'
p1203
asbag69
(g90
g71
NtRp1204
(dp1205
g74
(dp1206
g101
g102
ssg83
g1195
sg76
(lp1207
S':'
asbag69
(g90
g71
NtRp1208
(dp1209
g74
(dp1210
sg83
g1195
sg76
(lp1211
g69
(g70
g71
NtRp1212
(dp1213
g74
(dp1214
g82
I4
ssg83
g1208
sg76
(lp1215
S'Jorge-PC'
p1216
asbasbasbag69
(g85
g71
NtRp1217
(dp1218
g74
(dp1219
sg83
g688
sg76
(lp1220
g69
(g90
g71
NtRp1221
(dp1222
g74
(dp1223
g94
g95
ssg83
g1217
sg76
(lp1224
S'server_port'
p1225
asbag69
(g90
g71
NtRp1226
(dp1227
g74
(dp1228
g101
g102
ssg83
g1217
sg76
(lp1229
S':'
asbag69
(g90
g71
NtRp1230
(dp1231
g74
(dp1232
sg83
g1217
sg76
(lp1233
g69
(g70
g71
NtRp1234
(dp1235
g74
(dp1236
g82
I4
ssg83
g1230
sg76
(lp1237
S'8000'
p1238
asbasbasbag69
(g85
g71
NtRp1239
(dp1240
g74
(dp1241
sg83
g688
sg76
(lp1242
g69
(g90
g71
NtRp1243
(dp1244
g74
(dp1245
g94
g95
ssg83
g1239
sg76
(lp1246
S'server_protocol'
p1247
asbag69
(g90
g71
NtRp1248
(dp1249
g74
(dp1250
g101
g102
ssg83
g1239
sg76
(lp1251
S':'
asbag69
(g90
g71
NtRp1252
(dp1253
g74
(dp1254
sg83
g1239
sg76
(lp1255
g69
(g70
g71
NtRp1256
(dp1257
g74
(dp1258
g82
I4
ssg83
g1252
sg76
(lp1259
S'HTTP/1.1'
p1260
asbasbasbag69
(g85
g71
NtRp1261
(dp1262
g74
(dp1263
sg83
g688
sg76
(lp1264
g69
(g90
g71
NtRp1265
(dp1266
g74
(dp1267
g94
g95
ssg83
g1261
sg76
(lp1268
S'server_software'
p1269
asbag69
(g90
g71
NtRp1270
(dp1271
g74
(dp1272
g101
g102
ssg83
g1261
sg76
(lp1273
S':'
asbag69
(g90
g71
NtRp1274
(dp1275
g74
(dp1276
sg83
g1261
sg76
(lp1277
g69
(g70
g71
NtRp1278
(dp1279
g74
(dp1280
g82
I4
ssg83
g1274
sg76
(lp1281
S'Rocket 1.2.4'
p1282
asbasbasbag69
(g85
g71
NtRp1283
(dp1284
g74
(dp1285
sg83
g688
sg76
(lp1286
g69
(g90
g71
NtRp1287
(dp1288
g74
(dp1289
g94
g95
ssg83
g1283
sg76
(lp1290
S'web2py_crontype'
p1291
asbag69
(g90
g71
NtRp1292
(dp1293
g74
(dp1294
g101
g102
ssg83
g1283
sg76
(lp1295
S':'
asbag69
(g90
g71
NtRp1296
(dp1297
g74
(dp1298
sg83
g1283
sg76
(lp1299
g69
(g70
g71
NtRp1300
(dp1301
g74
(dp1302
g82
I4
ssg83
g1296
sg76
(lp1303
S'hard'
p1304
asbasbasbag69
(g85
g71
NtRp1305
(dp1306
g74
(dp1307
sg83
g688
sg76
(lp1308
g69
(g90
g71
NtRp1309
(dp1310
g74
(dp1311
g94
g95
ssg83
g1305
sg76
(lp1312
S'web2py_path'
p1313
asbag69
(g90
g71
NtRp1314
(dp1315
g74
(dp1316
g101
g102
ssg83
g1305
sg76
(lp1317
S':'
asbag69
(g90
g71
NtRp1318
(dp1319
g74
(dp1320
sg83
g1305
sg76
(lp1321
g69
(g70
g71
NtRp1322
(dp1323
g74
(dp1324
g82
I4
ssg83
g1318
sg76
(lp1325
g735
asbasbasbag69
(g85
g71
NtRp1326
(dp1327
g74
(dp1328
sg83
g688
sg76
(lp1329
g69
(g90
g71
NtRp1330
(dp1331
g74
(dp1332
g94
g95
ssg83
g1326
sg76
(lp1333
S'web2py_version'
p1334
asbag69
(g90
g71
NtRp1335
(dp1336
g74
(dp1337
g101
g102
ssg83
g1326
sg76
(lp1338
S':'
asbag69
(g90
g71
NtRp1339
(dp1340
g74
(dp1341
sg83
g1326
sg76
(lp1342
g69
(g70
g71
NtRp1343
(dp1344
g74
(dp1345
g82
I4
ssg83
g1339
sg76
(lp1346
g69
(g78
g71
NtRp1347
(dp1348
g74
(dp1349
g82
I3
ssg83
Nsg76
(lp1350
g69
(g85
g71
NtRp1351
(dp1352
g74
(dp1353
sg83
g1347
sg76
(lp1354
g69
(g90
g71
NtRp1355
(dp1356
g74
(dp1357
sg83
g1351
sg76
(lp1358
g69
(g70
g71
NtRp1359
(dp1360
g74
(dp1361
g82
I3
ssg83
g1355
sg76
(lp1362
S'1'
asbasbasbag69
(g85
g71
NtRp1363
(dp1364
g74
(dp1365
sg83
g1347
sg76
(lp1366
g69
(g90
g71
NtRp1367
(dp1368
g74
(dp1369
sg83
g1363
sg76
(lp1370
g69
(g70
g71
NtRp1371
(dp1372
g74
(dp1373
g82
I3
ssg83
g1367
sg76
(lp1374
S'99'
p1375
asbasbasbag69
(g85
g71
NtRp1376
(dp1377
g74
(dp1378
sg83
g1347
sg76
(lp1379
g69
(g90
g71
NtRp1380
(dp1381
g74
(dp1382
sg83
g1376
sg76
(lp1383
g69
(g70
g71
NtRp1384
(dp1385
g74
(dp1386
g82
I3
ssg83
g1380
sg76
(lp1387
S'7'
asbasbasbag69
(g85
g71
NtRp1388
(dp1389
g74
(dp1390
sg83
g1347
sg76
(lp1391
g69
(g90
g71
NtRp1392
(dp1393
g74
(dp1394
sg83
g1388
sg76
(lp1395
g69
(g70
g71
NtRp1396
(dp1397
g74
(dp1398
g82
I3
ssg83
g1392
sg76
(lp1399
S'datetime.datetime(2012, 3, 4, 22, 12, 8)'
p1400
asbasbasbag69
(g85
g71
NtRp1401
(dp1402
g74
(dp1403
sg83
g1347
sg76
(lp1404
g69
(g90
g71
NtRp1405
(dp1406
g74
(dp1407
sg83
g1401
sg76
(lp1408
g69
(g70
g71
NtRp1409
(dp1410
g74
(dp1411
g82
I3
ssg83
g1405
sg76
(lp1412
S'stable'
p1413
asbasbasbasbasbasbasbag69
(g85
g71
NtRp1414
(dp1415
g74
(dp1416
sg83
g688
sg76
(lp1417
g69
(g90
g71
NtRp1418
(dp1419
g74
(dp1420
g94
g95
ssg83
g1414
sg76
(lp1421
S'wsgi_errors'
p1422
asbag69
(g90
g71
NtRp1423
(dp1424
g74
(dp1425
g101
g102
ssg83
g1414
sg76
(lp1426
S':'
asbag69
(g90
g71
NtRp1427
(dp1428
g74
(dp1429
sg83
g1414
sg76
(lp1430
g69
(g70
g71
NtRp1431
(dp1432
g74
(dp1433
g82
I4
ssg83
g1427
sg76
(lp1434
S"<open file '<stderr>', mode 'w' at 0x0000000001D361E0>"
p1435
asbasbasbag69
(g85
g71
NtRp1436
(dp1437
g74
(dp1438
sg83
g688
sg76
(lp1439
g69
(g90
g71
NtRp1440
(dp1441
g74
(dp1442
g94
g95
ssg83
g1436
sg76
(lp1443
S'wsgi_file_wrapper'
p1444
asbag69
(g90
g71
NtRp1445
(dp1446
g74
(dp1447
g101
g102
ssg83
g1436
sg76
(lp1448
S':'
asbag69
(g90
g71
NtRp1449
(dp1450
g74
(dp1451
sg83
g1436
sg76
(lp1452
g69
(g70
g71
NtRp1453
(dp1454
g74
(dp1455
g82
I4
ssg83
g1449
sg76
(lp1456
S'<class wsgiref.util.FileWrapper at 0x000000000380EC48>'
p1457
asbasbasbag69
(g85
g71
NtRp1458
(dp1459
g74
(dp1460
sg83
g688
sg76
(lp1461
g69
(g90
g71
NtRp1462
(dp1463
g74
(dp1464
g94
g95
ssg83
g1458
sg76
(lp1465
S'wsgi_input'
p1466
asbag69
(g90
g71
NtRp1467
(dp1468
g74
(dp1469
g101
g102
ssg83
g1458
sg76
(lp1470
S':'
asbag69
(g90
g71
NtRp1471
(dp1472
g74
(dp1473
sg83
g1458
sg76
(lp1474
g69
(g70
g71
NtRp1475
(dp1476
g74
(dp1477
g82
I4
ssg83
g1471
sg76
(lp1478
S'<socket._fileobject object at 0x0000000004958ED0>'
p1479
asbasbasbag69
(g85
g71
NtRp1480
(dp1481
g74
(dp1482
sg83
g688
sg76
(lp1483
g69
(g90
g71
NtRp1484
(dp1485
g74
(dp1486
g94
g95
ssg83
g1480
sg76
(lp1487
S'wsgi_multiprocess'
p1488
asbag69
(g90
g71
NtRp1489
(dp1490
g74
(dp1491
g101
g102
ssg83
g1480
sg76
(lp1492
S':'
asbag69
(g90
g71
NtRp1493
(dp1494
g74
(dp1495
sg83
g1480
sg76
(lp1496
g69
(g70
g71
NtRp1497
(dp1498
g74
(dp1499
g82
I4
ssg83
g1493
sg76
(lp1500
g112
asbasbasbag69
(g85
g71
NtRp1501
(dp1502
g74
(dp1503
sg83
g688
sg76
(lp1504
g69
(g90
g71
NtRp1505
(dp1506
g74
(dp1507
g94
g95
ssg83
g1501
sg76
(lp1508
S'wsgi_multithread'
p1509
asbag69
(g90
g71
NtRp1510
(dp1511
g74
(dp1512
g101
g102
ssg83
g1501
sg76
(lp1513
S':'
asbag69
(g90
g71
NtRp1514
(dp1515
g74
(dp1516
sg83
g1501
sg76
(lp1517
g69
(g70
g71
NtRp1518
(dp1519
g74
(dp1520
g82
I4
ssg83
g1514
sg76
(lp1521
S'True'
p1522
asbasbasbag69
(g85
g71
NtRp1523
(dp1524
g74
(dp1525
sg83
g688
sg76
(lp1526
g69
(g90
g71
NtRp1527
(dp1528
g74
(dp1529
g94
g95
ssg83
g1523
sg76
(lp1530
S'wsgi_run_once'
p1531
asbag69
(g90
g71
NtRp1532
(dp1533
g74
(dp1534
g101
g102
ssg83
g1523
sg76
(lp1535
S':'
asbag69
(g90
g71
NtRp1536
(dp1537
g74
(dp1538
sg83
g1523
sg76
(lp1539
g69
(g70
g71
NtRp1540
(dp1541
g74
(dp1542
g82
I4
ssg83
g1536
sg76
(lp1543
g112
asbasbasbag69
(g85
g71
NtRp1544
(dp1545
g74
(dp1546
sg83
g688
sg76
(lp1547
g69
(g90
g71
NtRp1548
(dp1549
g74
(dp1550
g94
g95
ssg83
g1544
sg76
(lp1551
S'wsgi_url_scheme'
p1552
asbag69
(g90
g71
NtRp1553
(dp1554
g74
(dp1555
g101
g102
ssg83
g1544
sg76
(lp1556
S':'
asbag69
(g90
g71
NtRp1557
(dp1558
g74
(dp1559
sg83
g1544
sg76
(lp1560
g69
(g70
g71
NtRp1561
(dp1562
g74
(dp1563
g82
I4
ssg83
g1557
sg76
(lp1564
S'http'
p1565
asbasbasbag69
(g85
g71
NtRp1566
(dp1567
g74
(dp1568
sg83
g688
sg76
(lp1569
g69
(g90
g71
NtRp1570
(dp1571
g74
(dp1572
g94
g95
ssg83
g1566
sg76
(lp1573
S'wsgi_version'
p1574
asbag69
(g90
g71
NtRp1575
(dp1576
g74
(dp1577
g101
g102
ssg83
g1566
sg76
(lp1578
S':'
asbag69
(g90
g71
NtRp1579
(dp1580
g74
(dp1581
sg83
g1566
sg76
(lp1582
g69
(g70
g71
NtRp1583
(dp1584
g74
(dp1585
g82
I4
ssg83
g1579
sg76
(lp1586
g69
(g78
g71
NtRp1587
(dp1588
g74
(dp1589
g82
I3
ssg83
Nsg76
(lp1590
g69
(g85
g71
NtRp1591
(dp1592
g74
(dp1593
sg83
g1587
sg76
(lp1594
g69
(g90
g71
NtRp1595
(dp1596
g74
(dp1597
sg83
g1591
sg76
(lp1598
g69
(g70
g71
NtRp1599
(dp1600
g74
(dp1601
g82
I3
ssg83
g1595
sg76
(lp1602
S'1'
asbasbasbag69
(g85
g71
NtRp1603
(dp1604
g74
(dp1605
sg83
g1587
sg76
(lp1606
g69
(g90
g71
NtRp1607
(dp1608
g74
(dp1609
sg83
g1603
sg76
(lp1610
g69
(g70
g71
NtRp1611
(dp1612
g74
(dp1613
g82
I3
ssg83
g1607
sg76
(lp1614
S'0'
asbasbasbasbasbasbasbasbasbasbasbag69
(g85
g71
NtRp1615
(dp1616
g74
(dp1617
sg83
g79
sg76
(lp1618
g69
(g90
g71
NtRp1619
(dp1620
g74
(dp1621
g94
g95
ssg83
g1615
sg76
(lp1622
S'extension'
p1623
asbag69
(g90
g71
NtRp1624
(dp1625
g74
(dp1626
g101
g102
ssg83
g1615
sg76
(lp1627
S':'
asbag69
(g90
g71
NtRp1628
(dp1629
g74
(dp1630
sg83
g1615
sg76
(lp1631
g69
(g70
g71
NtRp1632
(dp1633
g74
(dp1634
g82
I5
ssg83
g1628
sg76
(lp1635
S'html'
p1636
asbasbasbag69
(g85
g71
NtRp1637
(dp1638
g74
(dp1639
sg83
g79
sg76
(lp1640
g69
(g90
g71
NtRp1641
(dp1642
g74
(dp1643
g94
g95
ssg83
g1637
sg76
(lp1644
S'folder'
p1645
asbag69
(g90
g71
NtRp1646
(dp1647
g74
(dp1648
g101
g102
ssg83
g1637
sg76
(lp1649
S':'
asbag69
(g90
g71
NtRp1650
(dp1651
g74
(dp1652
sg83
g1637
sg76
(lp1653
g69
(g70
g71
NtRp1654
(dp1655
g74
(dp1656
g82
I5
ssg83
g1650
sg76
(lp1657
S'c:\\Users\\Jorge\\Downloads\\web2py_src\\web2py\\applications\\init\\'
p1658
asbasbasbag69
(g85
g71
NtRp1659
(dp1660
g74
(dp1661
sg83
g79
sg76
(lp1662
g69
(g90
g71
NtRp1663
(dp1664
g74
(dp1665
g94
g95
ssg83
g1659
sg76
(lp1666
S'function'
p1667
asbag69
(g90
g71
NtRp1668
(dp1669
g74
(dp1670
g101
g102
ssg83
g1659
sg76
(lp1671
S':'
asbag69
(g90
g71
NtRp1672
(dp1673
g74
(dp1674
sg83
g1659
sg76
(lp1675
g69
(g70
g71
NtRp1676
(dp1677
g74
(dp1678
g82
I5
ssg83
g1672
sg76
(lp1679
S'prueba'
p1680
asbasbasbag69
(g85
g71
NtRp1681
(dp1682
g74
(dp1683
sg83
g79
sg76
(lp1684
g69
(g90
g71
NtRp1685
(dp1686
g74
(dp1687
g94
g95
ssg83
g1681
sg76
(lp1688
S'get_vars'
p1689
asbag69
(g90
g71
NtRp1690
(dp1691
g74
(dp1692
g101
g102
ssg83
g1681
sg76
(lp1693
S':'
asbag69
(g90
g71
NtRp1694
(dp1695
g74
(dp1696
sg83
g1681
sg76
(lp1697
g69
(g70
g71
NtRp1698
(dp1699
g74
(dp1700
g82
I5
ssg83
g1694
sg76
(lp1701
g69
(g78
g71
NtRp1702
(dp1703
g74
(dp1704
g82
I4
ssg83
Nsg76
(lp1705
sbasbasbasbag69
(g85
g71
NtRp1706
(dp1707
g74
(dp1708
sg83
g79
sg76
(lp1709
g69
(g90
g71
NtRp1710
(dp1711
g74
(dp1712
g94
g95
ssg83
g1706
sg76
(lp1713
S'global_settings'
p1714
asbag69
(g90
g71
NtRp1715
(dp1716
g74
(dp1717
g101
g102
ssg83
g1706
sg76
(lp1718
S':'
asbag69
(g90
g71
NtRp1719
(dp1720
g74
(dp1721
sg83
g1706
sg76
(lp1722
g69
(g70
g71
NtRp1723
(dp1724
g74
(dp1725
g82
I5
ssg83
g1719
sg76
(lp1726
g69
(g78
g71
NtRp1727
(dp1728
g74
(dp1729
g82
I4
ssg83
Nsg76
(lp1730
g69
(g85
g71
NtRp1731
(dp1732
g74
(dp1733
sg83
g1727
sg76
(lp1734
g69
(g90
g71
NtRp1735
(dp1736
g74
(dp1737
g94
g95
ssg83
g1731
sg76
(lp1738
g700
asbag69
(g90
g71
NtRp1739
(dp1740
g74
(dp1741
g101
g102
ssg83
g1731
sg76
(lp1742
S':'
asbag69
(g90
g71
NtRp1743
(dp1744
g74
(dp1745
sg83
g1731
sg76
(lp1746
g69
(g70
g71
NtRp1747
(dp1748
g74
(dp1749
g82
I4
ssg83
g1743
sg76
(lp1750
S"set(['c:\\\\Users\\\\Jorge\\\\Downloads\\\\web2py_src\\\\web2py\\\\applications\\\\admin\\\\', 'c:\\\\Users\\\\Jorge\\\\Downloads\\\\web2py_src\\\\web2py\\\\applications\\\\init\\\\'])"
p1751
asbasbasbag69
(g85
g71
NtRp1752
(dp1753
g74
(dp1754
sg83
g1727
sg76
(lp1755
g69
(g90
g71
NtRp1756
(dp1757
g74
(dp1758
g94
g95
ssg83
g1752
sg76
(lp1759
g722
asbag69
(g90
g71
NtRp1760
(dp1761
g74
(dp1762
g101
g102
ssg83
g1752
sg76
(lp1763
S':'
asbag69
(g90
g71
NtRp1764
(dp1765
g74
(dp1766
sg83
g1752
sg76
(lp1767
g69
(g70
g71
NtRp1768
(dp1769
g74
(dp1770
g82
I4
ssg83
g1764
sg76
(lp1771
g735
asbasbasbag69
(g85
g71
NtRp1772
(dp1773
g74
(dp1774
sg83
g1727
sg76
(lp1775
g69
(g90
g71
NtRp1776
(dp1777
g74
(dp1778
g94
g95
ssg83
g1772
sg76
(lp1779
g744
asbag69
(g90
g71
NtRp1780
(dp1781
g74
(dp1782
g101
g102
ssg83
g1772
sg76
(lp1783
S':'
asbag69
(g90
g71
NtRp1784
(dp1785
g74
(dp1786
sg83
g1772
sg76
(lp1787
g69
(g70
g71
NtRp1788
(dp1789
g74
(dp1790
g82
I4
ssg83
g1784
sg76
(lp1791
g69
(g78
g71
NtRp1792
(dp1793
g74
(dp1794
g82
I3
ssg83
Nsg76
(lp1795
sbasbasbasbag69
(g85
g71
NtRp1796
(dp1797
g74
(dp1798
sg83
g1727
sg76
(lp1799
g69
(g90
g71
NtRp1800
(dp1801
g74
(dp1802
g94
g95
ssg83
g1796
sg76
(lp1803
g769
asbag69
(g90
g71
NtRp1804
(dp1805
g74
(dp1806
g101
g102
ssg83
g1796
sg76
(lp1807
S':'
asbag69
(g90
g71
NtRp1808
(dp1809
g74
(dp1810
sg83
g1796
sg76
(lp1811
g69
(g70
g71
NtRp1812
(dp1813
g74
(dp1814
g82
I4
ssg83
g1808
sg76
(lp1815
S"<Values at 0x374e208: {'verbose': False, 'ip': '127.0.0.1', 'shutdown_timeout': 5, 'taskbar': False, 'nocron': False, 'pid_filename': 'httpserver.pid', 'maxthreads': None, 'softcron': False, 'server_name': 'Jorge-PC', 'bpython': False, 'nogui': False, 'port': 8000, 'extcron': False, 'debuglevel': 30, 'test': None, 'folder': 'c:\\\\Users\\\\Jorge\\\\Downloads\\\\web2py_src\\\\web2py', 'config': '', 'import_models': False, 'winservice': '', 'shell': None, 'run': '', 'log_filename': 'httpserver.log', 'args': [''], 'socket_timeout': 5, 'ssl_ca_certificate': None, 'scheduler': None, 'profiler_filename': None, 'ssl_private_key': '', 'password': '<ask>', 'request_queue_size': 5, 'ssl_certificate': '', 'cronjob': False, 'numthreads': None, 'quiet': False, 'interfaces': None, 'minthreads': None, 'timeout': 10, 'plain': False, 'nobanner': False}>"
p1816
asbasbasbag69
(g85
g71
NtRp1817
(dp1818
g74
(dp1819
sg83
g1727
sg76
(lp1820
g69
(g90
g71
NtRp1821
(dp1822
g74
(dp1823
g94
g95
ssg83
g1817
sg76
(lp1824
g791
asbag69
(g90
g71
NtRp1825
(dp1826
g74
(dp1827
g101
g102
ssg83
g1817
sg76
(lp1828
S':'
asbag69
(g90
g71
NtRp1829
(dp1830
g74
(dp1831
sg83
g1817
sg76
(lp1832
g69
(g70
g71
NtRp1833
(dp1834
g74
(dp1835
g82
I4
ssg83
g1829
sg76
(lp1836
S'set([])'
p1837
asbasbasbag69
(g85
g71
NtRp1838
(dp1839
g74
(dp1840
sg83
g1727
sg76
(lp1841
g69
(g90
g71
NtRp1842
(dp1843
g74
(dp1844
g94
g95
ssg83
g1838
sg76
(lp1845
g813
asbag69
(g90
g71
NtRp1846
(dp1847
g74
(dp1848
g101
g102
ssg83
g1838
sg76
(lp1849
S':'
asbag69
(g90
g71
NtRp1850
(dp1851
g74
(dp1852
sg83
g1838
sg76
(lp1853
g69
(g70
g71
NtRp1854
(dp1855
g74
(dp1856
g82
I4
ssg83
g1850
sg76
(lp1857
g112
asbasbasbag69
(g85
g71
NtRp1858
(dp1859
g74
(dp1860
sg83
g1727
sg76
(lp1861
g69
(g90
g71
NtRp1862
(dp1863
g74
(dp1864
g94
g95
ssg83
g1858
sg76
(lp1865
g834
asbag69
(g90
g71
NtRp1866
(dp1867
g74
(dp1868
g101
g102
ssg83
g1858
sg76
(lp1869
S':'
asbag69
(g90
g71
NtRp1870
(dp1871
g74
(dp1872
sg83
g1858
sg76
(lp1873
g69
(g70
g71
NtRp1874
(dp1875
g74
(dp1876
g82
I4
ssg83
g1870
sg76
(lp1877
g847
asbasbasbag69
(g85
g71
NtRp1878
(dp1879
g74
(dp1880
sg83
g1727
sg76
(lp1881
g69
(g90
g71
NtRp1882
(dp1883
g74
(dp1884
g94
g95
ssg83
g1878
sg76
(lp1885
g1032
asbag69
(g90
g71
NtRp1886
(dp1887
g74
(dp1888
g101
g102
ssg83
g1878
sg76
(lp1889
S':'
asbag69
(g90
g71
NtRp1890
(dp1891
g74
(dp1892
sg83
g1878
sg76
(lp1893
g69
(g70
g71
NtRp1894
(dp1895
g74
(dp1896
g82
I4
ssg83
g1890
sg76
(lp1897
g112
asbasbasbag69
(g85
g71
NtRp1898
(dp1899
g74
(dp1900
sg83
g1727
sg76
(lp1901
g69
(g90
g71
NtRp1902
(dp1903
g74
(dp1904
g94
g95
ssg83
g1898
sg76
(lp1905
g1053
asbag69
(g90
g71
NtRp1906
(dp1907
g74
(dp1908
g101
g102
ssg83
g1898
sg76
(lp1909
S':'
asbag69
(g90
g71
NtRp1910
(dp1911
g74
(dp1912
sg83
g1898
sg76
(lp1913
g69
(g70
g71
NtRp1914
(dp1915
g74
(dp1916
g82
I4
ssg83
g1910
sg76
(lp1917
g112
asbasbasbag69
(g85
g71
NtRp1918
(dp1919
g74
(dp1920
sg83
g1727
sg76
(lp1921
g69
(g90
g71
NtRp1922
(dp1923
g74
(dp1924
g94
g95
ssg83
g1918
sg76
(lp1925
g1291
asbag69
(g90
g71
NtRp1926
(dp1927
g74
(dp1928
g101
g102
ssg83
g1918
sg76
(lp1929
S':'
asbag69
(g90
g71
NtRp1930
(dp1931
g74
(dp1932
sg83
g1918
sg76
(lp1933
g69
(g70
g71
NtRp1934
(dp1935
g74
(dp1936
g82
I4
ssg83
g1930
sg76
(lp1937
g1304
asbasbasbag69
(g85
g71
NtRp1938
(dp1939
g74
(dp1940
sg83
g1727
sg76
(lp1941
g69
(g90
g71
NtRp1942
(dp1943
g74
(dp1944
g94
g95
ssg83
g1938
sg76
(lp1945
g1334
asbag69
(g90
g71
NtRp1946
(dp1947
g74
(dp1948
g101
g102
ssg83
g1938
sg76
(lp1949
S':'
asbag69
(g90
g71
NtRp1950
(dp1951
g74
(dp1952
sg83
g1938
sg76
(lp1953
g69
(g70
g71
NtRp1954
(dp1955
g74
(dp1956
g82
I4
ssg83
g1950
sg76
(lp1957
g69
(g78
g71
NtRp1958
(dp1959
g74
(dp1960
g82
I3
ssg83
Nsg76
(lp1961
g69
(g85
g71
NtRp1962
(dp1963
g74
(dp1964
sg83
g1958
sg76
(lp1965
g69
(g90
g71
NtRp1966
(dp1967
g74
(dp1968
sg83
g1962
sg76
(lp1969
g69
(g70
g71
NtRp1970
(dp1971
g74
(dp1972
g82
I3
ssg83
g1966
sg76
(lp1973
S'1'
asbasbasbag69
(g85
g71
NtRp1974
(dp1975
g74
(dp1976
sg83
g1958
sg76
(lp1977
g69
(g90
g71
NtRp1978
(dp1979
g74
(dp1980
sg83
g1974
sg76
(lp1981
g69
(g70
g71
NtRp1982
(dp1983
g74
(dp1984
g82
I3
ssg83
g1978
sg76
(lp1985
S'99'
p1986
asbasbasbag69
(g85
g71
NtRp1987
(dp1988
g74
(dp1989
sg83
g1958
sg76
(lp1990
g69
(g90
g71
NtRp1991
(dp1992
g74
(dp1993
sg83
g1987
sg76
(lp1994
g69
(g70
g71
NtRp1995
(dp1996
g74
(dp1997
g82
I3
ssg83
g1991
sg76
(lp1998
S'7'
asbasbasbag69
(g85
g71
NtRp1999
(dp2000
g74
(dp2001
sg83
g1958
sg76
(lp2002
g69
(g90
g71
NtRp2003
(dp2004
g74
(dp2005
sg83
g1999
sg76
(lp2006
g69
(g70
g71
NtRp2007
(dp2008
g74
(dp2009
g82
I3
ssg83
g2003
sg76
(lp2010
S'datetime.datetime(2012, 3, 4, 22, 12, 8)'
p2011
asbasbasbag69
(g85
g71
NtRp2012
(dp2013
g74
(dp2014
sg83
g1958
sg76
(lp2015
g69
(g90
g71
NtRp2016
(dp2017
g74
(dp2018
sg83
g2012
sg76
(lp2019
g69
(g70
g71
NtRp2020
(dp2021
g74
(dp2022
g82
I3
ssg83
g2016
sg76
(lp2023
g1413
asbasbasbasbasbasbasbasbasbasbasbag69
(g85
g71
NtRp2024
(dp2025
g74
(dp2026
sg83
g79
sg76
(lp2027
g69
(g90
g71
NtRp2028
(dp2029
g74
(dp2030
g94
g95
ssg83
g2024
sg76
(lp2031
S'is_https'
p2032
asbag69
(g90
g71
NtRp2033
(dp2034
g74
(dp2035
g101
g102
ssg83
g2024
sg76
(lp2036
S':'
asbag69
(g90
g71
NtRp2037
(dp2038
g74
(dp2039
sg83
g2024
sg76
(lp2040
g69
(g70
g71
NtRp2041
(dp2042
g74
(dp2043
g82
I5
ssg83
g2037
sg76
(lp2044
g112
asbasbasbag69
(g85
g71
NtRp2045
(dp2046
g74
(dp2047
sg83
g79
sg76
(lp2048
g69
(g90
g71
NtRp2049
(dp2050
g74
(dp2051
g94
g95
ssg83
g2045
sg76
(lp2052
S'is_local'
p2053
asbag69
(g90
g71
NtRp2054
(dp2055
g74
(dp2056
g101
g102
ssg83
g2045
sg76
(lp2057
S':'
asbag69
(g90
g71
NtRp2058
(dp2059
g74
(dp2060
sg83
g2045
sg76
(lp2061
g69
(g70
g71
NtRp2062
(dp2063
g74
(dp2064
g82
I5
ssg83
g2058
sg76
(lp2065
g1522
asbasbasbag69
(g85
g71
NtRp2066
(dp2067
g74
(dp2068
sg83
g79
sg76
(lp2069
g69
(g90
g71
NtRp2070
(dp2071
g74
(dp2072
g94
g95
ssg83
g2066
sg76
(lp2073
S'is_restful'
p2074
asbag69
(g90
g71
NtRp2075
(dp2076
g74
(dp2077
g101
g102
ssg83
g2066
sg76
(lp2078
S':'
asbag69
(g90
g71
NtRp2079
(dp2080
g74
(dp2081
sg83
g2066
sg76
(lp2082
g69
(g70
g71
NtRp2083
(dp2084
g74
(dp2085
g82
I5
ssg83
g2079
sg76
(lp2086
g112
asbasbasbag69
(g85
g71
NtRp2087
(dp2088
g74
(dp2089
sg83
g79
sg76
(lp2090
g69
(g90
g71
NtRp2091
(dp2092
g74
(dp2093
g94
g95
ssg83
g2087
sg76
(lp2094
S'now'
p2095
asbag69
(g90
g71
NtRp2096
(dp2097
g74
(dp2098
g101
g102
ssg83
g2087
sg76
(lp2099
S':'
asbag69
(g90
g71
NtRp2100
(dp2101
g74
(dp2102
sg83
g2087
sg76
(lp2103
g69
(g70
g71
NtRp2104
(dp2105
g74
(dp2106
g82
I5
ssg83
g2100
sg76
(lp2107
S'datetime.datetime(2012, 4, 30, 22, 34, 33, 331000)'
p2108
asbasbasbag69
(g85
g71
NtRp2109
(dp2110
g74
(dp2111
sg83
g79
sg76
(lp2112
g69
(g90
g71
NtRp2113
(dp2114
g74
(dp2115
g94
g95
ssg83
g2109
sg76
(lp2116
S'post_vars'
p2117
asbag69
(g90
g71
NtRp2118
(dp2119
g74
(dp2120
g101
g102
ssg83
g2109
sg76
(lp2121
S':'
asbag69
(g90
g71
NtRp2122
(dp2123
g74
(dp2124
sg83
g2109
sg76
(lp2125
g69
(g70
g71
NtRp2126
(dp2127
g74
(dp2128
g82
I5
ssg83
g2122
sg76
(lp2129
g69
(g78
g71
NtRp2130
(dp2131
g74
(dp2132
g82
I4
ssg83
Nsg76
(lp2133
sbasbasbasbag69
(g85
g71
NtRp2134
(dp2135
g74
(dp2136
sg83
g79
sg76
(lp2137
g69
(g90
g71
NtRp2138
(dp2139
g74
(dp2140
g94
g95
ssg83
g2134
sg76
(lp2141
S'raw_args'
p2142
asbag69
(g90
g71
NtRp2143
(dp2144
g74
(dp2145
g101
g102
ssg83
g2134
sg76
(lp2146
S':'
asbag69
(g90
g71
NtRp2147
(dp2148
g74
(dp2149
sg83
g2134
sg76
(lp2150
g69
(g70
g71
NtRp2151
(dp2152
g74
(dp2153
g82
I5
ssg83
g2147
sg76
(lp2154
S'read/movimientos/20'
p2155
asbasbasbag69
(g85
g71
NtRp2156
(dp2157
g74
(dp2158
sg83
g79
sg76
(lp2159
g69
(g90
g71
NtRp2160
(dp2161
g74
(dp2162
g94
g95
ssg83
g2156
sg76
(lp2163
S'url'
p2164
asbag69
(g90
g71
NtRp2165
(dp2166
g74
(dp2167
g101
g102
ssg83
g2156
sg76
(lp2168
S':'
asbag69
(g90
g71
NtRp2169
(dp2170
g74
(dp2171
sg83
g2156
sg76
(lp2172
g69
(g70
g71
NtRp2173
(dp2174
g74
(dp2175
g82
I5
ssg83
g2169
sg76
(lp2176
S'/init/default/prueba/read/movimientos/20'
p2177
asbasbasbag69
(g85
g71
NtRp2178
(dp2179
g74
(dp2180
sg83
g79
sg76
(lp2181
g69
(g90
g71
NtRp2182
(dp2183
g74
(dp2184
g94
g95
ssg83
g2178
sg76
(lp2185
S'utcnow'
p2186
asbag69
(g90
g71
NtRp2187
(dp2188
g74
(dp2189
g101
g102
ssg83
g2178
sg76
(lp2190
S':'
asbag69
(g90
g71
NtRp2191
(dp2192
g74
(dp2193
sg83
g2178
sg76
(lp2194
g69
(g70
g71
NtRp2195
(dp2196
g74
(dp2197
g82
I5
ssg83
g2191
sg76
(lp2198
S'datetime.datetime(2012, 5, 1, 1, 34, 33, 331000)'
p2199
asbasbasbag69
(g85
g71
NtRp2200
(dp2201
g74
(dp2202
sg83
g79
sg76
(lp2203
g69
(g90
g71
NtRp2204
(dp2205
g74
(dp2206
g94
g95
ssg83
g2200
sg76
(lp2207
S'uuid'
p2208
asbag69
(g90
g71
NtRp2209
(dp2210
g74
(dp2211
g101
g102
ssg83
g2200
sg76
(lp2212
S':'
asbag69
(g90
g71
NtRp2213
(dp2214
g74
(dp2215
sg83
g2200
sg76
(lp2216
g69
(g70
g71
NtRp2217
(dp2218
g74
(dp2219
g82
I5
ssg83
g2213
sg76
(lp2220
S'init/127.0.0.1.2012-04-30.22-34-33.e88e9e9a-37e6-43d7-a7a3-d35aaed65bee'
p2221
asbasbasbag69
(g85
g71
NtRp2222
(dp2223
g74
(dp2224
sg83
g79
sg76
(lp2225
g69
(g90
g71
NtRp2226
(dp2227
g74
(dp2228
g94
g95
ssg83
g2222
sg76
(lp2229
S'vars'
p2230
asbag69
(g90
g71
NtRp2231
(dp2232
g74
(dp2233
g101
g102
ssg83
g2222
sg76
(lp2234
S':'
asbag69
(g90
g71
NtRp2235
(dp2236
g74
(dp2237
sg83
g2222
sg76
(lp2238
g69
(g70
g71
NtRp2239
(dp2240
g74
(dp2241
g82
I5
ssg83
g2235
sg76
(lp2242
g69
(g78
g71
NtRp2243
(dp2244
g74
(dp2245
g82
I4
ssg83
Nsg76
(lp2246
sbasbasbasbag69
(g85
g71
NtRp2247
(dp2248
g74
(dp2249
sg83
g79
sg76
(lp2250
g69
(g90
g71
NtRp2251
(dp2252
g74
(dp2253
g94
g95
ssg83
g2247
sg76
(lp2254
S'wsgi'
p2255
asbag69
(g90
g71
NtRp2256
(dp2257
g74
(dp2258
g101
g102
ssg83
g2247
sg76
(lp2259
S':'
asbag69
(g90
g71
NtRp2260
(dp2261
g74
(dp2262
sg83
g2247
sg76
(lp2263
g69
(g70
g71
NtRp2264
(dp2265
g74
(dp2266
g82
I5
ssg83
g2260
sg76
(lp2267
g69
(g78
g71
NtRp2268
(dp2269
g74
(dp2270
g82
I4
ssg83
Nsg76
(lp2271
g69
(g85
g71
NtRp2272
(dp2273
g74
(dp2274
sg83
g2268
sg76
(lp2275
g69
(g90
g71
NtRp2276
(dp2277
g74
(dp2278
g94
g95
ssg83
g2272
sg76
(lp2279
S'environ'
p2280
asbag69
(g90
g71
NtRp2281
(dp2282
g74
(dp2283
g101
g102
ssg83
g2272
sg76
(lp2284
S':'
asbag69
(g90
g71
NtRp2285
(dp2286
g74
(dp2287
sg83
g2272
sg76
(lp2288
g69
(g70
g71
NtRp2289
(dp2290
g74
(dp2291
g82
I4
ssg83
g2285
sg76
(lp2292
g69
(g78
g71
NtRp2293
(dp2294
g74
(dp2295
g82
I3
ssg83
Nsg76
(lp2296
g69
(g85
g71
NtRp2297
(dp2298
g74
(dp2299
sg83
g2293
sg76
(lp2300
g69
(g90
g71
NtRp2301
(dp2302
g74
(dp2303
g94
g95
ssg83
g2297
sg76
(lp2304
S'HTTP_ACCEPT'
p2305
asbag69
(g90
g71
NtRp2306
(dp2307
g74
(dp2308
g101
g102
ssg83
g2297
sg76
(lp2309
S':'
asbag69
(g90
g71
NtRp2310
(dp2311
g74
(dp2312
sg83
g2297
sg76
(lp2313
g69
(g70
g71
NtRp2314
(dp2315
g74
(dp2316
g82
I3
ssg83
g2310
sg76
(lp2317
g869
asbasbasbag69
(g85
g71
NtRp2318
(dp2319
g74
(dp2320
sg83
g2293
sg76
(lp2321
g69
(g90
g71
NtRp2322
(dp2323
g74
(dp2324
g94
g95
ssg83
g2318
sg76
(lp2325
S'HTTP_ACCEPT_ENCODING'
p2326
asbag69
(g90
g71
NtRp2327
(dp2328
g74
(dp2329
g101
g102
ssg83
g2318
sg76
(lp2330
S':'
asbag69
(g90
g71
NtRp2331
(dp2332
g74
(dp2333
sg83
g2318
sg76
(lp2334
g69
(g70
g71
NtRp2335
(dp2336
g74
(dp2337
g82
I3
ssg83
g2331
sg76
(lp2338
g891
asbasbasbag69
(g85
g71
NtRp2339
(dp2340
g74
(dp2341
sg83
g2293
sg76
(lp2342
g69
(g90
g71
NtRp2343
(dp2344
g74
(dp2345
g94
g95
ssg83
g2339
sg76
(lp2346
S'HTTP_ACCEPT_LANGUAGE'
p2347
asbag69
(g90
g71
NtRp2348
(dp2349
g74
(dp2350
g101
g102
ssg83
g2339
sg76
(lp2351
S':'
asbag69
(g90
g71
NtRp2352
(dp2353
g74
(dp2354
sg83
g2339
sg76
(lp2355
g69
(g70
g71
NtRp2356
(dp2357
g74
(dp2358
g82
I3
ssg83
g2352
sg76
(lp2359
g913
asbasbasbag69
(g85
g71
NtRp2360
(dp2361
g74
(dp2362
sg83
g2293
sg76
(lp2363
g69
(g90
g71
NtRp2364
(dp2365
g74
(dp2366
g94
g95
ssg83
g2360
sg76
(lp2367
S'HTTP_CONNECTION'
p2368
asbag69
(g90
g71
NtRp2369
(dp2370
g74
(dp2371
g101
g102
ssg83
g2360
sg76
(lp2372
S':'
asbag69
(g90
g71
NtRp2373
(dp2374
g74
(dp2375
sg83
g2360
sg76
(lp2376
g69
(g70
g71
NtRp2377
(dp2378
g74
(dp2379
g82
I3
ssg83
g2373
sg76
(lp2380
g935
asbasbasbag69
(g85
g71
NtRp2381
(dp2382
g74
(dp2383
sg83
g2293
sg76
(lp2384
g69
(g90
g71
NtRp2385
(dp2386
g74
(dp2387
g94
g95
ssg83
g2381
sg76
(lp2388
S'HTTP_COOKIE'
p2389
asbag69
(g90
g71
NtRp2390
(dp2391
g74
(dp2392
g101
g102
ssg83
g2381
sg76
(lp2393
S':'
asbag69
(g90
g71
NtRp2394
(dp2395
g74
(dp2396
sg83
g2381
sg76
(lp2397
g69
(g70
g71
NtRp2398
(dp2399
g74
(dp2400
g82
I3
ssg83
g2394
sg76
(lp2401
g957
asbasbasbag69
(g85
g71
NtRp2402
(dp2403
g74
(dp2404
sg83
g2293
sg76
(lp2405
g69
(g90
g71
NtRp2406
(dp2407
g74
(dp2408
g94
g95
ssg83
g2402
sg76
(lp2409
S'HTTP_HOST'
p2410
asbag69
(g90
g71
NtRp2411
(dp2412
g74
(dp2413
g101
g102
ssg83
g2402
sg76
(lp2414
S':'
asbag69
(g90
g71
NtRp2415
(dp2416
g74
(dp2417
sg83
g2402
sg76
(lp2418
g69
(g70
g71
NtRp2419
(dp2420
g74
(dp2421
g82
I3
ssg83
g2415
sg76
(lp2422
g979
asbasbasbag69
(g85
g71
NtRp2423
(dp2424
g74
(dp2425
sg83
g2293
sg76
(lp2426
g69
(g90
g71
NtRp2427
(dp2428
g74
(dp2429
g94
g95
ssg83
g2423
sg76
(lp2430
S'HTTP_REFERER'
p2431
asbag69
(g90
g71
NtRp2432
(dp2433
g74
(dp2434
g101
g102
ssg83
g2423
sg76
(lp2435
S':'
asbag69
(g90
g71
NtRp2436
(dp2437
g74
(dp2438
sg83
g2423
sg76
(lp2439
g69
(g70
g71
NtRp2440
(dp2441
g74
(dp2442
g82
I3
ssg83
g2436
sg76
(lp2443
g1001
asbasbasbag69
(g85
g71
NtRp2444
(dp2445
g74
(dp2446
sg83
g2293
sg76
(lp2447
g69
(g90
g71
NtRp2448
(dp2449
g74
(dp2450
g94
g95
ssg83
g2444
sg76
(lp2451
S'HTTP_USER_AGENT'
p2452
asbag69
(g90
g71
NtRp2453
(dp2454
g74
(dp2455
g101
g102
ssg83
g2444
sg76
(lp2456
S':'
asbag69
(g90
g71
NtRp2457
(dp2458
g74
(dp2459
sg83
g2444
sg76
(lp2460
g69
(g70
g71
NtRp2461
(dp2462
g74
(dp2463
g82
I3
ssg83
g2457
sg76
(lp2464
g1023
asbasbasbag69
(g85
g71
NtRp2465
(dp2466
g74
(dp2467
sg83
g2293
sg76
(lp2468
g69
(g90
g71
NtRp2469
(dp2470
g74
(dp2471
g94
g95
ssg83
g2465
sg76
(lp2472
S'PATH_INFO'
p2473
asbag69
(g90
g71
NtRp2474
(dp2475
g74
(dp2476
g101
g102
ssg83
g2465
sg76
(lp2477
S':'
asbag69
(g90
g71
NtRp2478
(dp2479
g74
(dp2480
sg83
g2465
sg76
(lp2481
g69
(g70
g71
NtRp2482
(dp2483
g74
(dp2484
g82
I3
ssg83
g2478
sg76
(lp2485
g1087
asbasbasbag69
(g85
g71
NtRp2486
(dp2487
g74
(dp2488
sg83
g2293
sg76
(lp2489
g69
(g90
g71
NtRp2490
(dp2491
g74
(dp2492
g94
g95
ssg83
g2486
sg76
(lp2493
S'QUERY_STRING'
p2494
asbag69
(g90
g71
NtRp2495
(dp2496
g74
(dp2497
g101
g102
ssg83
g2486
sg76
(lp2498
S':'
asbag69
(g90
g71
NtRp2499
(dp2500
g74
(dp2501
sg83
g2486
sg76
(lp2502
g69
(g70
g71
NtRp2503
(dp2504
g74
(dp2505
g82
I3
ssg83
g2499
sg76
(lp2506
S''
asbasbasbag69
(g85
g71
NtRp2507
(dp2508
g74
(dp2509
sg83
g2293
sg76
(lp2510
g69
(g90
g71
NtRp2511
(dp2512
g74
(dp2513
g94
g95
ssg83
g2507
sg76
(lp2514
S'REMOTE_ADDR'
p2515
asbag69
(g90
g71
NtRp2516
(dp2517
g74
(dp2518
g101
g102
ssg83
g2507
sg76
(lp2519
S':'
asbag69
(g90
g71
NtRp2520
(dp2521
g74
(dp2522
sg83
g2507
sg76
(lp2523
g69
(g70
g71
NtRp2524
(dp2525
g74
(dp2526
g82
I3
ssg83
g2520
sg76
(lp2527
g241
asbasbasbag69
(g85
g71
NtRp2528
(dp2529
g74
(dp2530
sg83
g2293
sg76
(lp2531
g69
(g90
g71
NtRp2532
(dp2533
g74
(dp2534
g94
g95
ssg83
g2528
sg76
(lp2535
S'REMOTE_PORT'
p2536
asbag69
(g90
g71
NtRp2537
(dp2538
g74
(dp2539
g101
g102
ssg83
g2528
sg76
(lp2540
S':'
asbag69
(g90
g71
NtRp2541
(dp2542
g74
(dp2543
sg83
g2528
sg76
(lp2544
g69
(g70
g71
NtRp2545
(dp2546
g74
(dp2547
g82
I3
ssg83
g2541
sg76
(lp2548
g1151
asbasbasbag69
(g85
g71
NtRp2549
(dp2550
g74
(dp2551
sg83
g2293
sg76
(lp2552
g69
(g90
g71
NtRp2553
(dp2554
g74
(dp2555
g94
g95
ssg83
g2549
sg76
(lp2556
S'REQUEST_METHOD'
p2557
asbag69
(g90
g71
NtRp2558
(dp2559
g74
(dp2560
g101
g102
ssg83
g2549
sg76
(lp2561
S':'
asbag69
(g90
g71
NtRp2562
(dp2563
g74
(dp2564
sg83
g2549
sg76
(lp2565
g69
(g70
g71
NtRp2566
(dp2567
g74
(dp2568
g82
I3
ssg83
g2562
sg76
(lp2569
g1173
asbasbasbag69
(g85
g71
NtRp2570
(dp2571
g74
(dp2572
sg83
g2293
sg76
(lp2573
g69
(g90
g71
NtRp2574
(dp2575
g74
(dp2576
g94
g95
ssg83
g2570
sg76
(lp2577
S'SCRIPT_NAME'
p2578
asbag69
(g90
g71
NtRp2579
(dp2580
g74
(dp2581
g101
g102
ssg83
g2570
sg76
(lp2582
S':'
asbag69
(g90
g71
NtRp2583
(dp2584
g74
(dp2585
sg83
g2570
sg76
(lp2586
g69
(g70
g71
NtRp2587
(dp2588
g74
(dp2589
g82
I3
ssg83
g2583
sg76
(lp2590
S''
asbasbasbag69
(g85
g71
NtRp2591
(dp2592
g74
(dp2593
sg83
g2293
sg76
(lp2594
g69
(g90
g71
NtRp2595
(dp2596
g74
(dp2597
g94
g95
ssg83
g2591
sg76
(lp2598
S'SERVER_NAME'
p2599
asbag69
(g90
g71
NtRp2600
(dp2601
g74
(dp2602
g101
g102
ssg83
g2591
sg76
(lp2603
S':'
asbag69
(g90
g71
NtRp2604
(dp2605
g74
(dp2606
sg83
g2591
sg76
(lp2607
g69
(g70
g71
NtRp2608
(dp2609
g74
(dp2610
g82
I3
ssg83
g2604
sg76
(lp2611
g1216
asbasbasbag69
(g85
g71
NtRp2612
(dp2613
g74
(dp2614
sg83
g2293
sg76
(lp2615
g69
(g90
g71
NtRp2616
(dp2617
g74
(dp2618
g94
g95
ssg83
g2612
sg76
(lp2619
S'SERVER_PORT'
p2620
asbag69
(g90
g71
NtRp2621
(dp2622
g74
(dp2623
g101
g102
ssg83
g2612
sg76
(lp2624
S':'
asbag69
(g90
g71
NtRp2625
(dp2626
g74
(dp2627
sg83
g2612
sg76
(lp2628
g69
(g70
g71
NtRp2629
(dp2630
g74
(dp2631
g82
I3
ssg83
g2625
sg76
(lp2632
g1238
asbasbasbag69
(g85
g71
NtRp2633
(dp2634
g74
(dp2635
sg83
g2293
sg76
(lp2636
g69
(g90
g71
NtRp2637
(dp2638
g74
(dp2639
g94
g95
ssg83
g2633
sg76
(lp2640
S'SERVER_PROTOCOL'
p2641
asbag69
(g90
g71
NtRp2642
(dp2643
g74
(dp2644
g101
g102
ssg83
g2633
sg76
(lp2645
S':'
asbag69
(g90
g71
NtRp2646
(dp2647
g74
(dp2648
sg83
g2633
sg76
(lp2649
g69
(g70
g71
NtRp2650
(dp2651
g74
(dp2652
g82
I3
ssg83
g2646
sg76
(lp2653
g1260
asbasbasbag69
(g85
g71
NtRp2654
(dp2655
g74
(dp2656
sg83
g2293
sg76
(lp2657
g69
(g90
g71
NtRp2658
(dp2659
g74
(dp2660
g94
g95
ssg83
g2654
sg76
(lp2661
S'SERVER_SOFTWARE'
p2662
asbag69
(g90
g71
NtRp2663
(dp2664
g74
(dp2665
g101
g102
ssg83
g2654
sg76
(lp2666
S':'
asbag69
(g90
g71
NtRp2667
(dp2668
g74
(dp2669
sg83
g2654
sg76
(lp2670
g69
(g70
g71
NtRp2671
(dp2672
g74
(dp2673
g82
I3
ssg83
g2667
sg76
(lp2674
g1282
asbasbasbag69
(g85
g71
NtRp2675
(dp2676
g74
(dp2677
sg83
g2293
sg76
(lp2678
g69
(g90
g71
NtRp2679
(dp2680
g74
(dp2681
g94
g95
ssg83
g2675
sg76
(lp2682
S'wsgi.errors'
p2683
asbag69
(g90
g71
NtRp2684
(dp2685
g74
(dp2686
g101
g102
ssg83
g2675
sg76
(lp2687
S':'
asbag69
(g90
g71
NtRp2688
(dp2689
g74
(dp2690
sg83
g2675
sg76
(lp2691
g69
(g70
g71
NtRp2692
(dp2693
g74
(dp2694
g82
I3
ssg83
g2688
sg76
(lp2695
S"<open file '<stderr>', mode 'w' at 0x0000000001D361E0>"
p2696
asbasbasbag69
(g85
g71
NtRp2697
(dp2698
g74
(dp2699
sg83
g2293
sg76
(lp2700
g69
(g90
g71
NtRp2701
(dp2702
g74
(dp2703
g94
g95
ssg83
g2697
sg76
(lp2704
S'wsgi.file_wrapper'
p2705
asbag69
(g90
g71
NtRp2706
(dp2707
g74
(dp2708
g101
g102
ssg83
g2697
sg76
(lp2709
S':'
asbag69
(g90
g71
NtRp2710
(dp2711
g74
(dp2712
sg83
g2697
sg76
(lp2713
g69
(g70
g71
NtRp2714
(dp2715
g74
(dp2716
g82
I3
ssg83
g2710
sg76
(lp2717
S'<class wsgiref.util.FileWrapper at 0x000000000380EC48>'
p2718
asbasbasbag69
(g85
g71
NtRp2719
(dp2720
g74
(dp2721
sg83
g2293
sg76
(lp2722
g69
(g90
g71
NtRp2723
(dp2724
g74
(dp2725
g94
g95
ssg83
g2719
sg76
(lp2726
S'wsgi.input'
p2727
asbag69
(g90
g71
NtRp2728
(dp2729
g74
(dp2730
g101
g102
ssg83
g2719
sg76
(lp2731
S':'
asbag69
(g90
g71
NtRp2732
(dp2733
g74
(dp2734
sg83
g2719
sg76
(lp2735
g69
(g70
g71
NtRp2736
(dp2737
g74
(dp2738
g82
I3
ssg83
g2732
sg76
(lp2739
S'<cStringIO.StringO object at 0x0000000009C22A78>'
p2740
asbasbasbag69
(g85
g71
NtRp2741
(dp2742
g74
(dp2743
sg83
g2293
sg76
(lp2744
g69
(g90
g71
NtRp2745
(dp2746
g74
(dp2747
g94
g95
ssg83
g2741
sg76
(lp2748
S'wsgi.multiprocess'
p2749
asbag69
(g90
g71
NtRp2750
(dp2751
g74
(dp2752
g101
g102
ssg83
g2741
sg76
(lp2753
S':'
asbag69
(g90
g71
NtRp2754
(dp2755
g74
(dp2756
sg83
g2741
sg76
(lp2757
g69
(g70
g71
NtRp2758
(dp2759
g74
(dp2760
g82
I3
ssg83
g2754
sg76
(lp2761
g112
asbasbasbag69
(g85
g71
NtRp2762
(dp2763
g74
(dp2764
sg83
g2293
sg76
(lp2765
g69
(g90
g71
NtRp2766
(dp2767
g74
(dp2768
g94
g95
ssg83
g2762
sg76
(lp2769
S'wsgi.multithread'
p2770
asbag69
(g90
g71
NtRp2771
(dp2772
g74
(dp2773
g101
g102
ssg83
g2762
sg76
(lp2774
S':'
asbag69
(g90
g71
NtRp2775
(dp2776
g74
(dp2777
sg83
g2762
sg76
(lp2778
g69
(g70
g71
NtRp2779
(dp2780
g74
(dp2781
g82
I3
ssg83
g2775
sg76
(lp2782
g1522
asbasbasbag69
(g85
g71
NtRp2783
(dp2784
g74
(dp2785
sg83
g2293
sg76
(lp2786
g69
(g90
g71
NtRp2787
(dp2788
g74
(dp2789
g94
g95
ssg83
g2783
sg76
(lp2790
S'wsgi.run_once'
p2791
asbag69
(g90
g71
NtRp2792
(dp2793
g74
(dp2794
g101
g102
ssg83
g2783
sg76
(lp2795
S':'
asbag69
(g90
g71
NtRp2796
(dp2797
g74
(dp2798
sg83
g2783
sg76
(lp2799
g69
(g70
g71
NtRp2800
(dp2801
g74
(dp2802
g82
I3
ssg83
g2796
sg76
(lp2803
g112
asbasbasbag69
(g85
g71
NtRp2804
(dp2805
g74
(dp2806
sg83
g2293
sg76
(lp2807
g69
(g90
g71
NtRp2808
(dp2809
g74
(dp2810
g94
g95
ssg83
g2804
sg76
(lp2811
S'wsgi.url_scheme'
p2812
asbag69
(g90
g71
NtRp2813
(dp2814
g74
(dp2815
g101
g102
ssg83
g2804
sg76
(lp2816
S':'
asbag69
(g90
g71
NtRp2817
(dp2818
g74
(dp2819
sg83
g2804
sg76
(lp2820
g69
(g70
g71
NtRp2821
(dp2822
g74
(dp2823
g82
I3
ssg83
g2817
sg76
(lp2824
g1565
asbasbasbag69
(g85
g71
NtRp2825
(dp2826
g74
(dp2827
sg83
g2293
sg76
(lp2828
g69
(g90
g71
NtRp2829
(dp2830
g74
(dp2831
g94
g95
ssg83
g2825
sg76
(lp2832
S'wsgi.version'
p2833
asbag69
(g90
g71
NtRp2834
(dp2835
g74
(dp2836
g101
g102
ssg83
g2825
sg76
(lp2837
S':'
asbag69
(g90
g71
NtRp2838
(dp2839
g74
(dp2840
sg83
g2825
sg76
(lp2841
g69
(g70
g71
NtRp2842
(dp2843
g74
(dp2844
g82
I3
ssg83
g2838
sg76
(lp2845
S'1'
asbasbasbasbasbasbasbasbasbasbasbasbasbsS'frames'
p2846
(lp2847
(dp2848
S'file'
p2849
S'c:\\Users\\Jorge\\Downloads\\web2py_src\\web2py\\gluon\\restricted.py'
p2850
sS'dump'
p2851
(dp2852
S'code'
p2853
S"'# -*- coding: utf-8 -*-\\nif 0:\\n    from gluon.glo...rm=form)\\nresponse._vars=response._caller(prueba)\\n'"
p2854
sS'layer'
p2855
S"r'c:\\Users\\Jorge\\Downloads\\web2py_src\\web2py\\applications\\init\\controllers/default.py'"
p2856
sS'global compile2'
p2857
S'<function compile2>'
p2858
sS'ccode'
p2859
S'undefined'
p2860
ssS'lnum'
p2861
I204
sS'lines'
p2862
(dp2863
I199
S"    environment['__name__'] = '__restricted__'"
p2864
sI200
S'    try:'
p2865
sI201
S'        if type(code) == types.CodeType:'
p2866
sI202
S'            ccode = code'
p2867
sI203
S'        else:'
p2868
sI204
S'            ccode = compile2(code,layer)'
p2869
sI205
S'        exec ccode in environment'
p2870
sI206
S'    except HTTP:'
p2871
sI207
S'        raise'
p2872
sI208
S'    except RestrictedError:'
p2873
ssS'call'
p2874
S"(code='# -*- coding: utf-8 -*-\\nif 0:\\n    from gluon.glo...rm=form)\\nresponse._vars=response._caller(prueba)\\n', environment={'A': <class 'gluon.html.A'>, 'Auth': <class 'gluon.tools.Auth'>, 'B': <class 'gluon.html.B'>, 'BEAUTIFY': <class 'gluon.html.BEAUTIFY'>, 'BODY': <class 'gluon.html.BODY'>, 'BR': <class 'gluon.html.BR'>, 'BUTTON': <class 'gluon.html.BUTTON'>, 'CAT': <class 'gluon.html.CAT'>, 'CENTER': <class 'gluon.html.CENTER'>, 'CLEANUP': <class 'gluon.validators.CLEANUP'>, ...}, layer=r'c:\\Users\\Jorge\\Downloads\\web2py_src\\web2py\\applications\\init\\controllers/default.py')"
p2875
sS'func'
p2876
S'restricted'
p2877
sa(dp2878
g2849
S'c:\\Users\\Jorge\\Downloads\\web2py_src\\web2py\\gluon\\restricted.py'
p2879
sg2851
(dp2880
S'builtincompile'
p2881
S'<built-in function compile>'
p2882
sS'code'
p2883
S"'# -*- coding: utf-8 -*-\\nif 0:\\n    from gluon.glo...rm=form)\\nresponse._vars=response._caller(prueba)\\n'"
p2884
sS'code.rstrip'
p2885
S'<built-in method rstrip of str object>'
p2886
sS').replace'
p2887
g2860
sS'layer'
p2888
S"r'c:\\Users\\Jorge\\Downloads\\web2py_src\\web2py\\applications\\init\\controllers/default.py'"
p2889
ssg2861
I189
sg2862
(dp2890
I192
S'    """'
p2891
sI193
S'    runs code in environment and returns the output. if an exception occurs'
p2892
sI184
S''
sI185
S'def compile2(code,layer):'
p2893
sI186
S'    """'
p2894
sI187
S"    The +'\\n' is necessary else compile fails when code ends in a comment."
p2895
sI188
S'    """'
p2896
sI189
S"    return compile(code.rstrip().replace('\\r\\n','\\n')+'\\n', layer, 'exec')"
p2897
sI190
S''
sI191
S"def restricted(code, environment=None, layer='Unknown'):"
p2898
ssg2874
S"(code='# -*- coding: utf-8 -*-\\nif 0:\\n    from gluon.glo...rm=form)\\nresponse._vars=response._caller(prueba)\\n', layer=r'c:\\Users\\Jorge\\Downloads\\web2py_src\\web2py\\applications\\init\\controllers/default.py')"
p2899
sg2876
S'compile2'
p2900
sasS'pyver'
p2901
S'Python 2.7.2: C:\\Python27\\python.exe'
p2902
sS'session'
p2903
g69
(g70
g71
NtRp2904
(dp2905
g74
(dp2906
sg76
(lp2907
g69
(g78
g71
NtRp2908
(dp2909
g74
(dp2910
g82
I5
ssg83
Nsg76
(lp2911
g69
(g85
g71
NtRp2912
(dp2913
g74
(dp2914
sg83
g2908
sg76
(lp2915
g69
(g90
g71
NtRp2916
(dp2917
g74
(dp2918
g94
g95
ssg83
g2912
sg76
(lp2919
S'auth'
p2920
asbag69
(g90
g71
NtRp2921
(dp2922
g74
(dp2923
g101
g102
ssg83
g2912
sg76
(lp2924
S':'
asbag69
(g90
g71
NtRp2925
(dp2926
g74
(dp2927
sg83
g2912
sg76
(lp2928
g69
(g70
g71
NtRp2929
(dp2930
g74
(dp2931
g82
I5
ssg83
g2925
sg76
(lp2932
g69
(g78
g71
NtRp2933
(dp2934
g74
(dp2935
g82
I4
ssg83
Nsg76
(lp2936
g69
(g85
g71
NtRp2937
(dp2938
g74
(dp2939
sg83
g2933
sg76
(lp2940
g69
(g90
g71
NtRp2941
(dp2942
g74
(dp2943
g94
g95
ssg83
g2937
sg76
(lp2944
S'expiration'
p2945
asbag69
(g90
g71
NtRp2946
(dp2947
g74
(dp2948
g101
g102
ssg83
g2937
sg76
(lp2949
S':'
asbag69
(g90
g71
NtRp2950
(dp2951
g74
(dp2952
sg83
g2937
sg76
(lp2953
g69
(g70
g71
NtRp2954
(dp2955
g74
(dp2956
g82
I4
ssg83
g2950
sg76
(lp2957
S'3600'
p2958
asbasbasbag69
(g85
g71
NtRp2959
(dp2960
g74
(dp2961
sg83
g2933
sg76
(lp2962
g69
(g90
g71
NtRp2963
(dp2964
g74
(dp2965
g94
g95
ssg83
g2959
sg76
(lp2966
S'hmac_key'
p2967
asbag69
(g90
g71
NtRp2968
(dp2969
g74
(dp2970
g101
g102
ssg83
g2959
sg76
(lp2971
S':'
asbag69
(g90
g71
NtRp2972
(dp2973
g74
(dp2974
sg83
g2959
sg76
(lp2975
g69
(g70
g71
NtRp2976
(dp2977
g74
(dp2978
g82
I4
ssg83
g2972
sg76
(lp2979
S'df6450f8-dea7-4055-8229-826d84195553'
p2980
asbasbasbag69
(g85
g71
NtRp2981
(dp2982
g74
(dp2983
sg83
g2933
sg76
(lp2984
g69
(g90
g71
NtRp2985
(dp2986
g74
(dp2987
g94
g95
ssg83
g2981
sg76
(lp2988
S'last_visit'
p2989
asbag69
(g90
g71
NtRp2990
(dp2991
g74
(dp2992
g101
g102
ssg83
g2981
sg76
(lp2993
S':'
asbag69
(g90
g71
NtRp2994
(dp2995
g74
(dp2996
sg83
g2981
sg76
(lp2997
g69
(g70
g71
NtRp2998
(dp2999
g74
(dp3000
g82
I4
ssg83
g2994
sg76
(lp3001
S'datetime.datetime(2012, 4, 30, 22, 34, 33, 331000)'
p3002
asbasbasbag69
(g85
g71
NtRp3003
(dp3004
g74
(dp3005
sg83
g2933
sg76
(lp3006
g69
(g90
g71
NtRp3007
(dp3008
g74
(dp3009
g94
g95
ssg83
g3003
sg76
(lp3010
S'remember'
p3011
asbag69
(g90
g71
NtRp3012
(dp3013
g74
(dp3014
g101
g102
ssg83
g3003
sg76
(lp3015
S':'
asbag69
(g90
g71
NtRp3016
(dp3017
g74
(dp3018
sg83
g3003
sg76
(lp3019
g69
(g70
g71
NtRp3020
(dp3021
g74
(dp3022
g82
I4
ssg83
g3016
sg76
(lp3023
g112
asbasbasbag69
(g85
g71
NtRp3024
(dp3025
g74
(dp3026
sg83
g2933
sg76
(lp3027
g69
(g90
g71
NtRp3028
(dp3029
g74
(dp3030
g94
g95
ssg83
g3024
sg76
(lp3031
S'user'
p3032
asbag69
(g90
g71
NtRp3033
(dp3034
g74
(dp3035
g101
g102
ssg83
g3024
sg76
(lp3036
S':'
asbag69
(g90
g71
NtRp3037
(dp3038
g74
(dp3039
sg83
g3024
sg76
(lp3040
g69
(g70
g71
NtRp3041
(dp3042
g74
(dp3043
g82
I4
ssg83
g3037
sg76
(lp3044
g69
(g78
g71
NtRp3045
(dp3046
g74
(dp3047
g82
I3
ssg83
Nsg76
(lp3048
g69
(g85
g71
NtRp3049
(dp3050
g74
(dp3051
sg83
g3045
sg76
(lp3052
g69
(g90
g71
NtRp3053
(dp3054
g74
(dp3055
g94
g95
ssg83
g3049
sg76
(lp3056
S'created_on'
p3057
asbag69
(g90
g71
NtRp3058
(dp3059
g74
(dp3060
g101
g102
ssg83
g3049
sg76
(lp3061
S':'
asbag69
(g90
g71
NtRp3062
(dp3063
g74
(dp3064
sg83
g3049
sg76
(lp3065
g69
(g70
g71
NtRp3066
(dp3067
g74
(dp3068
g82
I3
ssg83
g3062
sg76
(lp3069
S'datetime.datetime(2012, 4, 14, 20, 20, 15)'
p3070
asbasbasbag69
(g85
g71
NtRp3071
(dp3072
g74
(dp3073
sg83
g3045
sg76
(lp3074
g69
(g90
g71
NtRp3075
(dp3076
g74
(dp3077
g94
g95
ssg83
g3071
sg76
(lp3078
S'email'
p3079
asbag69
(g90
g71
NtRp3080
(dp3081
g74
(dp3082
g101
g102
ssg83
g3071
sg76
(lp3083
S':'
asbag69
(g90
g71
NtRp3084
(dp3085
g74
(dp3086
sg83
g3071
sg76
(lp3087
g69
(g70
g71
NtRp3088
(dp3089
g74
(dp3090
g82
I3
ssg83
g3084
sg76
(lp3091
S'maximiliano.alcaraz@aeg.com.ar'
p3092
asbasbasbag69
(g85
g71
NtRp3093
(dp3094
g74
(dp3095
sg83
g3045
sg76
(lp3096
g69
(g90
g71
NtRp3097
(dp3098
g74
(dp3099
g94
g95
ssg83
g3093
sg76
(lp3100
S'first_name'
p3101
asbag69
(g90
g71
NtRp3102
(dp3103
g74
(dp3104
g101
g102
ssg83
g3093
sg76
(lp3105
S':'
asbag69
(g90
g71
NtRp3106
(dp3107
g74
(dp3108
sg83
g3093
sg76
(lp3109
g69
(g70
g71
NtRp3110
(dp3111
g74
(dp3112
g82
I3
ssg83
g3106
sg76
(lp3113
S'Maximiliano'
p3114
asbasbasbag69
(g85
g71
NtRp3115
(dp3116
g74
(dp3117
sg83
g3045
sg76
(lp3118
g69
(g90
g71
NtRp3119
(dp3120
g74
(dp3121
g94
g95
ssg83
g3115
sg76
(lp3122
S'id'
p3123
asbag69
(g90
g71
NtRp3124
(dp3125
g74
(dp3126
g101
g102
ssg83
g3115
sg76
(lp3127
S':'
asbag69
(g90
g71
NtRp3128
(dp3129
g74
(dp3130
sg83
g3115
sg76
(lp3131
g69
(g70
g71
NtRp3132
(dp3133
g74
(dp3134
g82
I3
ssg83
g3128
sg76
(lp3135
S'15'
p3136
asbasbasbag69
(g85
g71
NtRp3137
(dp3138
g74
(dp3139
sg83
g3045
sg76
(lp3140
g69
(g90
g71
NtRp3141
(dp3142
g74
(dp3143
g94
g95
ssg83
g3137
sg76
(lp3144
S'last_name'
p3145
asbag69
(g90
g71
NtRp3146
(dp3147
g74
(dp3148
g101
g102
ssg83
g3137
sg76
(lp3149
S':'
asbag69
(g90
g71
NtRp3150
(dp3151
g74
(dp3152
sg83
g3137
sg76
(lp3153
g69
(g70
g71
NtRp3154
(dp3155
g74
(dp3156
g82
I3
ssg83
g3150
sg76
(lp3157
S'Alcaraz'
p3158
asbasbasbag69
(g85
g71
NtRp3159
(dp3160
g74
(dp3161
sg83
g3045
sg76
(lp3162
g69
(g90
g71
NtRp3163
(dp3164
g74
(dp3165
g94
g95
ssg83
g3159
sg76
(lp3166
S'modified_on'
p3167
asbag69
(g90
g71
NtRp3168
(dp3169
g74
(dp3170
g101
g102
ssg83
g3159
sg76
(lp3171
S':'
asbag69
(g90
g71
NtRp3172
(dp3173
g74
(dp3174
sg83
g3159
sg76
(lp3175
g69
(g70
g71
NtRp3176
(dp3177
g74
(dp3178
g82
I3
ssg83
g3172
sg76
(lp3179
S'datetime.datetime(2012, 4, 14, 20, 20, 15)'
p3180
asbasbasbag69
(g85
g71
NtRp3181
(dp3182
g74
(dp3183
sg83
g3045
sg76
(lp3184
g69
(g90
g71
NtRp3185
(dp3186
g74
(dp3187
g94
g95
ssg83
g3181
sg76
(lp3188
S'password'
p3189
asbag69
(g90
g71
NtRp3190
(dp3191
g74
(dp3192
g101
g102
ssg83
g3181
sg76
(lp3193
S':'
asbag69
(g90
g71
NtRp3194
(dp3195
g74
(dp3196
sg83
g3181
sg76
(lp3197
g69
(g70
g71
NtRp3198
(dp3199
g74
(dp3200
g82
I3
ssg83
g3194
sg76
(lp3201
S'3b00954a2acd03e4a32d91f4bdebb4b7'
p3202
asbasbasbag69
(g85
g71
NtRp3203
(dp3204
g74
(dp3205
sg83
g3045
sg76
(lp3206
g69
(g90
g71
NtRp3207
(dp3208
g74
(dp3209
g94
g95
ssg83
g3203
sg76
(lp3210
S'registration_id'
p3211
asbag69
(g90
g71
NtRp3212
(dp3213
g74
(dp3214
g101
g102
ssg83
g3203
sg76
(lp3215
S':'
asbag69
(g90
g71
NtRp3216
(dp3217
g74
(dp3218
sg83
g3203
sg76
(lp3219
g69
(g70
g71
NtRp3220
(dp3221
g74
(dp3222
g82
I3
ssg83
g3216
sg76
(lp3223
S''
asbasbasbag69
(g85
g71
NtRp3224
(dp3225
g74
(dp3226
sg83
g3045
sg76
(lp3227
g69
(g90
g71
NtRp3228
(dp3229
g74
(dp3230
g94
g95
ssg83
g3224
sg76
(lp3231
S'registration_key'
p3232
asbag69
(g90
g71
NtRp3233
(dp3234
g74
(dp3235
g101
g102
ssg83
g3224
sg76
(lp3236
S':'
asbag69
(g90
g71
NtRp3237
(dp3238
g74
(dp3239
sg83
g3224
sg76
(lp3240
g69
(g70
g71
NtRp3241
(dp3242
g74
(dp3243
g82
I3
ssg83
g3237
sg76
(lp3244
S''
asbasbasbag69
(g85
g71
NtRp3245
(dp3246
g74
(dp3247
sg83
g3045
sg76
(lp3248
g69
(g90
g71
NtRp3249
(dp3250
g74
(dp3251
g94
g95
ssg83
g3245
sg76
(lp3252
S'reset_password_key'
p3253
asbag69
(g90
g71
NtRp3254
(dp3255
g74
(dp3256
g101
g102
ssg83
g3245
sg76
(lp3257
S':'
asbag69
(g90
g71
NtRp3258
(dp3259
g74
(dp3260
sg83
g3245
sg76
(lp3261
g69
(g70
g71
NtRp3262
(dp3263
g74
(dp3264
g82
I3
ssg83
g3258
sg76
(lp3265
S''
asbasbasbag69
(g85
g71
NtRp3266
(dp3267
g74
(dp3268
sg83
g3045
sg76
(lp3269
g69
(g90
g71
NtRp3270
(dp3271
g74
(dp3272
g94
g95
ssg83
g3266
sg76
(lp3273
S'username'
p3274
asbag69
(g90
g71
NtRp3275
(dp3276
g74
(dp3277
g101
g102
ssg83
g3266
sg76
(lp3278
S':'
asbag69
(g90
g71
NtRp3279
(dp3280
g74
(dp3281
sg83
g3266
sg76
(lp3282
g69
(g70
g71
NtRp3283
(dp3284
g74
(dp3285
g82
I3
ssg83
g3279
sg76
(lp3286
S'maxi'
p3287
asbasbasbasbasbasbasbag69
(g85
g71
NtRp3288
(dp3289
g74
(dp3290
sg83
g2933
sg76
(lp3291
g69
(g90
g71
NtRp3292
(dp3293
g74
(dp3294
g94
g95
ssg83
g3288
sg76
(lp3295
S'user_groups'
p3296
asbag69
(g90
g71
NtRp3297
(dp3298
g74
(dp3299
g101
g102
ssg83
g3288
sg76
(lp3300
S':'
asbag69
(g90
g71
NtRp3301
(dp3302
g74
(dp3303
sg83
g3288
sg76
(lp3304
g69
(g70
g71
NtRp3305
(dp3306
g74
(dp3307
g82
I4
ssg83
g3301
sg76
(lp3308
g69
(g78
g71
NtRp3309
(dp3310
g74
(dp3311
g82
I3
ssg83
Nsg76
(lp3312
g69
(g85
g71
NtRp3313
(dp3314
g74
(dp3315
sg83
g3309
sg76
(lp3316
g69
(g90
g71
NtRp3317
(dp3318
g74
(dp3319
g94
g95
ssg83
g3313
sg76
(lp3320
S'5'
asbag69
(g90
g71
NtRp3321
(dp3322
g74
(dp3323
g101
g102
ssg83
g3313
sg76
(lp3324
S':'
asbag69
(g90
g71
NtRp3325
(dp3326
g74
(dp3327
sg83
g3313
sg76
(lp3328
g69
(g70
g71
NtRp3329
(dp3330
g74
(dp3331
g82
I3
ssg83
g3325
sg76
(lp3332
S'Admin'
p3333
asbasbasbasbasbasbasbasbasbasbasbasbasbsS'etype'
p3334
S"<type 'exceptions.SyntaxError'>"
p3335
sS'date'
p3336
S'Mon Apr 30 22:35:56 2012'
p3337
sS'response'
p3338
g69
(g70
g71
NtRp3339
(dp3340
g74
(dp3341
sg76
(lp3342
g69
(g78
g71
NtRp3343
(dp3344
g74
(dp3345
g82
I5
ssg83
Nsg76
(lp3346
g69
(g85
g71
NtRp3347
(dp3348
g74
(dp3349
sg83
g3343
sg76
(lp3350
g69
(g90
g71
NtRp3351
(dp3352
g74
(dp3353
g94
g95
ssg83
g3347
sg76
(lp3354
g206
asbag69
(g90
g71
NtRp3355
(dp3356
g74
(dp3357
g101
g102
ssg83
g3347
sg76
(lp3358
S':'
asbag69
(g90
g71
NtRp3359
(dp3360
g74
(dp3361
sg83
g3347
sg76
(lp3362
g69
(g70
g71
NtRp3363
(dp3364
g74
(dp3365
g82
I5
ssg83
g3359
sg76
(lp3366
S'<cStringIO.StringO object at 0x0000000009C228F0>'
p3367
asbasbasbag69
(g85
g71
NtRp3368
(dp3369
g74
(dp3370
sg83
g3343
sg76
(lp3371
g69
(g90
g71
NtRp3372
(dp3373
g74
(dp3374
g94
g95
ssg83
g3368
sg76
(lp3375
g272
asbag69
(g90
g71
NtRp3376
(dp3377
g74
(dp3378
g101
g102
ssg83
g3368
sg76
(lp3379
S':'
asbag69
(g90
g71
NtRp3380
(dp3381
g74
(dp3382
sg83
g3368
sg76
(lp3383
g69
(g70
g71
NtRp3384
(dp3385
g74
(dp3386
g82
I5
ssg83
g3380
sg76
(lp3387
g69
(g78
g71
NtRp3388
(dp3389
g74
(dp3390
g82
I4
ssg83
Nsg76
(lp3391
g69
(g85
g71
NtRp3392
(dp3393
g74
(dp3394
sg83
g3388
sg76
(lp3395
g69
(g90
g71
NtRp3396
(dp3397
g74
(dp3398
g94
g95
ssg83
g3392
sg76
(lp3399
S'session_id_init'
p3400
asbag69
(g90
g71
NtRp3401
(dp3402
g74
(dp3403
g101
g102
ssg83
g3392
sg76
(lp3404
S':'
asbag69
(g90
g71
NtRp3405
(dp3406
g74
(dp3407
sg83
g3392
sg76
(lp3408
g69
(g70
g71
NtRp3409
(dp3410
g74
(dp3411
g82
I4
ssg83
g3405
sg76
(lp3412
g69
(g78
g71
NtRp3413
(dp3414
g74
(dp3415
g82
I3
ssg83
Nsg76
(lp3416
g69
(g85
g71
NtRp3417
(dp3418
g74
(dp3419
sg83
g3413
sg76
(lp3420
g69
(g90
g71
NtRp3421
(dp3422
g74
(dp3423
g94
g95
ssg83
g3417
sg76
(lp3424
g322
asbag69
(g90
g71
NtRp3425
(dp3426
g74
(dp3427
g101
g102
ssg83
g3417
sg76
(lp3428
S':'
asbag69
(g90
g71
NtRp3429
(dp3430
g74
(dp3431
sg83
g3417
sg76
(lp3432
g69
(g70
g71
NtRp3433
(dp3434
g74
(dp3435
g82
I3
ssg83
g3429
sg76
(lp3436
S''
asbasbasbag69
(g85
g71
NtRp3437
(dp3438
g74
(dp3439
sg83
g3413
sg76
(lp3440
g69
(g90
g71
NtRp3441
(dp3442
g74
(dp3443
g94
g95
ssg83
g3437
sg76
(lp3444
g343
asbag69
(g90
g71
NtRp3445
(dp3446
g74
(dp3447
g101
g102
ssg83
g3437
sg76
(lp3448
S':'
asbag69
(g90
g71
NtRp3449
(dp3450
g74
(dp3451
sg83
g3437
sg76
(lp3452
g69
(g70
g71
NtRp3453
(dp3454
g74
(dp3455
g82
I3
ssg83
g3449
sg76
(lp3456
S''
asbasbasbag69
(g85
g71
NtRp3457
(dp3458
g74
(dp3459
sg83
g3413
sg76
(lp3460
g69
(g90
g71
NtRp3461
(dp3462
g74
(dp3463
g94
g95
ssg83
g3457
sg76
(lp3464
g364
asbag69
(g90
g71
NtRp3465
(dp3466
g74
(dp3467
g101
g102
ssg83
g3457
sg76
(lp3468
S':'
asbag69
(g90
g71
NtRp3469
(dp3470
g74
(dp3471
sg83
g3457
sg76
(lp3472
g69
(g70
g71
NtRp3473
(dp3474
g74
(dp3475
g82
I3
ssg83
g3469
sg76
(lp3476
S''
asbasbasbag69
(g85
g71
NtRp3477
(dp3478
g74
(dp3479
sg83
g3413
sg76
(lp3480
g69
(g90
g71
NtRp3481
(dp3482
g74
(dp3483
g94
g95
ssg83
g3477
sg76
(lp3484
g385
asbag69
(g90
g71
NtRp3485
(dp3486
g74
(dp3487
g101
g102
ssg83
g3477
sg76
(lp3488
S':'
asbag69
(g90
g71
NtRp3489
(dp3490
g74
(dp3491
sg83
g3477
sg76
(lp3492
g69
(g70
g71
NtRp3493
(dp3494
g74
(dp3495
g82
I3
ssg83
g3489
sg76
(lp3496
S''
asbasbasbag69
(g85
g71
NtRp3497
(dp3498
g74
(dp3499
sg83
g3413
sg76
(lp3500
g69
(g90
g71
NtRp3501
(dp3502
g74
(dp3503
g94
g95
ssg83
g3497
sg76
(lp3504
g406
asbag69
(g90
g71
NtRp3505
(dp3506
g74
(dp3507
g101
g102
ssg83
g3497
sg76
(lp3508
S':'
asbag69
(g90
g71
NtRp3509
(dp3510
g74
(dp3511
sg83
g3497
sg76
(lp3512
g69
(g70
g71
NtRp3513
(dp3514
g74
(dp3515
g82
I3
ssg83
g3509
sg76
(lp3516
S''
asbasbasbag69
(g85
g71
NtRp3517
(dp3518
g74
(dp3519
sg83
g3413
sg76
(lp3520
g69
(g90
g71
NtRp3521
(dp3522
g74
(dp3523
g94
g95
ssg83
g3517
sg76
(lp3524
g427
asbag69
(g90
g71
NtRp3525
(dp3526
g74
(dp3527
g101
g102
ssg83
g3517
sg76
(lp3528
S':'
asbag69
(g90
g71
NtRp3529
(dp3530
g74
(dp3531
sg83
g3517
sg76
(lp3532
g69
(g70
g71
NtRp3533
(dp3534
g74
(dp3535
g82
I3
ssg83
g3529
sg76
(lp3536
S'/'
asbasbasbag69
(g85
g71
NtRp3537
(dp3538
g74
(dp3539
sg83
g3413
sg76
(lp3540
g69
(g90
g71
NtRp3541
(dp3542
g74
(dp3543
g94
g95
ssg83
g3537
sg76
(lp3544
g448
asbag69
(g90
g71
NtRp3545
(dp3546
g74
(dp3547
g101
g102
ssg83
g3537
sg76
(lp3548
S':'
asbag69
(g90
g71
NtRp3549
(dp3550
g74
(dp3551
sg83
g3537
sg76
(lp3552
g69
(g70
g71
NtRp3553
(dp3554
g74
(dp3555
g82
I3
ssg83
g3549
sg76
(lp3556
S''
asbasbasbag69
(g85
g71
NtRp3557
(dp3558
g74
(dp3559
sg83
g3413
sg76
(lp3560
g69
(g90
g71
NtRp3561
(dp3562
g74
(dp3563
g94
g95
ssg83
g3557
sg76
(lp3564
g469
asbag69
(g90
g71
NtRp3565
(dp3566
g74
(dp3567
g101
g102
ssg83
g3557
sg76
(lp3568
S':'
asbag69
(g90
g71
NtRp3569
(dp3570
g74
(dp3571
sg83
g3557
sg76
(lp3572
g69
(g70
g71
NtRp3573
(dp3574
g74
(dp3575
g82
I3
ssg83
g3569
sg76
(lp3576
S''
asbasbasbasbasbasbasbasbasbasbasbag69
(g85
g71
NtRp3577
(dp3578
g74
(dp3579
sg83
g3343
sg76
(lp3580
g69
(g90
g71
NtRp3581
(dp3582
g74
(dp3583
g94
g95
ssg83
g3577
sg76
(lp3584
S'delimiters'
p3585
asbag69
(g90
g71
NtRp3586
(dp3587
g74
(dp3588
g101
g102
ssg83
g3577
sg76
(lp3589
S':'
asbag69
(g90
g71
NtRp3590
(dp3591
g74
(dp3592
sg83
g3577
sg76
(lp3593
g69
(g70
g71
NtRp3594
(dp3595
g74
(dp3596
g82
I5
ssg83
g3590
sg76
(lp3597
g69
(g78
g71
NtRp3598
(dp3599
g74
(dp3600
g82
I4
ssg83
Nsg76
(lp3601
g69
(g85
g71
NtRp3602
(dp3603
g74
(dp3604
sg83
g3598
sg76
(lp3605
g69
(g90
g71
NtRp3606
(dp3607
g74
(dp3608
sg83
g3602
sg76
(lp3609
g69
(g70
g71
NtRp3610
(dp3611
g74
(dp3612
g82
I4
ssg83
g3606
sg76
(lp3613
S'{{'
p3614
asbasbasbag69
(g85
g71
NtRp3615
(dp3616
g74
(dp3617
sg83
g3598
sg76
(lp3618
g69
(g90
g71
NtRp3619
(dp3620
g74
(dp3621
sg83
g3615
sg76
(lp3622
g69
(g70
g71
NtRp3623
(dp3624
g74
(dp3625
g82
I4
ssg83
g3619
sg76
(lp3626
S'}}'
p3627
asbasbasbasbasbasbasbag69
(g85
g71
NtRp3628
(dp3629
g74
(dp3630
sg83
g3343
sg76
(lp3631
g69
(g90
g71
NtRp3632
(dp3633
g74
(dp3634
g94
g95
ssg83
g3628
sg76
(lp3635
S'files'
p3636
asbag69
(g90
g71
NtRp3637
(dp3638
g74
(dp3639
g101
g102
ssg83
g3628
sg76
(lp3640
S':'
asbag69
(g90
g71
NtRp3641
(dp3642
g74
(dp3643
sg83
g3628
sg76
(lp3644
g69
(g70
g71
NtRp3645
(dp3646
g74
(dp3647
g82
I5
ssg83
g3641
sg76
(lp3648
g69
(g78
g71
NtRp3649
(dp3650
g74
(dp3651
g82
I4
ssg83
Nsg76
(lp3652
sbasbasbasbag69
(g85
g71
NtRp3653
(dp3654
g74
(dp3655
sg83
g3343
sg76
(lp3656
g69
(g90
g71
NtRp3657
(dp3658
g74
(dp3659
g94
g95
ssg83
g3653
sg76
(lp3660
S'flash'
p3661
asbag69
(g90
g71
NtRp3662
(dp3663
g74
(dp3664
g101
g102
ssg83
g3653
sg76
(lp3665
S':'
asbag69
(g90
g71
NtRp3666
(dp3667
g74
(dp3668
sg83
g3653
sg76
(lp3669
g69
(g70
g71
NtRp3670
(dp3671
g74
(dp3672
g82
I5
ssg83
g3666
sg76
(lp3673
S''
asbasbasbag69
(g85
g71
NtRp3674
(dp3675
g74
(dp3676
sg83
g3343
sg76
(lp3677
g69
(g90
g71
NtRp3678
(dp3679
g74
(dp3680
g94
g95
ssg83
g3674
sg76
(lp3681
S'generic_patterns'
p3682
asbag69
(g90
g71
NtRp3683
(dp3684
g74
(dp3685
g101
g102
ssg83
g3674
sg76
(lp3686
S':'
asbag69
(g90
g71
NtRp3687
(dp3688
g74
(dp3689
sg83
g3674
sg76
(lp3690
g69
(g70
g71
NtRp3691
(dp3692
g74
(dp3693
g82
I5
ssg83
g3687
sg76
(lp3694
g69
(g78
g71
NtRp3695
(dp3696
g74
(dp3697
g82
I4
ssg83
Nsg76
(lp3698
g69
(g85
g71
NtRp3699
(dp3700
g74
(dp3701
sg83
g3695
sg76
(lp3702
g69
(g90
g71
NtRp3703
(dp3704
g74
(dp3705
sg83
g3699
sg76
(lp3706
g69
(g70
g71
NtRp3707
(dp3708
g74
(dp3709
g82
I4
ssg83
g3703
sg76
(lp3710
S'*'
asbasbasbasbasbasbasbag69
(g85
g71
NtRp3711
(dp3712
g74
(dp3713
sg83
g3343
sg76
(lp3714
g69
(g90
g71
NtRp3715
(dp3716
g74
(dp3717
g94
g95
ssg83
g3711
sg76
(lp3718
S'headers'
p3719
asbag69
(g90
g71
NtRp3720
(dp3721
g74
(dp3722
g101
g102
ssg83
g3711
sg76
(lp3723
S':'
asbag69
(g90
g71
NtRp3724
(dp3725
g74
(dp3726
sg83
g3711
sg76
(lp3727
g69
(g70
g71
NtRp3728
(dp3729
g74
(dp3730
g82
I5
ssg83
g3724
sg76
(lp3731
g69
(g78
g71
NtRp3732
(dp3733
g74
(dp3734
g82
I4
ssg83
Nsg76
(lp3735
g69
(g85
g71
NtRp3736
(dp3737
g74
(dp3738
sg83
g3732
sg76
(lp3739
g69
(g90
g71
NtRp3740
(dp3741
g74
(dp3742
g94
g95
ssg83
g3736
sg76
(lp3743
S'Cache-Control'
p3744
asbag69
(g90
g71
NtRp3745
(dp3746
g74
(dp3747
g101
g102
ssg83
g3736
sg76
(lp3748
S':'
asbag69
(g90
g71
NtRp3749
(dp3750
g74
(dp3751
sg83
g3736
sg76
(lp3752
g69
(g70
g71
NtRp3753
(dp3754
g74
(dp3755
g82
I4
ssg83
g3749
sg76
(lp3756
S'no-store, no-cache, must-revalidate, post-check=0, pre-check=0'
p3757
asbasbasbag69
(g85
g71
NtRp3758
(dp3759
g74
(dp3760
sg83
g3732
sg76
(lp3761
g69
(g90
g71
NtRp3762
(dp3763
g74
(dp3764
g94
g95
ssg83
g3758
sg76
(lp3765
S'Content-Type'
p3766
asbag69
(g90
g71
NtRp3767
(dp3768
g74
(dp3769
g101
g102
ssg83
g3758
sg76
(lp3770
S':'
asbag69
(g90
g71
NtRp3771
(dp3772
g74
(dp3773
sg83
g3758
sg76
(lp3774
g69
(g70
g71
NtRp3775
(dp3776
g74
(dp3777
g82
I4
ssg83
g3771
sg76
(lp3778
S'text/html; charset=utf-8'
p3779
asbasbasbag69
(g85
g71
NtRp3780
(dp3781
g74
(dp3782
sg83
g3732
sg76
(lp3783
g69
(g90
g71
NtRp3784
(dp3785
g74
(dp3786
g94
g95
ssg83
g3780
sg76
(lp3787
S'Expires'
p3788
asbag69
(g90
g71
NtRp3789
(dp3790
g74
(dp3791
g101
g102
ssg83
g3780
sg76
(lp3792
S':'
asbag69
(g90
g71
NtRp3793
(dp3794
g74
(dp3795
sg83
g3780
sg76
(lp3796
g69
(g70
g71
NtRp3797
(dp3798
g74
(dp3799
g82
I4
ssg83
g3793
sg76
(lp3800
S'Tue, 01 May 2012 01:34:33 GMT'
p3801
asbasbasbag69
(g85
g71
NtRp3802
(dp3803
g74
(dp3804
sg83
g3732
sg76
(lp3805
g69
(g90
g71
NtRp3806
(dp3807
g74
(dp3808
g94
g95
ssg83
g3802
sg76
(lp3809
S'Pragma'
p3810
asbag69
(g90
g71
NtRp3811
(dp3812
g74
(dp3813
g101
g102
ssg83
g3802
sg76
(lp3814
S':'
asbag69
(g90
g71
NtRp3815
(dp3816
g74
(dp3817
sg83
g3802
sg76
(lp3818
g69
(g70
g71
NtRp3819
(dp3820
g74
(dp3821
g82
I4
ssg83
g3815
sg76
(lp3822
S'no-cache'
p3823
asbasbasbag69
(g85
g71
NtRp3824
(dp3825
g74
(dp3826
sg83
g3732
sg76
(lp3827
g69
(g90
g71
NtRp3828
(dp3829
g74
(dp3830
g94
g95
ssg83
g3824
sg76
(lp3831
S'X-Powered-By'
p3832
asbag69
(g90
g71
NtRp3833
(dp3834
g74
(dp3835
g101
g102
ssg83
g3824
sg76
(lp3836
S':'
asbag69
(g90
g71
NtRp3837
(dp3838
g74
(dp3839
sg83
g3824
sg76
(lp3840
g69
(g70
g71
NtRp3841
(dp3842
g74
(dp3843
g82
I4
ssg83
g3837
sg76
(lp3844
S'web2py'
p3845
asbasbasbasbasbasbasbag69
(g85
g71
NtRp3846
(dp3847
g74
(dp3848
sg83
g3343
sg76
(lp3849
g69
(g90
g71
NtRp3850
(dp3851
g74
(dp3852
g94
g95
ssg83
g3846
sg76
(lp3853
S'menu'
p3854
asbag69
(g90
g71
NtRp3855
(dp3856
g74
(dp3857
g101
g102
ssg83
g3846
sg76
(lp3858
S':'
asbag69
(g90
g71
NtRp3859
(dp3860
g74
(dp3861
sg83
g3846
sg76
(lp3862
g69
(g70
g71
NtRp3863
(dp3864
g74
(dp3865
g82
I5
ssg83
g3859
sg76
(lp3866
g69
(g78
g71
NtRp3867
(dp3868
g74
(dp3869
g82
I4
ssg83
Nsg76
(lp3870
g69
(g85
g71
NtRp3871
(dp3872
g74
(dp3873
sg83
g3867
sg76
(lp3874
g69
(g90
g71
NtRp3875
(dp3876
g74
(dp3877
sg83
g3871
sg76
(lp3878
g69
(g70
g71
NtRp3879
(dp3880
g74
(dp3881
g82
I4
ssg83
g3875
sg76
(lp3882
g69
(g78
g71
NtRp3883
(dp3884
g74
(dp3885
g82
I3
ssg83
Nsg76
(lp3886
g69
(g85
g71
NtRp3887
(dp3888
g74
(dp3889
sg83
g3883
sg76
(lp3890
g69
(g90
g71
NtRp3891
(dp3892
g74
(dp3893
sg83
g3887
sg76
(lp3894
g69
(g70
g71
NtRp3895
(dp3896
g74
(dp3897
g82
I3
ssg83
g3891
sg76
(lp3898
cgluon.languages
lazyT_unpickle
p3899
(S't\x06\x00\x00\x00Inicio'
tRp3900
asbasbasbag69
(g85
g71
NtRp3901
(dp3902
g74
(dp3903
sg83
g3883
sg76
(lp3904
g69
(g90
g71
NtRp3905
(dp3906
g74
(dp3907
sg83
g3901
sg76
(lp3908
g69
(g70
g71
NtRp3909
(dp3910
g74
(dp3911
g82
I3
ssg83
g3905
sg76
(lp3912
g112
asbasbasbag69
(g85
g71
NtRp3913
(dp3914
g74
(dp3915
sg83
g3883
sg76
(lp3916
g69
(g90
g71
NtRp3917
(dp3918
g74
(dp3919
sg83
g3913
sg76
(lp3920
g69
(g70
g71
NtRp3921
(dp3922
g74
(dp3923
g82
I3
ssg83
g3917
sg76
(lp3924
S'/init/default/index'
p3925
asbasbasbag69
(g85
g71
NtRp3926
(dp3927
g74
(dp3928
sg83
g3883
sg76
(lp3929
g69
(g90
g71
NtRp3930
(dp3931
g74
(dp3932
sg83
g3926
sg76
(lp3933
g69
(g70
g71
NtRp3934
(dp3935
g74
(dp3936
g82
I3
ssg83
g3930
sg76
(lp3937
g69
(g78
g71
NtRp3938
(dp3939
g74
(dp3940
g82
I2
ssg83
Nsg76
(lp3941
sbasbasbasbasbasbasbasbag69
(g85
g71
NtRp3942
(dp3943
g74
(dp3944
sg83
g3867
sg76
(lp3945
g69
(g90
g71
NtRp3946
(dp3947
g74
(dp3948
sg83
g3942
sg76
(lp3949
g69
(g70
g71
NtRp3950
(dp3951
g74
(dp3952
g82
I4
ssg83
g3946
sg76
(lp3953
g69
(g78
g71
NtRp3954
(dp3955
g74
(dp3956
g82
I3
ssg83
Nsg76
(lp3957
g69
(g85
g71
NtRp3958
(dp3959
g74
(dp3960
sg83
g3954
sg76
(lp3961
g69
(g90
g71
NtRp3962
(dp3963
g74
(dp3964
sg83
g3958
sg76
(lp3965
g69
(g70
g71
NtRp3966
(dp3967
g74
(dp3968
g82
I3
ssg83
g3962
sg76
(lp3969
g3899
(S't\x07\x00\x00\x00cliente'
tRp3970
asbasbasbag69
(g85
g71
NtRp3971
(dp3972
g74
(dp3973
sg83
g3954
sg76
(lp3974
g69
(g90
g71
NtRp3975
(dp3976
g74
(dp3977
sg83
g3971
sg76
(lp3978
g69
(g70
g71
NtRp3979
(dp3980
g74
(dp3981
g82
I3
ssg83
g3975
sg76
(lp3982
g112
asbasbasbag69
(g85
g71
NtRp3983
(dp3984
g74
(dp3985
sg83
g3954
sg76
(lp3986
g69
(g90
g71
NtRp3987
(dp3988
g74
(dp3989
sg83
g3983
sg76
(lp3990
g69
(g70
g71
NtRp3991
(dp3992
g74
(dp3993
g82
I3
ssg83
g3987
sg76
(lp3994
S'/init/default/cliente'
p3995
asbasbasbag69
(g85
g71
NtRp3996
(dp3997
g74
(dp3998
sg83
g3954
sg76
(lp3999
g69
(g90
g71
NtRp4000
(dp4001
g74
(dp4002
sg83
g3996
sg76
(lp4003
g69
(g70
g71
NtRp4004
(dp4005
g74
(dp4006
g82
I3
ssg83
g4000
sg76
(lp4007
g69
(g78
g71
NtRp4008
(dp4009
g74
(dp4010
g82
I2
ssg83
Nsg76
(lp4011
sbasbasbasbasbasbasbasbag69
(g85
g71
NtRp4012
(dp4013
g74
(dp4014
sg83
g3867
sg76
(lp4015
g69
(g90
g71
NtRp4016
(dp4017
g74
(dp4018
sg83
g4012
sg76
(lp4019
g69
(g70
g71
NtRp4020
(dp4021
g74
(dp4022
g82
I4
ssg83
g4016
sg76
(lp4023
g69
(g78
g71
NtRp4024
(dp4025
g74
(dp4026
g82
I3
ssg83
Nsg76
(lp4027
g69
(g85
g71
NtRp4028
(dp4029
g74
(dp4030
sg83
g4024
sg76
(lp4031
g69
(g90
g71
NtRp4032
(dp4033
g74
(dp4034
sg83
g4028
sg76
(lp4035
g69
(g70
g71
NtRp4036
(dp4037
g74
(dp4038
g82
I3
ssg83
g4032
sg76
(lp4039
g3899
(S't\t\x00\x00\x00categoria'
tRp4040
asbasbasbag69
(g85
g71
NtRp4041
(dp4042
g74
(dp4043
sg83
g4024
sg76
(lp4044
g69
(g90
g71
NtRp4045
(dp4046
g74
(dp4047
sg83
g4041
sg76
(lp4048
g69
(g70
g71
NtRp4049
(dp4050
g74
(dp4051
g82
I3
ssg83
g4045
sg76
(lp4052
g112
asbasbasbag69
(g85
g71
NtRp4053
(dp4054
g74
(dp4055
sg83
g4024
sg76
(lp4056
g69
(g90
g71
NtRp4057
(dp4058
g74
(dp4059
sg83
g4053
sg76
(lp4060
g69
(g70
g71
NtRp4061
(dp4062
g74
(dp4063
g82
I3
ssg83
g4057
sg76
(lp4064
S'/init/default/categoria'
p4065
asbasbasbag69
(g85
g71
NtRp4066
(dp4067
g74
(dp4068
sg83
g4024
sg76
(lp4069
g69
(g90
g71
NtRp4070
(dp4071
g74
(dp4072
sg83
g4066
sg76
(lp4073
g69
(g70
g71
NtRp4074
(dp4075
g74
(dp4076
g82
I3
ssg83
g4070
sg76
(lp4077
g69
(g78
g71
NtRp4078
(dp4079
g74
(dp4080
g82
I2
ssg83
Nsg76
(lp4081
sbasbasbasbasbasbasbasbag69
(g85
g71
NtRp4082
(dp4083
g74
(dp4084
sg83
g3867
sg76
(lp4085
g69
(g90
g71
NtRp4086
(dp4087
g74
(dp4088
sg83
g4082
sg76
(lp4089
g69
(g70
g71
NtRp4090
(dp4091
g74
(dp4092
g82
I4
ssg83
g4086
sg76
(lp4093
g69
(g78
g71
NtRp4094
(dp4095
g74
(dp4096
g82
I3
ssg83
Nsg76
(lp4097
g69
(g85
g71
NtRp4098
(dp4099
g74
(dp4100
sg83
g4094
sg76
(lp4101
g69
(g90
g71
NtRp4102
(dp4103
g74
(dp4104
sg83
g4098
sg76
(lp4105
g69
(g70
g71
NtRp4106
(dp4107
g74
(dp4108
g82
I3
ssg83
g4102
sg76
(lp4109
g3899
(S't\t\x00\x00\x00articulos'
tRp4110
asbasbasbag69
(g85
g71
NtRp4111
(dp4112
g74
(dp4113
sg83
g4094
sg76
(lp4114
g69
(g90
g71
NtRp4115
(dp4116
g74
(dp4117
sg83
g4111
sg76
(lp4118
g69
(g70
g71
NtRp4119
(dp4120
g74
(dp4121
g82
I3
ssg83
g4115
sg76
(lp4122
g112
asbasbasbag69
(g85
g71
NtRp4123
(dp4124
g74
(dp4125
sg83
g4094
sg76
(lp4126
g69
(g90
g71
NtRp4127
(dp4128
g74
(dp4129
sg83
g4123
sg76
(lp4130
g69
(g70
g71
NtRp4131
(dp4132
g74
(dp4133
g82
I3
ssg83
g4127
sg76
(lp4134
S'/init/default/articulo'
p4135
asbasbasbag69
(g85
g71
NtRp4136
(dp4137
g74
(dp4138
sg83
g4094
sg76
(lp4139
g69
(g90
g71
NtRp4140
(dp4141
g74
(dp4142
sg83
g4136
sg76
(lp4143
g69
(g70
g71
NtRp4144
(dp4145
g74
(dp4146
g82
I3
ssg83
g4140
sg76
(lp4147
g69
(g78
g71
NtRp4148
(dp4149
g74
(dp4150
g82
I2
ssg83
Nsg76
(lp4151
sbasbasbasbasbasbasbasbag69
(g85
g71
NtRp4152
(dp4153
g74
(dp4154
sg83
g3867
sg76
(lp4155
g69
(g90
g71
NtRp4156
(dp4157
g74
(dp4158
sg83
g4152
sg76
(lp4159
g69
(g70
g71
NtRp4160
(dp4161
g74
(dp4162
g82
I4
ssg83
g4156
sg76
(lp4163
g69
(g78
g71
NtRp4164
(dp4165
g74
(dp4166
g82
I3
ssg83
Nsg76
(lp4167
g69
(g85
g71
NtRp4168
(dp4169
g74
(dp4170
sg83
g4164
sg76
(lp4171
g69
(g90
g71
NtRp4172
(dp4173
g74
(dp4174
sg83
g4168
sg76
(lp4175
g69
(g70
g71
NtRp4176
(dp4177
g74
(dp4178
g82
I3
ssg83
g4172
sg76
(lp4179
g3899
(S's\x13\x00\x00\x00Lista de Pendientes'
tRp4180
asbasbasbag69
(g85
g71
NtRp4181
(dp4182
g74
(dp4183
sg83
g4164
sg76
(lp4184
g69
(g90
g71
NtRp4185
(dp4186
g74
(dp4187
sg83
g4181
sg76
(lp4188
g69
(g70
g71
NtRp4189
(dp4190
g74
(dp4191
g82
I3
ssg83
g4185
sg76
(lp4192
g112
asbasbasbag69
(g85
g71
NtRp4193
(dp4194
g74
(dp4195
sg83
g4164
sg76
(lp4196
g69
(g90
g71
NtRp4197
(dp4198
g74
(dp4199
sg83
g4193
sg76
(lp4200
g69
(g70
g71
NtRp4201
(dp4202
g74
(dp4203
g82
I3
ssg83
g4197
sg76
(lp4204
S'/init/default/presupuestos2'
p4205
asbasbasbag69
(g85
g71
NtRp4206
(dp4207
g74
(dp4208
sg83
g4164
sg76
(lp4209
g69
(g90
g71
NtRp4210
(dp4211
g74
(dp4212
sg83
g4206
sg76
(lp4213
g69
(g70
g71
NtRp4214
(dp4215
g74
(dp4216
g82
I3
ssg83
g4210
sg76
(lp4217
g69
(g78
g71
NtRp4218
(dp4219
g74
(dp4220
g82
I2
ssg83
Nsg76
(lp4221
sbasbasbasbasbasbasbasbag69
(g85
g71
NtRp4222
(dp4223
g74
(dp4224
sg83
g3867
sg76
(lp4225
g69
(g90
g71
NtRp4226
(dp4227
g74
(dp4228
sg83
g4222
sg76
(lp4229
g69
(g70
g71
NtRp4230
(dp4231
g74
(dp4232
g82
I4
ssg83
g4226
sg76
(lp4233
g69
(g78
g71
NtRp4234
(dp4235
g74
(dp4236
g82
I3
ssg83
Nsg76
(lp4237
g69
(g85
g71
NtRp4238
(dp4239
g74
(dp4240
sg83
g4234
sg76
(lp4241
g69
(g90
g71
NtRp4242
(dp4243
g74
(dp4244
sg83
g4238
sg76
(lp4245
g69
(g70
g71
NtRp4246
(dp4247
g74
(dp4248
g82
I3
ssg83
g4242
sg76
(lp4249
g3899
(S't\x0c\x00\x00\x00Modificacion'
tRp4250
asbasbasbag69
(g85
g71
NtRp4251
(dp4252
g74
(dp4253
sg83
g4234
sg76
(lp4254
g69
(g90
g71
NtRp4255
(dp4256
g74
(dp4257
sg83
g4251
sg76
(lp4258
g69
(g70
g71
NtRp4259
(dp4260
g74
(dp4261
g82
I3
ssg83
g4255
sg76
(lp4262
g112
asbasbasbag69
(g85
g71
NtRp4263
(dp4264
g74
(dp4265
sg83
g4234
sg76
(lp4266
g69
(g90
g71
NtRp4267
(dp4268
g74
(dp4269
sg83
g4263
sg76
(lp4270
g69
(g70
g71
NtRp4271
(dp4272
g74
(dp4273
g82
I3
ssg83
g4267
sg76
(lp4274
S'/init/default/presupuestos'
p4275
asbasbasbag69
(g85
g71
NtRp4276
(dp4277
g74
(dp4278
sg83
g4234
sg76
(lp4279
g69
(g90
g71
NtRp4280
(dp4281
g74
(dp4282
sg83
g4276
sg76
(lp4283
g69
(g70
g71
NtRp4284
(dp4285
g74
(dp4286
g82
I3
ssg83
g4280
sg76
(lp4287
g69
(g78
g71
NtRp4288
(dp4289
g74
(dp4290
g82
I2
ssg83
Nsg76
(lp4291
sbasbasbasbasbasbasbasbag69
(g85
g71
NtRp4292
(dp4293
g74
(dp4294
sg83
g3867
sg76
(lp4295
g69
(g90
g71
NtRp4296
(dp4297
g74
(dp4298
sg83
g4292
sg76
(lp4299
g69
(g70
g71
NtRp4300
(dp4301
g74
(dp4302
g82
I4
ssg83
g4296
sg76
(lp4303
g69
(g78
g71
NtRp4304
(dp4305
g74
(dp4306
g82
I3
ssg83
Nsg76
(lp4307
g69
(g85
g71
NtRp4308
(dp4309
g74
(dp4310
sg83
g4304
sg76
(lp4311
g69
(g90
g71
NtRp4312
(dp4313
g74
(dp4314
sg83
g4308
sg76
(lp4315
g69
(g70
g71
NtRp4316
(dp4317
g74
(dp4318
g82
I3
ssg83
g4312
sg76
(lp4319
g3899
(S's\x0c\x00\x00\x00Nueva Salida'
tRp4320
asbasbasbag69
(g85
g71
NtRp4321
(dp4322
g74
(dp4323
sg83
g4304
sg76
(lp4324
g69
(g90
g71
NtRp4325
(dp4326
g74
(dp4327
sg83
g4321
sg76
(lp4328
g69
(g70
g71
NtRp4329
(dp4330
g74
(dp4331
g82
I3
ssg83
g4325
sg76
(lp4332
g112
asbasbasbag69
(g85
g71
NtRp4333
(dp4334
g74
(dp4335
sg83
g4304
sg76
(lp4336
g69
(g90
g71
NtRp4337
(dp4338
g74
(dp4339
sg83
g4333
sg76
(lp4340
g69
(g70
g71
NtRp4341
(dp4342
g74
(dp4343
g82
I3
ssg83
g4337
sg76
(lp4344
S'/init/default/movimientos'
p4345
asbasbasbag69
(g85
g71
NtRp4346
(dp4347
g74
(dp4348
sg83
g4304
sg76
(lp4349
g69
(g90
g71
NtRp4350
(dp4351
g74
(dp4352
sg83
g4346
sg76
(lp4353
g69
(g70
g71
NtRp4354
(dp4355
g74
(dp4356
g82
I3
ssg83
g4350
sg76
(lp4357
g69
(g78
g71
NtRp4358
(dp4359
g74
(dp4360
g82
I2
ssg83
Nsg76
(lp4361
sbasbasbasbasbasbasbasbasbasbasbasbag69
(g85
g71
NtRp4362
(dp4363
g74
(dp4364
sg83
g3343
sg76
(lp4365
g69
(g90
g71
NtRp4366
(dp4367
g74
(dp4368
g94
g95
ssg83
g4362
sg76
(lp4369
S'meta'
p4370
asbag69
(g90
g71
NtRp4371
(dp4372
g74
(dp4373
g101
g102
ssg83
g4362
sg76
(lp4374
S':'
asbag69
(g90
g71
NtRp4375
(dp4376
g74
(dp4377
sg83
g4362
sg76
(lp4378
g69
(g70
g71
NtRp4379
(dp4380
g74
(dp4381
g82
I5
ssg83
g4375
sg76
(lp4382
g69
(g78
g71
NtRp4383
(dp4384
g74
(dp4385
g82
I4
ssg83
Nsg76
(lp4386
g69
(g85
g71
NtRp4387
(dp4388
g74
(dp4389
sg83
g4383
sg76
(lp4390
g69
(g90
g71
NtRp4391
(dp4392
g74
(dp4393
g94
g95
ssg83
g4387
sg76
(lp4394
S'author'
p4395
asbag69
(g90
g71
NtRp4396
(dp4397
g74
(dp4398
g101
g102
ssg83
g4387
sg76
(lp4399
S':'
asbag69
(g90
g71
NtRp4400
(dp4401
g74
(dp4402
sg83
g4387
sg76
(lp4403
g69
(g70
g71
NtRp4404
(dp4405
g74
(dp4406
g82
I4
ssg83
g4400
sg76
(lp4407
S'jorge a <jorge.agua@gmail.com>'
p4408
asbasbasbag69
(g85
g71
NtRp4409
(dp4410
g74
(dp4411
sg83
g4383
sg76
(lp4412
g69
(g90
g71
NtRp4413
(dp4414
g74
(dp4415
g94
g95
ssg83
g4409
sg76
(lp4416
S'description'
p4417
asbag69
(g90
g71
NtRp4418
(dp4419
g74
(dp4420
g101
g102
ssg83
g4409
sg76
(lp4421
S':'
asbag69
(g90
g71
NtRp4422
(dp4423
g74
(dp4424
sg83
g4409
sg76
(lp4425
g69
(g70
g71
NtRp4426
(dp4427
g74
(dp4428
g82
I4
ssg83
g4422
sg76
(lp4429
S''
asbasbasbag69
(g85
g71
NtRp4430
(dp4431
g74
(dp4432
sg83
g4383
sg76
(lp4433
g69
(g90
g71
NtRp4434
(dp4435
g74
(dp4436
g94
g95
ssg83
g4430
sg76
(lp4437
S'keywords'
p4438
asbag69
(g90
g71
NtRp4439
(dp4440
g74
(dp4441
g101
g102
ssg83
g4430
sg76
(lp4442
S':'
asbag69
(g90
g71
NtRp4443
(dp4444
g74
(dp4445
sg83
g4430
sg76
(lp4446
g69
(g70
g71
NtRp4447
(dp4448
g74
(dp4449
g82
I4
ssg83
g4443
sg76
(lp4450
S''
asbasbasbasbasbasbasbag69
(g85
g71
NtRp4451
(dp4452
g74
(dp4453
sg83
g3343
sg76
(lp4454
g69
(g90
g71
NtRp4455
(dp4456
g74
(dp4457
g94
g95
ssg83
g4451
sg76
(lp4458
S'postprocessing'
p4459
asbag69
(g90
g71
NtRp4460
(dp4461
g74
(dp4462
g101
g102
ssg83
g4451
sg76
(lp4463
S':'
asbag69
(g90
g71
NtRp4464
(dp4465
g74
(dp4466
sg83
g4451
sg76
(lp4467
g69
(g70
g71
NtRp4468
(dp4469
g74
(dp4470
g82
I5
ssg83
g4464
sg76
(lp4471
g69
(g78
g71
NtRp4472
(dp4473
g74
(dp4474
g82
I4
ssg83
Nsg76
(lp4475
sbasbasbasbag69
(g85
g71
NtRp4476
(dp4477
g74
(dp4478
sg83
g3343
sg76
(lp4479
g69
(g90
g71
NtRp4480
(dp4481
g74
(dp4482
g94
g95
ssg83
g4476
sg76
(lp4483
S'session_file'
p4484
asbag69
(g90
g71
NtRp4485
(dp4486
g74
(dp4487
g101
g102
ssg83
g4476
sg76
(lp4488
S':'
asbag69
(g90
g71
NtRp4489
(dp4490
g74
(dp4491
sg83
g4476
sg76
(lp4492
g69
(g70
g71
NtRp4493
(dp4494
g74
(dp4495
g82
I5
ssg83
g4489
sg76
(lp4496
S"<open file 'c:\\Users\\Jorge\\Downloads\\web2py_src\\web2py\\applications\\init\\sessions\\127.0.0.1-db1a5172-e0eb-4779-bead-3eff2ec2fe17', mode 'rb+' at 0x0000000009CD60C0>"
p4497
asbasbasbag69
(g85
g71
NtRp4498
(dp4499
g74
(dp4500
sg83
g3343
sg76
(lp4501
g69
(g90
g71
NtRp4502
(dp4503
g74
(dp4504
g94
g95
ssg83
g4498
sg76
(lp4505
S'session_filename'
p4506
asbag69
(g90
g71
NtRp4507
(dp4508
g74
(dp4509
g101
g102
ssg83
g4498
sg76
(lp4510
S':'
asbag69
(g90
g71
NtRp4511
(dp4512
g74
(dp4513
sg83
g4498
sg76
(lp4514
g69
(g70
g71
NtRp4515
(dp4516
g74
(dp4517
g82
I5
ssg83
g4511
sg76
(lp4518
S'c:\\Users\\Jorge\\Downloads\\web2py_src\\web2py\\applications\\init\\sessions\\127.0.0.1-db1a5172-e0eb-4779-bead-3eff2ec2fe17'
p4519
asbasbasbag69
(g85
g71
NtRp4520
(dp4521
g74
(dp4522
sg83
g3343
sg76
(lp4523
g69
(g90
g71
NtRp4524
(dp4525
g74
(dp4526
g94
g95
ssg83
g4520
sg76
(lp4527
S'session_id'
p4528
asbag69
(g90
g71
NtRp4529
(dp4530
g74
(dp4531
g101
g102
ssg83
g4520
sg76
(lp4532
S':'
asbag69
(g90
g71
NtRp4533
(dp4534
g74
(dp4535
sg83
g4520
sg76
(lp4536
g69
(g70
g71
NtRp4537
(dp4538
g74
(dp4539
g82
I5
ssg83
g4533
sg76
(lp4540
S'127.0.0.1-db1a5172-e0eb-4779-bead-3eff2ec2fe17'
p4541
asbasbasbag69
(g85
g71
NtRp4542
(dp4543
g74
(dp4544
sg83
g3343
sg76
(lp4545
g69
(g90
g71
NtRp4546
(dp4547
g74
(dp4548
g94
g95
ssg83
g4542
sg76
(lp4549
S'session_id_name'
p4550
asbag69
(g90
g71
NtRp4551
(dp4552
g74
(dp4553
g101
g102
ssg83
g4542
sg76
(lp4554
S':'
asbag69
(g90
g71
NtRp4555
(dp4556
g74
(dp4557
sg83
g4542
sg76
(lp4558
g69
(g70
g71
NtRp4559
(dp4560
g74
(dp4561
g82
I5
ssg83
g4555
sg76
(lp4562
g3400
asbasbasbag69
(g85
g71
NtRp4563
(dp4564
g74
(dp4565
sg83
g3343
sg76
(lp4566
g69
(g90
g71
NtRp4567
(dp4568
g74
(dp4569
g94
g95
ssg83
g4563
sg76
(lp4570
S'session_locked'
p4571
asbag69
(g90
g71
NtRp4572
(dp4573
g74
(dp4574
g101
g102
ssg83
g4563
sg76
(lp4575
S':'
asbag69
(g90
g71
NtRp4576
(dp4577
g74
(dp4578
sg83
g4563
sg76
(lp4579
g69
(g70
g71
NtRp4580
(dp4581
g74
(dp4582
g82
I5
ssg83
g4576
sg76
(lp4583
g1522
asbasbasbag69
(g85
g71
NtRp4584
(dp4585
g74
(dp4586
sg83
g3343
sg76
(lp4587
g69
(g90
g71
NtRp4588
(dp4589
g74
(dp4590
g94
g95
ssg83
g4584
sg76
(lp4591
S'session_new'
p4592
asbag69
(g90
g71
NtRp4593
(dp4594
g74
(dp4595
g101
g102
ssg83
g4584
sg76
(lp4596
S':'
asbag69
(g90
g71
NtRp4597
(dp4598
g74
(dp4599
sg83
g4584
sg76
(lp4600
g69
(g70
g71
NtRp4601
(dp4602
g74
(dp4603
g82
I5
ssg83
g4597
sg76
(lp4604
g112
asbasbasbag69
(g85
g71
NtRp4605
(dp4606
g74
(dp4607
sg83
g3343
sg76
(lp4608
g69
(g90
g71
NtRp4609
(dp4610
g74
(dp4611
g94
g95
ssg83
g4605
sg76
(lp4612
S'status'
p4613
asbag69
(g90
g71
NtRp4614
(dp4615
g74
(dp4616
g101
g102
ssg83
g4605
sg76
(lp4617
S':'
asbag69
(g90
g71
NtRp4618
(dp4619
g74
(dp4620
sg83
g4605
sg76
(lp4621
g69
(g70
g71
NtRp4622
(dp4623
g74
(dp4624
g82
I5
ssg83
g4618
sg76
(lp4625
S'200'
p4626
asbasbasbag69
(g85
g71
NtRp4627
(dp4628
g74
(dp4629
sg83
g3343
sg76
(lp4630
g69
(g90
g71
NtRp4631
(dp4632
g74
(dp4633
g94
g95
ssg83
g4627
sg76
(lp4634
S'subtitle'
p4635
asbag69
(g90
g71
NtRp4636
(dp4637
g74
(dp4638
g101
g102
ssg83
g4627
sg76
(lp4639
S':'
asbag69
(g90
g71
NtRp4640
(dp4641
g74
(dp4642
sg83
g4627
sg76
(lp4643
g69
(g70
g71
NtRp4644
(dp4645
g74
(dp4646
g82
I5
ssg83
g4640
sg76
(lp4647
S'powered by jorge'
p4648
asbasbasbag69
(g85
g71
NtRp4649
(dp4650
g74
(dp4651
sg83
g3343
sg76
(lp4652
g69
(g90
g71
NtRp4653
(dp4654
g74
(dp4655
g94
g95
ssg83
g4649
sg76
(lp4656
S'title'
p4657
asbag69
(g90
g71
NtRp4658
(dp4659
g74
(dp4660
g101
g102
ssg83
g4649
sg76
(lp4661
S':'
asbag69
(g90
g71
NtRp4662
(dp4663
g74
(dp4664
sg83
g4649
sg76
(lp4665
g69
(g70
g71
NtRp4666
(dp4667
g74
(dp4668
g82
I5
ssg83
g4662
sg76
(lp4669
S'mi nueva app'
p4670
asbasbasbag69
(g85
g71
NtRp4671
(dp4672
g74
(dp4673
sg83
g3343
sg76
(lp4674
g69
(g90
g71
NtRp4675
(dp4676
g74
(dp4677
g94
g95
ssg83
g4671
sg76
(lp4678
g2208
asbag69
(g90
g71
NtRp4679
(dp4680
g74
(dp4681
g101
g102
ssg83
g4671
sg76
(lp4682
S':'
asbag69
(g90
g71
NtRp4683
(dp4684
g74
(dp4685
sg83
g4671
sg76
(lp4686
g69
(g70
g71
NtRp4687
(dp4688
g74
(dp4689
g82
I5
ssg83
g4683
sg76
(lp4690
g2221
asbasbasbag69
(g85
g71
NtRp4691
(dp4692
g74
(dp4693
sg83
g3343
sg76
(lp4694
g69
(g90
g71
NtRp4695
(dp4696
g74
(dp4697
g94
g95
ssg83
g4691
sg76
(lp4698
S'view'
p4699
asbag69
(g90
g71
NtRp4700
(dp4701
g74
(dp4702
g101
g102
ssg83
g4691
sg76
(lp4703
S':'
asbag69
(g90
g71
NtRp4704
(dp4705
g74
(dp4706
sg83
g4691
sg76
(lp4707
g69
(g70
g71
NtRp4708
(dp4709
g74
(dp4710
g82
I5
ssg83
g4704
sg76
(lp4711
S'default/prueba.html'
p4712
asbasbasbasbasbsS'locals'
p4713
(dp4714
g4
S"r'c:\\Users\\Jorge\\Downloads\\web2py_src\\web2py\\applications\\init\\controllers/default.py'"
p4715
sg6
S"'# -*- coding: utf-8 -*-\\nif 0:\\n    from gluon.glo...rm=form)\\nresponse._vars=response._caller(prueba)\\n'"
p4716
sssS'traceback'
p4717
S'Traceback (most recent call last):\n  File "c:\\Users\\Jorge\\Downloads\\web2py_src\\web2py\\gluon\\restricted.py", line 204, in restricted\n    ccode = compile2(code,layer)\n  File "c:\\Users\\Jorge\\Downloads\\web2py_src\\web2py\\gluon\\restricted.py", line 189, in compile2\n    return compile(code.rstrip().replace(\'\\r\\n\',\'\\n\')+\'\\n\', layer, \'exec\')\n  File "c:\\Users\\Jorge\\Downloads\\web2py_src\\web2py\\applications\\init\\controllers/default.py", line 266\n    indice =\n            ^\nSyntaxError: invalid syntax\n'
p4718
s.