(dp1
S'output'
p2
S"<type 'exceptions.SyntaxError'> invalid syntax (controllers/default.py, line 162)"
p3
sS'layer'
p4
S'c:\\Users\\Jorge\\Downloads\\web2py_src\\web2py\\applications\\init\\controllers/default.py'
p5
sS'code'
p6
S'# -*- coding: utf-8 -*-\nif 0:\n    from gluon.globals import *\n    from gluon.html import *\n    from gluon.http import *\n    from gluon.tools import Auth\n    from gluon.sqlhtml import SQLFORM, SQLTABLE, form_factory\n    session = Session()\n    request = Request()\n    response = Response()\n\n### required - do no delete\ndef user(): return dict(form=auth())\ndef download(): return response.download(request,db)\ndef call(): return service()\n### end requires\n\n\n\ndef index():\n    return dict()\n\ndef error():\n    return dict()\n\n\n# lista de clientes y altas - que retiran mercaderia\n@auth.requires_login()\ndef cliente():\n    datasource = db(db.cliente.id>0).select()\n    powerTable = plugins.powerTable\n    powerTable.datasource = datasource\n    powerTable.headers = \'labels\'\n    powerTable.showkeycolumn = False\n    powerTable.dtfeatures[\'bJQueryUI\'] = request.vars.get(\'jqueryui\',True)\n    powerTable.uitheme = request.vars.get(\'theme\',\'Smoothness\')\n    powerTable.dtfeatures["sScrollY"] = "100%"\n    powerTable.dtfeatures["sScrollX"] = "100%"\n    powerTable.dtfeatures[\'sPaginationType\'] = \'full_numbers\'\n    powerTable.dtfeatures["iDisplayLength"] = 20\n    \n    #buttons=[\n          #(\'Docs\',URL(\'default\',\'presupuestos\',args=[\'read\',\'features\'])+\'/${id}\',\'_blank\',\'Docs for ${empresa}\',\'modal right button\',\'rightarrow\'),\n    #]\n    \n    \n \n    #from plugin_PowerGrid.PowerGrid import PowerGrid\n    #p = PowerGrid(\n           #callback=URL(\'default\',\'features\', extension=\'json\'),\n           #buttons=buttons,\n           #addurl=URL(\'plugin_PowerGrid\',\'data\',args=[\'create\',\'features\']), \n           #hideaddbutton=False \n           #if auth.has_membership(\'admin\') else True,\n           #headers=[[\'created_on\',\'Nombre\'], [\'email\',\'Correo\'],[\'telefono\',\'telefono\']],\n           #minH=600,minW=800,\n           #options=dict(colsWidth=[200,400],find=\'text\',rows=10)\n\n    #)\n        \n        \n        \n    mystep = [dict(title=\'NUEVO CLIENTE\',Legend=\'Ingrese los datos del nuevo cliente\',\n                   fields=[\'empresa\',\'contacto\',\'telefono\',\'correo\'])]\n    from plugin_PowerFormWizard import PowerFormWizard\n    options = {\'description\':False,\'legend\':True,\'validate\':True}\n    form = PowerFormWizard(db.cliente, steps=mystep, options=options)\n    \n    if form.accepts(request.vars, session):\n        response.flash = "registro aceptado"\n    elif form.errors:\n        form.step_validation()\n        response.flash = "error en los datos"\n    return dict( table=powerTable.create(),form=form)    \n    #return dict(p=p)\n\n# lista de categorias de articulos - altas de categorias de articulos\n@auth.requires_login()\ndef categoria():\n    datasource = db(db.categoria.id>0).select()\n    powerTable = plugins.powerTable\n    powerTable.datasource = datasource\n    powerTable.headers = \'labels\'\n    powerTable.showkeycolumn = False\n    powerTable.dtfeatures[\'bJQueryUI\'] = request.vars.get(\'jqueryui\',True)\n    powerTable.uitheme = request.vars.get(\'theme\',\'Smoothness\')\n    powerTable.dtfeatures["sScrollY"] = "100%"\n    powerTable.dtfeatures["sScrollX"] = "100%"\n    powerTable.dtfeatures[\'sPaginationType\'] = \'full_numbers\'\n    powerTable.dtfeatures["iDisplayLength"] = 30\n    \n    mystep = [dict(title=\'NUEVAS CATEGORIAS\',Legend=\'Ingrese una Categoria para Agrupar art\xc3\xadculos\',fields=[\'name\'])]\n    from plugin_PowerFormWizard import PowerFormWizard\n    options = {\'description\':False,\'legend\':True,\'validate\':True}\n    form = PowerFormWizard(db.categoria, steps=mystep, options=options)\n    \n    if form.accepts(request.vars, session):\n        response.flash = "registro aceptado"\n    elif form.errors:\n        form.step_validation()\n        response.flash = "error en los datos"\n    return dict( table=powerTable.create(),form=form)\n\n# lista de articulos y alta de articulos \n@auth.requires_login()\ndef articulo():\n    datasource = db(db.articulo.id>0).select()\n    powerTable = plugins.powerTable\n    powerTable.datasource = datasource\n    powerTable.headers = \'labels\'\n    powerTable.showkeycolumn = False\n    powerTable.dtfeatures[\'bJQueryUI\'] = request.vars.get(\'jqueryui\',True)\n    powerTable.uitheme = request.vars.get(\'theme\',\'Smoothness\')\n    powerTable.dtfeatures["sScrollY"] = "100%"\n    powerTable.dtfeatures["sScrollX"] = "100%"\n    powerTable.dtfeatures[\'sPaginationType\'] = \'full_numbers\'\n    powerTable.dtfeatures["iDisplayLength"] = 20\n        \n    mystep = [dict(title=\'NUEVOS ARTICULOS\',Legend=\'Ingrese los datos del articulo\',\n                   fields=[\'descripcion\',\'memo\',\'iva\',\'precio\',\'categoria\'])]\n    from plugin_PowerFormWizard import PowerFormWizard\n    options = {\'description\':False,\'legend\':True,\'validate\':True}\n    form = PowerFormWizard(db.articulo, steps=mystep, options=options)\n    \n    if form.accepts(request.vars, session):\n        response.flash = "registro aceptado"\n    elif form.errors:\n        form.step_validation()\n        response.flash = "error en los datos"\n    return dict( table=powerTable.create(),form=form)\n\n\ndef features():\n    from plugin_PowerGrid.CallBack import CallBack        \n    return CallBack(db.movimientos.id>0 and db.movimientos.fecha_devuelta==None)\n\n@auth.requires(auth.has_membership(role=\'Admin\'))   \ndef presupuestos():\n            \n    #datasource = db(db.movimientos.id>0).select()\n    #powerTable = plugins.powerTable\n    #powerTable.datasource = datasource\n    #powerTable.headers = \'labels\'\n    #powerTable.showkeycolumn = False\n    #powerTable.dtfeatures[\'bJQueryUI\'] = request.vars.get(\'jqueryui\',True)\n    #powerTable.uitheme = request.vars.get(\'theme\',\'Smoothness\')\n    #powerTable.dtfeatures[\'sScrollX\'] = \'100%\'\n    #powerTable.dtfeatures[\'sPaginationType\'] = request.vars.get(\'pager\',\'scrolling\')\n    #powerTable.extrajs = dict(autoresize={},\n                               #tooltip={},\n                               #)\n    #response.view = \'default/index.html\'\n    from plugin_PowerGrid.PowerGrid import PowerGrid\n    p = PowerGrid(\n                  callback=URL(\'default\',\'features\', extension=\'json\'),\n                  buttons=[\n                            #(\'details\',URL(\'plugin_PowerGrid\',\'data\',args=[\'read\',\'products\'])+\'/${id}\',\'_blank\',\'Details of Record ${id}\',\'modal positive left button\',\'magnifier\',[600,500]),\n                            (\'prueba\',URL(\'plugin_PowerGrid\',\'data\',args=\'/${id}\',\'_blank\',\'Details of Record ${id}\',\'modal positive left button\',\'magnifier\',[600,500]),\n                            (\'cargar comprobante\',URL(\'plugin_PowerGrid\',\'data\',args=[\'update\',\'movimientos\'])+\'/${id}\',\'_blank\',\'Editando Registro ${id}\',\'refreshmodal middle button\', \'pen\',[600,800]),\n                            #(\'delete\',URL(\'plugin_PowerGrid\',\'data\',args=[\'delete\',\'products\'])+\'/${id}\',\'_blank\',\'Are you sure you want to delete record ${id}\',\'confirmationmodal right negative button\', \'cross\'),\n                            #(\'google\',\'http://www.google.com/#hl=en-US&source=hp&q=${name}\',\'_blank\',\'Googling for ${name}\',\'modal right button\', \'pin\',[900,600]),\n                         ],\n                  addurl=URL(\'plugin_PowerGrid\',\'data\',args=[\'create\',\'features\']), \n                  addLabel=\'Add New Record\',   \n                  addTitle=\'You are adding a new record\',              \n                  headers=[[\'id\',\'Codigo\'],[\'entregado_x\',\'Entrega: \'], [\'retirado_x\',\'Retira\'],\n                           ],\n                  \n                  #headers=[[\'entregado_x\',\'Entrega: \'], [\'retirado_x\',\'Retira\'], [\'id_articulo\',\'Articulo\'],[\'cantidad\',\'Cantidad\'],\n                           #[\'cliente\',\'Usado en\']],\n                  #hidecontrolbuttons=True,\n                  #hiderefreshbutton=True,\n                  hideaddbutton=True,\n                  #_id="banana",\n                  #target="melancia",\n                  #searchBy=\'equal\',\n                  minH=800,\n                  options=dict(#colsWidth=[60,60,60],\n                               #width=700,\n                               #buttonBackTitle=\'Back\',\n                               #buttonMax=4,\n                               #buttonNextTitle=\'Next\',\n                               #success="""js[function(){alert(\'Executed on success\');}]js""",\n                               #before="""js[function(){alert(\'Executed before\');}]js""",\n                               #error="""js[function(){alert(\'Executed on load error\');}]js""",\n                               #buttonOption=False,\n                               #buttonsWidth=200\n                               #buttonTitle=\'oi\',\n                               #clickFx=False,\n                               #debug=True,\n                               #find=\'name\',search=\'J\',\n                               #searchOption=False,\n                               searchButtonLabel=\'Buscar\',\n                               searchButtonTitle=\'Clique para buscar\',\n                               searchFocus=True,\n                               #cache=True,\n                               #contentType=\'application/x-www-form-urlencoded; charset=utf-8\',\n                               #type=\'get\',\n                               #dataType=\'jsonp\',\n                               #jsonp=True,\n                               #jsonpCallback=\'callback\',\n                               #findsName=[[\'name\',\'name\']],\n                               #hoverFx=False,\n                               #loadingOption=True,\n                               #loadingText=\'Carregando...\',\n                               #messageOption=False,\n                               #noResultOption=False,\n                               noResultText=\'no se encontraron datos \',\n                               #page=1,\n                               #rows=3,\n                               #rowsNumber=[3,25],\n                               #params=\'&blablabla=45\',\n                               #resize=False,\n                               #resultOption=False,\n                               #resultText= \'Exibindo {from} - {to} de {total} registros\',\n                               #scroll=True,height=100,\n                               #searchText=\'Busque aqui\',\n                               #sortName=\'name\',\n                               #sortOrder=\'asc\',\n                               #template=\'template\',\n                               #templateStyle=\'blabla\',\n\n\n\n                                   ),\n                  )\n\n    return dict(p=p)\n\n        \n    \n    #return dict(table=powerTable.create())\n    \n\n@auth.requires_login()\ndef presupuestos2():\n            \n    datasource = db(db.movimientos.id>0).select()\n    powerTable = plugins.powerTable\n    powerTable.datasource = datasource\n    powerTable.headers = \'labels\'\n    powerTable.showkeycolumn = True\n    powerTable.dtfeatures[\'bJQueryUI\'] = request.vars.get(\'jqueryui\',True)\n    powerTable.uitheme = request.vars.get(\'theme\',\'Smoothness\')\n    powerTable.dtfeatures[\'sScrollX\'] = \'100%\'\n    powerTable.dtfeatures[\'sPaginationType\'] = request.vars.get(\'pager\',\'scrolling\')\n    powerTable.extrajs = dict(autoresize={},\n                               tooltip={},\n                               )\n    \n    return dict(table=powerTable.create())\n\n@auth.requires(auth.has_membership(role=\'Admin\'))  \ndef movimientos():\n    mystep = [dict(title=\'MOVIMIENTOS\',Legend=\'Ingrese los datos solicitados\',\n                   fields=[\'entregado_x\',\'retirado_x\',\'id_articulo\',\'cantidad\',\n                           \'estado\',\'Comprobante\',\n                           \'cliente\'])]\n    from plugin_PowerFormWizard import PowerFormWizard\n    options = {\'description\':False,\'legend\':True,\'validate\':True}\n    form = PowerFormWizard(db.movimientos, steps=mystep, options=options)\n    \n    if form.accepts(request.vars, session):\n        response.flash = "registro aceptado"\n        rows = db(db.movimientos.id>0).select()\n        last_row = rows.last()\n        a=db.memomovi.insert(referencia=last_row.id,entregado_x=last_row.entregado_x,\n                             retirado_x=last_row.retirado_x,id_articulo=last_row.id_articulo,\n                             cantidad=last_row.cantidad,fecha_pedido=last_row.fecha_pedido,\n                             fecha_devuelta=last_row.fecha_devuelta,estado=last_row.estado,\n                             Comprobante=last_row.Comprobante,cliente=last_row.cliente)\n        db.commit()\n    elif form.errors:\n        form.step_validation()\n        response.flash = "error en los datos"\n    return dict(form=form)\nresponse._vars=response._caller(user)\n'
p7
sS'snapshot'
p8
(dp9
S'exception'
p10
(dp11
S'__getslice__'
p12
S"<method-wrapper '__getslice__' of exceptions.SyntaxError object>"
p13
sS'text'
p14
S"'                         ],\\n'"
p15
sS'__str__'
p16
S"<method-wrapper '__str__' of exceptions.SyntaxError object>"
p17
sS'__reduce__'
p18
S'<built-in method __reduce__ of exceptions.SyntaxError object>'
p19
sS'__dict__'
p20
S'{}'
p21
sS'__sizeof__'
p22
S'<built-in method __sizeof__ of exceptions.SyntaxError object>'
p23
sS'__init__'
p24
S"<method-wrapper '__init__' of exceptions.SyntaxError object>"
p25
sS'__setattr__'
p26
S"<method-wrapper '__setattr__' of exceptions.SyntaxError object>"
p27
sS'__reduce_ex__'
p28
S'<built-in method __reduce_ex__ of exceptions.SyntaxError object>'
p29
sS'__new__'
p30
S'<built-in method __new__ of type object>'
p31
sS'__format__'
p32
S'<built-in method __format__ of exceptions.SyntaxError object>'
p33
sS'__class__'
p34
S"<type 'exceptions.SyntaxError'>"
p35
sS'filename'
p36
S"r'c:\\Users\\Jorge\\Downloads\\web2py_src\\web2py\\applications\\init\\controllers/default.py'"
p37
sS'lineno'
p38
S'162'
p39
sS'msg'
p40
S"'invalid syntax'"
p41
sS'__doc__'
p42
S"'Invalid syntax.'"
p43
sS'__getitem__'
p44
S"<method-wrapper '__getitem__' of exceptions.SyntaxError object>"
p45
sS'__setstate__'
p46
S'<built-in method __setstate__ of exceptions.SyntaxError object>'
p47
sS'__getattribute__'
p48
S"<method-wrapper '__getattribute__' of exceptions.SyntaxError object>"
p49
sS'print_file_and_line'
p50
S'None'
p51
sS'args'
p52
S"('invalid syntax', (r'c:\\Users\\Jorge\\Downloads\\web2py_src\\web2py\\applications\\init\\controllers/default.py', 162, 26, '                         ],\\n'))"
p53
sS'__subclasshook__'
p54
S'<built-in method __subclasshook__ of type object>'
p55
sS'offset'
p56
S'26'
p57
sS'__unicode__'
p58
S'<built-in method __unicode__ of exceptions.SyntaxError object>'
p59
sS'__delattr__'
p60
S"<method-wrapper '__delattr__' of exceptions.SyntaxError object>"
p61
sS'__repr__'
p62
S"<method-wrapper '__repr__' of exceptions.SyntaxError object>"
p63
sS'__hash__'
p64
S"<method-wrapper '__hash__' of exceptions.SyntaxError object>"
p65
ssS'evalue'
p66
S'invalid syntax (controllers/default.py, line 162)'
p67
sS'request'
p68
ccopy_reg
_reconstructor
p69
(cgluon.html
BEAUTIFY
p70
c__builtin__
object
p71
NtRp72
(dp73
S'attributes'
p74
(dp75
sS'components'
p76
(lp77
g69
(cgluon.html
TABLE
p78
g71
NtRp79
(dp80
g74
(dp81
S'level'
p82
I5
ssS'parent'
p83
Nsg76
(lp84
g69
(cgluon.html
TR
p85
g71
NtRp86
(dp87
g74
(dp88
sg83
g79
sg76
(lp89
g69
(cgluon.html
TD
p90
g71
NtRp91
(dp92
g74
(dp93
S'_style'
p94
S'font-weight:bold;vertical-align:top'
p95
ssg83
g86
sg76
(lp96
S'ajax'
p97
asbag69
(g90
g71
NtRp98
(dp99
g74
(dp100
S'_valign'
p101
S'top'
p102
ssg83
g86
sg76
(lp103
S':'
asbag69
(g90
g71
NtRp104
(dp105
g74
(dp106
sg83
g86
sg76
(lp107
g69
(g70
g71
NtRp108
(dp109
g74
(dp110
g82
I5
ssg83
g104
sg76
(lp111
S'False'
p112
asbasbasbag69
(g85
g71
NtRp113
(dp114
g74
(dp115
sg83
g79
sg76
(lp116
g69
(g90
g71
NtRp117
(dp118
g74
(dp119
g94
g95
ssg83
g113
sg76
(lp120
S'application'
p121
asbag69
(g90
g71
NtRp122
(dp123
g74
(dp124
g101
g102
ssg83
g113
sg76
(lp125
S':'
asbag69
(g90
g71
NtRp126
(dp127
g74
(dp128
sg83
g113
sg76
(lp129
g69
(g70
g71
NtRp130
(dp131
g74
(dp132
g82
I5
ssg83
g126
sg76
(lp133
S'init'
p134
asbasbasbag69
(g85
g71
NtRp135
(dp136
g74
(dp137
sg83
g79
sg76
(lp138
g69
(g90
g71
NtRp139
(dp140
g74
(dp141
g94
g95
ssg83
g135
sg76
(lp142
g52
asbag69
(g90
g71
NtRp143
(dp144
g74
(dp145
g101
g102
ssg83
g135
sg76
(lp146
S':'
asbag69
(g90
g71
NtRp147
(dp148
g74
(dp149
sg83
g135
sg76
(lp150
g69
(g70
g71
NtRp151
(dp152
g74
(dp153
g82
I5
ssg83
g147
sg76
(lp154
g69
(g78
g71
NtRp155
(dp156
g74
(dp157
g82
I4
ssg83
Nsg76
(lp158
g69
(g85
g71
NtRp159
(dp160
g74
(dp161
sg83
g155
sg76
(lp162
g69
(g90
g71
NtRp163
(dp164
g74
(dp165
sg83
g159
sg76
(lp166
g69
(g70
g71
NtRp167
(dp168
g74
(dp169
g82
I4
ssg83
g163
sg76
(lp170
S'login'
p171
asbasbasbasbasbasbasbag69
(g85
g71
NtRp172
(dp173
g74
(dp174
sg83
g79
sg76
(lp175
g69
(g90
g71
NtRp176
(dp177
g74
(dp178
g94
g95
ssg83
g172
sg76
(lp179
S'body'
p180
asbag69
(g90
g71
NtRp181
(dp182
g74
(dp183
g101
g102
ssg83
g172
sg76
(lp184
S':'
asbag69
(g90
g71
NtRp185
(dp186
g74
(dp187
sg83
g172
sg76
(lp188
g69
(g70
g71
NtRp189
(dp190
g74
(dp191
g82
I5
ssg83
g185
sg76
(lp192
S'<cStringIO.StringO object at 0x00000000096DF1F0>'
p193
asbasbasbag69
(g85
g71
NtRp194
(dp195
g74
(dp196
sg83
g79
sg76
(lp197
g69
(g90
g71
NtRp198
(dp199
g74
(dp200
g94
g95
ssg83
g194
sg76
(lp201
S'client'
p202
asbag69
(g90
g71
NtRp203
(dp204
g74
(dp205
g101
g102
ssg83
g194
sg76
(lp206
S':'
asbag69
(g90
g71
NtRp207
(dp208
g74
(dp209
sg83
g194
sg76
(lp210
g69
(g70
g71
NtRp211
(dp212
g74
(dp213
g82
I5
ssg83
g207
sg76
(lp214
S'127.0.0.1'
p215
asbasbasbag69
(g85
g71
NtRp216
(dp217
g74
(dp218
sg83
g79
sg76
(lp219
g69
(g90
g71
NtRp220
(dp221
g74
(dp222
g94
g95
ssg83
g216
sg76
(lp223
S'controller'
p224
asbag69
(g90
g71
NtRp225
(dp226
g74
(dp227
g101
g102
ssg83
g216
sg76
(lp228
S':'
asbag69
(g90
g71
NtRp229
(dp230
g74
(dp231
sg83
g216
sg76
(lp232
g69
(g70
g71
NtRp233
(dp234
g74
(dp235
g82
I5
ssg83
g229
sg76
(lp236
S'default'
p237
asbasbasbag69
(g85
g71
NtRp238
(dp239
g74
(dp240
sg83
g79
sg76
(lp241
g69
(g90
g71
NtRp242
(dp243
g74
(dp244
g94
g95
ssg83
g238
sg76
(lp245
S'cookies'
p246
asbag69
(g90
g71
NtRp247
(dp248
g74
(dp249
g101
g102
ssg83
g238
sg76
(lp250
S':'
asbag69
(g90
g71
NtRp251
(dp252
g74
(dp253
sg83
g238
sg76
(lp254
g69
(g70
g71
NtRp255
(dp256
g74
(dp257
g82
I5
ssg83
g251
sg76
(lp258
g69
(g78
g71
NtRp259
(dp260
g74
(dp261
g82
I4
ssg83
Nsg76
(lp262
g69
(g85
g71
NtRp263
(dp264
g74
(dp265
sg83
g259
sg76
(lp266
g69
(g90
g71
NtRp267
(dp268
g74
(dp269
g94
g95
ssg83
g263
sg76
(lp270
S'session_id_init'
p271
asbag69
(g90
g71
NtRp272
(dp273
g74
(dp274
g101
g102
ssg83
g263
sg76
(lp275
S':'
asbag69
(g90
g71
NtRp276
(dp277
g74
(dp278
sg83
g263
sg76
(lp279
g69
(g70
g71
NtRp280
(dp281
g74
(dp282
g82
I4
ssg83
g276
sg76
(lp283
g69
(g78
g71
NtRp284
(dp285
g74
(dp286
g82
I3
ssg83
Nsg76
(lp287
g69
(g85
g71
NtRp288
(dp289
g74
(dp290
sg83
g284
sg76
(lp291
g69
(g90
g71
NtRp292
(dp293
g74
(dp294
g94
g95
ssg83
g288
sg76
(lp295
S'comment'
p296
asbag69
(g90
g71
NtRp297
(dp298
g74
(dp299
g101
g102
ssg83
g288
sg76
(lp300
S':'
asbag69
(g90
g71
NtRp301
(dp302
g74
(dp303
sg83
g288
sg76
(lp304
g69
(g70
g71
NtRp305
(dp306
g74
(dp307
g82
I3
ssg83
g301
sg76
(lp308
S''
asbasbasbag69
(g85
g71
NtRp309
(dp310
g74
(dp311
sg83
g284
sg76
(lp312
g69
(g90
g71
NtRp313
(dp314
g74
(dp315
g94
g95
ssg83
g309
sg76
(lp316
S'domain'
p317
asbag69
(g90
g71
NtRp318
(dp319
g74
(dp320
g101
g102
ssg83
g309
sg76
(lp321
S':'
asbag69
(g90
g71
NtRp322
(dp323
g74
(dp324
sg83
g309
sg76
(lp325
g69
(g70
g71
NtRp326
(dp327
g74
(dp328
g82
I3
ssg83
g322
sg76
(lp329
S''
asbasbasbag69
(g85
g71
NtRp330
(dp331
g74
(dp332
sg83
g284
sg76
(lp333
g69
(g90
g71
NtRp334
(dp335
g74
(dp336
g94
g95
ssg83
g330
sg76
(lp337
S'expires'
p338
asbag69
(g90
g71
NtRp339
(dp340
g74
(dp341
g101
g102
ssg83
g330
sg76
(lp342
S':'
asbag69
(g90
g71
NtRp343
(dp344
g74
(dp345
sg83
g330
sg76
(lp346
g69
(g70
g71
NtRp347
(dp348
g74
(dp349
g82
I3
ssg83
g343
sg76
(lp350
S''
asbasbasbag69
(g85
g71
NtRp351
(dp352
g74
(dp353
sg83
g284
sg76
(lp354
g69
(g90
g71
NtRp355
(dp356
g74
(dp357
g94
g95
ssg83
g351
sg76
(lp358
S'httponly'
p359
asbag69
(g90
g71
NtRp360
(dp361
g74
(dp362
g101
g102
ssg83
g351
sg76
(lp363
S':'
asbag69
(g90
g71
NtRp364
(dp365
g74
(dp366
sg83
g351
sg76
(lp367
g69
(g70
g71
NtRp368
(dp369
g74
(dp370
g82
I3
ssg83
g364
sg76
(lp371
S''
asbasbasbag69
(g85
g71
NtRp372
(dp373
g74
(dp374
sg83
g284
sg76
(lp375
g69
(g90
g71
NtRp376
(dp377
g74
(dp378
g94
g95
ssg83
g372
sg76
(lp379
S'max-age'
p380
asbag69
(g90
g71
NtRp381
(dp382
g74
(dp383
g101
g102
ssg83
g372
sg76
(lp384
S':'
asbag69
(g90
g71
NtRp385
(dp386
g74
(dp387
sg83
g372
sg76
(lp388
g69
(g70
g71
NtRp389
(dp390
g74
(dp391
g82
I3
ssg83
g385
sg76
(lp392
S''
asbasbasbag69
(g85
g71
NtRp393
(dp394
g74
(dp395
sg83
g284
sg76
(lp396
g69
(g90
g71
NtRp397
(dp398
g74
(dp399
g94
g95
ssg83
g393
sg76
(lp400
S'path'
p401
asbag69
(g90
g71
NtRp402
(dp403
g74
(dp404
g101
g102
ssg83
g393
sg76
(lp405
S':'
asbag69
(g90
g71
NtRp406
(dp407
g74
(dp408
sg83
g393
sg76
(lp409
g69
(g70
g71
NtRp410
(dp411
g74
(dp412
g82
I3
ssg83
g406
sg76
(lp413
S''
asbasbasbag69
(g85
g71
NtRp414
(dp415
g74
(dp416
sg83
g284
sg76
(lp417
g69
(g90
g71
NtRp418
(dp419
g74
(dp420
g94
g95
ssg83
g414
sg76
(lp421
S'secure'
p422
asbag69
(g90
g71
NtRp423
(dp424
g74
(dp425
g101
g102
ssg83
g414
sg76
(lp426
S':'
asbag69
(g90
g71
NtRp427
(dp428
g74
(dp429
sg83
g414
sg76
(lp430
g69
(g70
g71
NtRp431
(dp432
g74
(dp433
g82
I3
ssg83
g427
sg76
(lp434
S''
asbasbasbag69
(g85
g71
NtRp435
(dp436
g74
(dp437
sg83
g284
sg76
(lp438
g69
(g90
g71
NtRp439
(dp440
g74
(dp441
g94
g95
ssg83
g435
sg76
(lp442
S'version'
p443
asbag69
(g90
g71
NtRp444
(dp445
g74
(dp446
g101
g102
ssg83
g435
sg76
(lp447
S':'
asbag69
(g90
g71
NtRp448
(dp449
g74
(dp450
sg83
g435
sg76
(lp451
g69
(g70
g71
NtRp452
(dp453
g74
(dp454
g82
I3
ssg83
g448
sg76
(lp455
S''
asbasbasbasbasbasbasbasbasbasbasbag69
(g85
g71
NtRp456
(dp457
g74
(dp458
sg83
g79
sg76
(lp459
g69
(g90
g71
NtRp460
(dp461
g74
(dp462
g94
g95
ssg83
g456
sg76
(lp463
S'env'
p464
asbag69
(g90
g71
NtRp465
(dp466
g74
(dp467
g101
g102
ssg83
g456
sg76
(lp468
S':'
asbag69
(g90
g71
NtRp469
(dp470
g74
(dp471
sg83
g456
sg76
(lp472
g69
(g70
g71
NtRp473
(dp474
g74
(dp475
g82
I5
ssg83
g469
sg76
(lp476
g69
(g78
g71
NtRp477
(dp478
g74
(dp479
g82
I4
ssg83
Nsg76
(lp480
g69
(g85
g71
NtRp481
(dp482
g74
(dp483
sg83
g477
sg76
(lp484
g69
(g90
g71
NtRp485
(dp486
g74
(dp487
g94
g95
ssg83
g481
sg76
(lp488
S'app_folders'
p489
asbag69
(g90
g71
NtRp490
(dp491
g74
(dp492
g101
g102
ssg83
g481
sg76
(lp493
S':'
asbag69
(g90
g71
NtRp494
(dp495
g74
(dp496
sg83
g481
sg76
(lp497
g69
(g70
g71
NtRp498
(dp499
g74
(dp500
g82
I4
ssg83
g494
sg76
(lp501
S"set(['c:\\\\Users\\\\Jorge\\\\Downloads\\\\web2py_src\\\\web2py\\\\applications\\\\init\\\\'])"
p502
asbasbasbag69
(g85
g71
NtRp503
(dp504
g74
(dp505
sg83
g477
sg76
(lp506
g69
(g90
g71
NtRp507
(dp508
g74
(dp509
g94
g95
ssg83
g503
sg76
(lp510
S'applications_parent'
p511
asbag69
(g90
g71
NtRp512
(dp513
g74
(dp514
g101
g102
ssg83
g503
sg76
(lp515
S':'
asbag69
(g90
g71
NtRp516
(dp517
g74
(dp518
sg83
g503
sg76
(lp519
g69
(g70
g71
NtRp520
(dp521
g74
(dp522
g82
I4
ssg83
g516
sg76
(lp523
S'c:\\Users\\Jorge\\Downloads\\web2py_src\\web2py'
p524
asbasbasbag69
(g85
g71
NtRp525
(dp526
g74
(dp527
sg83
g477
sg76
(lp528
g69
(g90
g71
NtRp529
(dp530
g74
(dp531
g94
g95
ssg83
g525
sg76
(lp532
S'cmd_args'
p533
asbag69
(g90
g71
NtRp534
(dp535
g74
(dp536
g101
g102
ssg83
g525
sg76
(lp537
S':'
asbag69
(g90
g71
NtRp538
(dp539
g74
(dp540
sg83
g525
sg76
(lp541
g69
(g70
g71
NtRp542
(dp543
g74
(dp544
g82
I4
ssg83
g538
sg76
(lp545
g69
(g78
g71
NtRp546
(dp547
g74
(dp548
g82
I3
ssg83
Nsg76
(lp549
sbasbasbasbag69
(g85
g71
NtRp550
(dp551
g74
(dp552
sg83
g477
sg76
(lp553
g69
(g90
g71
NtRp554
(dp555
g74
(dp556
g94
g95
ssg83
g550
sg76
(lp557
S'cmd_options'
p558
asbag69
(g90
g71
NtRp559
(dp560
g74
(dp561
g101
g102
ssg83
g550
sg76
(lp562
S':'
asbag69
(g90
g71
NtRp563
(dp564
g74
(dp565
sg83
g550
sg76
(lp566
g69
(g70
g71
NtRp567
(dp568
g74
(dp569
g82
I4
ssg83
g563
sg76
(lp570
S"<Values at 0x3d817c8: {'verbose': False, 'ip': '127.0.0.1', 'shutdown_timeout': 5, 'taskbar': False, 'nocron': False, 'pid_filename': 'httpserver.pid', 'maxthreads': None, 'softcron': False, 'server_name': 'Jorge-PC', 'bpython': False, 'nogui': False, 'port': 8000, 'extcron': False, 'debuglevel': 30, 'test': None, 'folder': 'c:\\\\Users\\\\Jorge\\\\Downloads\\\\web2py_src\\\\web2py', 'config': '', 'import_models': False, 'winservice': '', 'shell': None, 'run': '', 'log_filename': 'httpserver.log', 'args': [''], 'socket_timeout': 5, 'ssl_ca_certificate': None, 'scheduler': None, 'profiler_filename': None, 'ssl_private_key': '', 'password': '<ask>', 'request_queue_size': 5, 'ssl_certificate': '', 'cronjob': False, 'numthreads': None, 'quiet': False, 'interfaces': None, 'minthreads': None, 'timeout': 10, 'plain': False, 'nobanner': False}>"
p571
asbasbasbag69
(g85
g71
NtRp572
(dp573
g74
(dp574
sg83
g477
sg76
(lp575
g69
(g90
g71
NtRp576
(dp577
g74
(dp578
g94
g95
ssg83
g572
sg76
(lp579
S'db_sessions'
p580
asbag69
(g90
g71
NtRp581
(dp582
g74
(dp583
g101
g102
ssg83
g572
sg76
(lp584
S':'
asbag69
(g90
g71
NtRp585
(dp586
g74
(dp587
sg83
g572
sg76
(lp588
g69
(g70
g71
NtRp589
(dp590
g74
(dp591
g82
I4
ssg83
g585
sg76
(lp592
S'set([])'
p593
asbasbasbag69
(g85
g71
NtRp594
(dp595
g74
(dp596
sg83
g477
sg76
(lp597
g69
(g90
g71
NtRp598
(dp599
g74
(dp600
g94
g95
ssg83
g594
sg76
(lp601
S'debugging'
p602
asbag69
(g90
g71
NtRp603
(dp604
g74
(dp605
g101
g102
ssg83
g594
sg76
(lp606
S':'
asbag69
(g90
g71
NtRp607
(dp608
g74
(dp609
sg83
g594
sg76
(lp610
g69
(g70
g71
NtRp611
(dp612
g74
(dp613
g82
I4
ssg83
g607
sg76
(lp614
g112
asbasbasbag69
(g85
g71
NtRp615
(dp616
g74
(dp617
sg83
g477
sg76
(lp618
g69
(g90
g71
NtRp619
(dp620
g74
(dp621
g94
g95
ssg83
g615
sg76
(lp622
S'gluon_parent'
p623
asbag69
(g90
g71
NtRp624
(dp625
g74
(dp626
g101
g102
ssg83
g615
sg76
(lp627
S':'
asbag69
(g90
g71
NtRp628
(dp629
g74
(dp630
sg83
g615
sg76
(lp631
g69
(g70
g71
NtRp632
(dp633
g74
(dp634
g82
I4
ssg83
g628
sg76
(lp635
S'c:\\Users\\Jorge\\Downloads\\web2py_src\\web2py'
p636
asbasbasbag69
(g85
g71
NtRp637
(dp638
g74
(dp639
sg83
g477
sg76
(lp640
g69
(g90
g71
NtRp641
(dp642
g74
(dp643
g94
g95
ssg83
g637
sg76
(lp644
S'http_accept'
p645
asbag69
(g90
g71
NtRp646
(dp647
g74
(dp648
g101
g102
ssg83
g637
sg76
(lp649
S':'
asbag69
(g90
g71
NtRp650
(dp651
g74
(dp652
sg83
g637
sg76
(lp653
g69
(g70
g71
NtRp654
(dp655
g74
(dp656
g82
I4
ssg83
g650
sg76
(lp657
S'text/html,application/xhtml+xml,application/xml;q=0.9,*/*;q=0.8'
p658
asbasbasbag69
(g85
g71
NtRp659
(dp660
g74
(dp661
sg83
g477
sg76
(lp662
g69
(g90
g71
NtRp663
(dp664
g74
(dp665
g94
g95
ssg83
g659
sg76
(lp666
S'http_accept_encoding'
p667
asbag69
(g90
g71
NtRp668
(dp669
g74
(dp670
g101
g102
ssg83
g659
sg76
(lp671
S':'
asbag69
(g90
g71
NtRp672
(dp673
g74
(dp674
sg83
g659
sg76
(lp675
g69
(g70
g71
NtRp676
(dp677
g74
(dp678
g82
I4
ssg83
g672
sg76
(lp679
S'gzip, deflate'
p680
asbasbasbag69
(g85
g71
NtRp681
(dp682
g74
(dp683
sg83
g477
sg76
(lp684
g69
(g90
g71
NtRp685
(dp686
g74
(dp687
g94
g95
ssg83
g681
sg76
(lp688
S'http_accept_language'
p689
asbag69
(g90
g71
NtRp690
(dp691
g74
(dp692
g101
g102
ssg83
g681
sg76
(lp693
S':'
asbag69
(g90
g71
NtRp694
(dp695
g74
(dp696
sg83
g681
sg76
(lp697
g69
(g70
g71
NtRp698
(dp699
g74
(dp700
g82
I4
ssg83
g694
sg76
(lp701
S'es-es,es;q=0.8,en-us;q=0.5,en;q=0.3'
p702
asbasbasbag69
(g85
g71
NtRp703
(dp704
g74
(dp705
sg83
g477
sg76
(lp706
g69
(g90
g71
NtRp707
(dp708
g74
(dp709
g94
g95
ssg83
g703
sg76
(lp710
S'http_connection'
p711
asbag69
(g90
g71
NtRp712
(dp713
g74
(dp714
g101
g102
ssg83
g703
sg76
(lp715
S':'
asbag69
(g90
g71
NtRp716
(dp717
g74
(dp718
sg83
g703
sg76
(lp719
g69
(g70
g71
NtRp720
(dp721
g74
(dp722
g82
I4
ssg83
g716
sg76
(lp723
S'keep-alive'
p724
asbasbasbag69
(g85
g71
NtRp725
(dp726
g74
(dp727
sg83
g477
sg76
(lp728
g69
(g90
g71
NtRp729
(dp730
g74
(dp731
g94
g95
ssg83
g725
sg76
(lp732
S'http_cookie'
p733
asbag69
(g90
g71
NtRp734
(dp735
g74
(dp736
g101
g102
ssg83
g725
sg76
(lp737
S':'
asbag69
(g90
g71
NtRp738
(dp739
g74
(dp740
sg83
g725
sg76
(lp741
g69
(g70
g71
NtRp742
(dp743
g74
(dp744
g82
I4
ssg83
g738
sg76
(lp745
S'session_id_init=127.0.0.1-66e156be-9dc8-4ace-8e89-ad9e90c7093a'
p746
asbasbasbag69
(g85
g71
NtRp747
(dp748
g74
(dp749
sg83
g477
sg76
(lp750
g69
(g90
g71
NtRp751
(dp752
g74
(dp753
g94
g95
ssg83
g747
sg76
(lp754
S'http_host'
p755
asbag69
(g90
g71
NtRp756
(dp757
g74
(dp758
g101
g102
ssg83
g747
sg76
(lp759
S':'
asbag69
(g90
g71
NtRp760
(dp761
g74
(dp762
sg83
g747
sg76
(lp763
g69
(g70
g71
NtRp764
(dp765
g74
(dp766
g82
I4
ssg83
g760
sg76
(lp767
S'127.0.0.1:8000'
p768
asbasbasbag69
(g85
g71
NtRp769
(dp770
g74
(dp771
sg83
g477
sg76
(lp772
g69
(g90
g71
NtRp773
(dp774
g74
(dp775
g94
g95
ssg83
g769
sg76
(lp776
S'http_referer'
p777
asbag69
(g90
g71
NtRp778
(dp779
g74
(dp780
g101
g102
ssg83
g769
sg76
(lp781
S':'
asbag69
(g90
g71
NtRp782
(dp783
g74
(dp784
sg83
g769
sg76
(lp785
g69
(g70
g71
NtRp786
(dp787
g74
(dp788
g82
I4
ssg83
g782
sg76
(lp789
S'http://127.0.0.1:8000/'
p790
asbasbasbag69
(g85
g71
NtRp791
(dp792
g74
(dp793
sg83
g477
sg76
(lp794
g69
(g90
g71
NtRp795
(dp796
g74
(dp797
g94
g95
ssg83
g791
sg76
(lp798
S'http_user_agent'
p799
asbag69
(g90
g71
NtRp800
(dp801
g74
(dp802
g101
g102
ssg83
g791
sg76
(lp803
S':'
asbag69
(g90
g71
NtRp804
(dp805
g74
(dp806
sg83
g791
sg76
(lp807
g69
(g70
g71
NtRp808
(dp809
g74
(dp810
g82
I4
ssg83
g804
sg76
(lp811
S'Mozilla/5.0 (Windows NT 6.1; WOW64; rv:11.0) Gecko/20100101 Firefox/11.0'
p812
asbasbasbag69
(g85
g71
NtRp813
(dp814
g74
(dp815
sg83
g477
sg76
(lp816
g69
(g90
g71
NtRp817
(dp818
g74
(dp819
g94
g95
ssg83
g813
sg76
(lp820
S'is_jython'
p821
asbag69
(g90
g71
NtRp822
(dp823
g74
(dp824
g101
g102
ssg83
g813
sg76
(lp825
S':'
asbag69
(g90
g71
NtRp826
(dp827
g74
(dp828
sg83
g813
sg76
(lp829
g69
(g70
g71
NtRp830
(dp831
g74
(dp832
g82
I4
ssg83
g826
sg76
(lp833
g112
asbasbasbag69
(g85
g71
NtRp834
(dp835
g74
(dp836
sg83
g477
sg76
(lp837
g69
(g90
g71
NtRp838
(dp839
g74
(dp840
g94
g95
ssg83
g834
sg76
(lp841
S'is_pypy'
p842
asbag69
(g90
g71
NtRp843
(dp844
g74
(dp845
g101
g102
ssg83
g834
sg76
(lp846
S':'
asbag69
(g90
g71
NtRp847
(dp848
g74
(dp849
sg83
g834
sg76
(lp850
g69
(g70
g71
NtRp851
(dp852
g74
(dp853
g82
I4
ssg83
g847
sg76
(lp854
g112
asbasbasbag69
(g85
g71
NtRp855
(dp856
g74
(dp857
sg83
g477
sg76
(lp858
g69
(g90
g71
NtRp859
(dp860
g74
(dp861
g94
g95
ssg83
g855
sg76
(lp862
S'path_info'
p863
asbag69
(g90
g71
NtRp864
(dp865
g74
(dp866
g101
g102
ssg83
g855
sg76
(lp867
S':'
asbag69
(g90
g71
NtRp868
(dp869
g74
(dp870
sg83
g855
sg76
(lp871
g69
(g70
g71
NtRp872
(dp873
g74
(dp874
g82
I4
ssg83
g868
sg76
(lp875
S'/init/default/user/login'
p876
asbasbasbag69
(g85
g71
NtRp877
(dp878
g74
(dp879
sg83
g477
sg76
(lp880
g69
(g90
g71
NtRp881
(dp882
g74
(dp883
g94
g95
ssg83
g877
sg76
(lp884
S'query_string'
p885
asbag69
(g90
g71
NtRp886
(dp887
g74
(dp888
g101
g102
ssg83
g877
sg76
(lp889
S':'
asbag69
(g90
g71
NtRp890
(dp891
g74
(dp892
sg83
g877
sg76
(lp893
g69
(g70
g71
NtRp894
(dp895
g74
(dp896
g82
I4
ssg83
g890
sg76
(lp897
S'_next=/init/default/index'
p898
asbasbasbag69
(g85
g71
NtRp899
(dp900
g74
(dp901
sg83
g477
sg76
(lp902
g69
(g90
g71
NtRp903
(dp904
g74
(dp905
g94
g95
ssg83
g899
sg76
(lp906
S'remote_addr'
p907
asbag69
(g90
g71
NtRp908
(dp909
g74
(dp910
g101
g102
ssg83
g899
sg76
(lp911
S':'
asbag69
(g90
g71
NtRp912
(dp913
g74
(dp914
sg83
g899
sg76
(lp915
g69
(g70
g71
NtRp916
(dp917
g74
(dp918
g82
I4
ssg83
g912
sg76
(lp919
g215
asbasbasbag69
(g85
g71
NtRp920
(dp921
g74
(dp922
sg83
g477
sg76
(lp923
g69
(g90
g71
NtRp924
(dp925
g74
(dp926
g94
g95
ssg83
g920
sg76
(lp927
S'remote_port'
p928
asbag69
(g90
g71
NtRp929
(dp930
g74
(dp931
g101
g102
ssg83
g920
sg76
(lp932
S':'
asbag69
(g90
g71
NtRp933
(dp934
g74
(dp935
sg83
g920
sg76
(lp936
g69
(g70
g71
NtRp937
(dp938
g74
(dp939
g82
I4
ssg83
g933
sg76
(lp940
S'49470'
p941
asbasbasbag69
(g85
g71
NtRp942
(dp943
g74
(dp944
sg83
g477
sg76
(lp945
g69
(g90
g71
NtRp946
(dp947
g74
(dp948
g94
g95
ssg83
g942
sg76
(lp949
S'request_method'
p950
asbag69
(g90
g71
NtRp951
(dp952
g74
(dp953
g101
g102
ssg83
g942
sg76
(lp954
S':'
asbag69
(g90
g71
NtRp955
(dp956
g74
(dp957
sg83
g942
sg76
(lp958
g69
(g70
g71
NtRp959
(dp960
g74
(dp961
g82
I4
ssg83
g955
sg76
(lp962
S'GET'
p963
asbasbasbag69
(g85
g71
NtRp964
(dp965
g74
(dp966
sg83
g477
sg76
(lp967
g69
(g90
g71
NtRp968
(dp969
g74
(dp970
g94
g95
ssg83
g964
sg76
(lp971
S'script_name'
p972
asbag69
(g90
g71
NtRp973
(dp974
g74
(dp975
g101
g102
ssg83
g964
sg76
(lp976
S':'
asbag69
(g90
g71
NtRp977
(dp978
g74
(dp979
sg83
g964
sg76
(lp980
g69
(g70
g71
NtRp981
(dp982
g74
(dp983
g82
I4
ssg83
g977
sg76
(lp984
S''
asbasbasbag69
(g85
g71
NtRp985
(dp986
g74
(dp987
sg83
g477
sg76
(lp988
g69
(g90
g71
NtRp989
(dp990
g74
(dp991
g94
g95
ssg83
g985
sg76
(lp992
S'server_name'
p993
asbag69
(g90
g71
NtRp994
(dp995
g74
(dp996
g101
g102
ssg83
g985
sg76
(lp997
S':'
asbag69
(g90
g71
NtRp998
(dp999
g74
(dp1000
sg83
g985
sg76
(lp1001
g69
(g70
g71
NtRp1002
(dp1003
g74
(dp1004
g82
I4
ssg83
g998
sg76
(lp1005
S'Jorge-PC'
p1006
asbasbasbag69
(g85
g71
NtRp1007
(dp1008
g74
(dp1009
sg83
g477
sg76
(lp1010
g69
(g90
g71
NtRp1011
(dp1012
g74
(dp1013
g94
g95
ssg83
g1007
sg76
(lp1014
S'server_port'
p1015
asbag69
(g90
g71
NtRp1016
(dp1017
g74
(dp1018
g101
g102
ssg83
g1007
sg76
(lp1019
S':'
asbag69
(g90
g71
NtRp1020
(dp1021
g74
(dp1022
sg83
g1007
sg76
(lp1023
g69
(g70
g71
NtRp1024
(dp1025
g74
(dp1026
g82
I4
ssg83
g1020
sg76
(lp1027
S'8000'
p1028
asbasbasbag69
(g85
g71
NtRp1029
(dp1030
g74
(dp1031
sg83
g477
sg76
(lp1032
g69
(g90
g71
NtRp1033
(dp1034
g74
(dp1035
g94
g95
ssg83
g1029
sg76
(lp1036
S'server_protocol'
p1037
asbag69
(g90
g71
NtRp1038
(dp1039
g74
(dp1040
g101
g102
ssg83
g1029
sg76
(lp1041
S':'
asbag69
(g90
g71
NtRp1042
(dp1043
g74
(dp1044
sg83
g1029
sg76
(lp1045
g69
(g70
g71
NtRp1046
(dp1047
g74
(dp1048
g82
I4
ssg83
g1042
sg76
(lp1049
S'HTTP/1.1'
p1050
asbasbasbag69
(g85
g71
NtRp1051
(dp1052
g74
(dp1053
sg83
g477
sg76
(lp1054
g69
(g90
g71
NtRp1055
(dp1056
g74
(dp1057
g94
g95
ssg83
g1051
sg76
(lp1058
S'server_software'
p1059
asbag69
(g90
g71
NtRp1060
(dp1061
g74
(dp1062
g101
g102
ssg83
g1051
sg76
(lp1063
S':'
asbag69
(g90
g71
NtRp1064
(dp1065
g74
(dp1066
sg83
g1051
sg76
(lp1067
g69
(g70
g71
NtRp1068
(dp1069
g74
(dp1070
g82
I4
ssg83
g1064
sg76
(lp1071
S'Rocket 1.2.4'
p1072
asbasbasbag69
(g85
g71
NtRp1073
(dp1074
g74
(dp1075
sg83
g477
sg76
(lp1076
g69
(g90
g71
NtRp1077
(dp1078
g74
(dp1079
g94
g95
ssg83
g1073
sg76
(lp1080
S'web2py_crontype'
p1081
asbag69
(g90
g71
NtRp1082
(dp1083
g74
(dp1084
g101
g102
ssg83
g1073
sg76
(lp1085
S':'
asbag69
(g90
g71
NtRp1086
(dp1087
g74
(dp1088
sg83
g1073
sg76
(lp1089
g69
(g70
g71
NtRp1090
(dp1091
g74
(dp1092
g82
I4
ssg83
g1086
sg76
(lp1093
S'hard'
p1094
asbasbasbag69
(g85
g71
NtRp1095
(dp1096
g74
(dp1097
sg83
g477
sg76
(lp1098
g69
(g90
g71
NtRp1099
(dp1100
g74
(dp1101
g94
g95
ssg83
g1095
sg76
(lp1102
S'web2py_path'
p1103
asbag69
(g90
g71
NtRp1104
(dp1105
g74
(dp1106
g101
g102
ssg83
g1095
sg76
(lp1107
S':'
asbag69
(g90
g71
NtRp1108
(dp1109
g74
(dp1110
sg83
g1095
sg76
(lp1111
g69
(g70
g71
NtRp1112
(dp1113
g74
(dp1114
g82
I4
ssg83
g1108
sg76
(lp1115
g524
asbasbasbag69
(g85
g71
NtRp1116
(dp1117
g74
(dp1118
sg83
g477
sg76
(lp1119
g69
(g90
g71
NtRp1120
(dp1121
g74
(dp1122
g94
g95
ssg83
g1116
sg76
(lp1123
S'web2py_version'
p1124
asbag69
(g90
g71
NtRp1125
(dp1126
g74
(dp1127
g101
g102
ssg83
g1116
sg76
(lp1128
S':'
asbag69
(g90
g71
NtRp1129
(dp1130
g74
(dp1131
sg83
g1116
sg76
(lp1132
g69
(g70
g71
NtRp1133
(dp1134
g74
(dp1135
g82
I4
ssg83
g1129
sg76
(lp1136
g69
(g78
g71
NtRp1137
(dp1138
g74
(dp1139
g82
I3
ssg83
Nsg76
(lp1140
g69
(g85
g71
NtRp1141
(dp1142
g74
(dp1143
sg83
g1137
sg76
(lp1144
g69
(g90
g71
NtRp1145
(dp1146
g74
(dp1147
sg83
g1141
sg76
(lp1148
g69
(g70
g71
NtRp1149
(dp1150
g74
(dp1151
g82
I3
ssg83
g1145
sg76
(lp1152
S'1'
asbasbasbag69
(g85
g71
NtRp1153
(dp1154
g74
(dp1155
sg83
g1137
sg76
(lp1156
g69
(g90
g71
NtRp1157
(dp1158
g74
(dp1159
sg83
g1153
sg76
(lp1160
g69
(g70
g71
NtRp1161
(dp1162
g74
(dp1163
g82
I3
ssg83
g1157
sg76
(lp1164
S'99'
p1165
asbasbasbag69
(g85
g71
NtRp1166
(dp1167
g74
(dp1168
sg83
g1137
sg76
(lp1169
g69
(g90
g71
NtRp1170
(dp1171
g74
(dp1172
sg83
g1166
sg76
(lp1173
g69
(g70
g71
NtRp1174
(dp1175
g74
(dp1176
g82
I3
ssg83
g1170
sg76
(lp1177
S'7'
asbasbasbag69
(g85
g71
NtRp1178
(dp1179
g74
(dp1180
sg83
g1137
sg76
(lp1181
g69
(g90
g71
NtRp1182
(dp1183
g74
(dp1184
sg83
g1178
sg76
(lp1185
g69
(g70
g71
NtRp1186
(dp1187
g74
(dp1188
g82
I3
ssg83
g1182
sg76
(lp1189
S'datetime.datetime(2012, 3, 4, 22, 12, 8)'
p1190
asbasbasbag69
(g85
g71
NtRp1191
(dp1192
g74
(dp1193
sg83
g1137
sg76
(lp1194
g69
(g90
g71
NtRp1195
(dp1196
g74
(dp1197
sg83
g1191
sg76
(lp1198
g69
(g70
g71
NtRp1199
(dp1200
g74
(dp1201
g82
I3
ssg83
g1195
sg76
(lp1202
S'stable'
p1203
asbasbasbasbasbasbasbag69
(g85
g71
NtRp1204
(dp1205
g74
(dp1206
sg83
g477
sg76
(lp1207
g69
(g90
g71
NtRp1208
(dp1209
g74
(dp1210
g94
g95
ssg83
g1204
sg76
(lp1211
S'wsgi_errors'
p1212
asbag69
(g90
g71
NtRp1213
(dp1214
g74
(dp1215
g101
g102
ssg83
g1204
sg76
(lp1216
S':'
asbag69
(g90
g71
NtRp1217
(dp1218
g74
(dp1219
sg83
g1204
sg76
(lp1220
g69
(g70
g71
NtRp1221
(dp1222
g74
(dp1223
g82
I4
ssg83
g1217
sg76
(lp1224
S"<open file '<stderr>', mode 'w' at 0x0000000001DB61E0>"
p1225
asbasbasbag69
(g85
g71
NtRp1226
(dp1227
g74
(dp1228
sg83
g477
sg76
(lp1229
g69
(g90
g71
NtRp1230
(dp1231
g74
(dp1232
g94
g95
ssg83
g1226
sg76
(lp1233
S'wsgi_file_wrapper'
p1234
asbag69
(g90
g71
NtRp1235
(dp1236
g74
(dp1237
g101
g102
ssg83
g1226
sg76
(lp1238
S':'
asbag69
(g90
g71
NtRp1239
(dp1240
g74
(dp1241
sg83
g1226
sg76
(lp1242
g69
(g70
g71
NtRp1243
(dp1244
g74
(dp1245
g82
I4
ssg83
g1239
sg76
(lp1246
S'<class wsgiref.util.FileWrapper at 0x000000000385D288>'
p1247
asbasbasbag69
(g85
g71
NtRp1248
(dp1249
g74
(dp1250
sg83
g477
sg76
(lp1251
g69
(g90
g71
NtRp1252
(dp1253
g74
(dp1254
g94
g95
ssg83
g1248
sg76
(lp1255
S'wsgi_input'
p1256
asbag69
(g90
g71
NtRp1257
(dp1258
g74
(dp1259
g101
g102
ssg83
g1248
sg76
(lp1260
S':'
asbag69
(g90
g71
NtRp1261
(dp1262
g74
(dp1263
sg83
g1248
sg76
(lp1264
g69
(g70
g71
NtRp1265
(dp1266
g74
(dp1267
g82
I4
ssg83
g1261
sg76
(lp1268
S'<socket._fileobject object at 0x0000000004B8FA20>'
p1269
asbasbasbag69
(g85
g71
NtRp1270
(dp1271
g74
(dp1272
sg83
g477
sg76
(lp1273
g69
(g90
g71
NtRp1274
(dp1275
g74
(dp1276
g94
g95
ssg83
g1270
sg76
(lp1277
S'wsgi_multiprocess'
p1278
asbag69
(g90
g71
NtRp1279
(dp1280
g74
(dp1281
g101
g102
ssg83
g1270
sg76
(lp1282
S':'
asbag69
(g90
g71
NtRp1283
(dp1284
g74
(dp1285
sg83
g1270
sg76
(lp1286
g69
(g70
g71
NtRp1287
(dp1288
g74
(dp1289
g82
I4
ssg83
g1283
sg76
(lp1290
g112
asbasbasbag69
(g85
g71
NtRp1291
(dp1292
g74
(dp1293
sg83
g477
sg76
(lp1294
g69
(g90
g71
NtRp1295
(dp1296
g74
(dp1297
g94
g95
ssg83
g1291
sg76
(lp1298
S'wsgi_multithread'
p1299
asbag69
(g90
g71
NtRp1300
(dp1301
g74
(dp1302
g101
g102
ssg83
g1291
sg76
(lp1303
S':'
asbag69
(g90
g71
NtRp1304
(dp1305
g74
(dp1306
sg83
g1291
sg76
(lp1307
g69
(g70
g71
NtRp1308
(dp1309
g74
(dp1310
g82
I4
ssg83
g1304
sg76
(lp1311
S'True'
p1312
asbasbasbag69
(g85
g71
NtRp1313
(dp1314
g74
(dp1315
sg83
g477
sg76
(lp1316
g69
(g90
g71
NtRp1317
(dp1318
g74
(dp1319
g94
g95
ssg83
g1313
sg76
(lp1320
S'wsgi_run_once'
p1321
asbag69
(g90
g71
NtRp1322
(dp1323
g74
(dp1324
g101
g102
ssg83
g1313
sg76
(lp1325
S':'
asbag69
(g90
g71
NtRp1326
(dp1327
g74
(dp1328
sg83
g1313
sg76
(lp1329
g69
(g70
g71
NtRp1330
(dp1331
g74
(dp1332
g82
I4
ssg83
g1326
sg76
(lp1333
g112
asbasbasbag69
(g85
g71
NtRp1334
(dp1335
g74
(dp1336
sg83
g477
sg76
(lp1337
g69
(g90
g71
NtRp1338
(dp1339
g74
(dp1340
g94
g95
ssg83
g1334
sg76
(lp1341
S'wsgi_url_scheme'
p1342
asbag69
(g90
g71
NtRp1343
(dp1344
g74
(dp1345
g101
g102
ssg83
g1334
sg76
(lp1346
S':'
asbag69
(g90
g71
NtRp1347
(dp1348
g74
(dp1349
sg83
g1334
sg76
(lp1350
g69
(g70
g71
NtRp1351
(dp1352
g74
(dp1353
g82
I4
ssg83
g1347
sg76
(lp1354
S'http'
p1355
asbasbasbag69
(g85
g71
NtRp1356
(dp1357
g74
(dp1358
sg83
g477
sg76
(lp1359
g69
(g90
g71
NtRp1360
(dp1361
g74
(dp1362
g94
g95
ssg83
g1356
sg76
(lp1363
S'wsgi_version'
p1364
asbag69
(g90
g71
NtRp1365
(dp1366
g74
(dp1367
g101
g102
ssg83
g1356
sg76
(lp1368
S':'
asbag69
(g90
g71
NtRp1369
(dp1370
g74
(dp1371
sg83
g1356
sg76
(lp1372
g69
(g70
g71
NtRp1373
(dp1374
g74
(dp1375
g82
I4
ssg83
g1369
sg76
(lp1376
g69
(g78
g71
NtRp1377
(dp1378
g74
(dp1379
g82
I3
ssg83
Nsg76
(lp1380
g69
(g85
g71
NtRp1381
(dp1382
g74
(dp1383
sg83
g1377
sg76
(lp1384
g69
(g90
g71
NtRp1385
(dp1386
g74
(dp1387
sg83
g1381
sg76
(lp1388
g69
(g70
g71
NtRp1389
(dp1390
g74
(dp1391
g82
I3
ssg83
g1385
sg76
(lp1392
S'1'
asbasbasbag69
(g85
g71
NtRp1393
(dp1394
g74
(dp1395
sg83
g1377
sg76
(lp1396
g69
(g90
g71
NtRp1397
(dp1398
g74
(dp1399
sg83
g1393
sg76
(lp1400
g69
(g70
g71
NtRp1401
(dp1402
g74
(dp1403
g82
I3
ssg83
g1397
sg76
(lp1404
S'0'
asbasbasbasbasbasbasbasbasbasbasbag69
(g85
g71
NtRp1405
(dp1406
g74
(dp1407
sg83
g79
sg76
(lp1408
g69
(g90
g71
NtRp1409
(dp1410
g74
(dp1411
g94
g95
ssg83
g1405
sg76
(lp1412
S'extension'
p1413
asbag69
(g90
g71
NtRp1414
(dp1415
g74
(dp1416
g101
g102
ssg83
g1405
sg76
(lp1417
S':'
asbag69
(g90
g71
NtRp1418
(dp1419
g74
(dp1420
sg83
g1405
sg76
(lp1421
g69
(g70
g71
NtRp1422
(dp1423
g74
(dp1424
g82
I5
ssg83
g1418
sg76
(lp1425
S'html'
p1426
asbasbasbag69
(g85
g71
NtRp1427
(dp1428
g74
(dp1429
sg83
g79
sg76
(lp1430
g69
(g90
g71
NtRp1431
(dp1432
g74
(dp1433
g94
g95
ssg83
g1427
sg76
(lp1434
S'folder'
p1435
asbag69
(g90
g71
NtRp1436
(dp1437
g74
(dp1438
g101
g102
ssg83
g1427
sg76
(lp1439
S':'
asbag69
(g90
g71
NtRp1440
(dp1441
g74
(dp1442
sg83
g1427
sg76
(lp1443
g69
(g70
g71
NtRp1444
(dp1445
g74
(dp1446
g82
I5
ssg83
g1440
sg76
(lp1447
S'c:\\Users\\Jorge\\Downloads\\web2py_src\\web2py\\applications\\init\\'
p1448
asbasbasbag69
(g85
g71
NtRp1449
(dp1450
g74
(dp1451
sg83
g79
sg76
(lp1452
g69
(g90
g71
NtRp1453
(dp1454
g74
(dp1455
g94
g95
ssg83
g1449
sg76
(lp1456
S'function'
p1457
asbag69
(g90
g71
NtRp1458
(dp1459
g74
(dp1460
g101
g102
ssg83
g1449
sg76
(lp1461
S':'
asbag69
(g90
g71
NtRp1462
(dp1463
g74
(dp1464
sg83
g1449
sg76
(lp1465
g69
(g70
g71
NtRp1466
(dp1467
g74
(dp1468
g82
I5
ssg83
g1462
sg76
(lp1469
S'user'
p1470
asbasbasbag69
(g85
g71
NtRp1471
(dp1472
g74
(dp1473
sg83
g79
sg76
(lp1474
g69
(g90
g71
NtRp1475
(dp1476
g74
(dp1477
g94
g95
ssg83
g1471
sg76
(lp1478
S'get_vars'
p1479
asbag69
(g90
g71
NtRp1480
(dp1481
g74
(dp1482
g101
g102
ssg83
g1471
sg76
(lp1483
S':'
asbag69
(g90
g71
NtRp1484
(dp1485
g74
(dp1486
sg83
g1471
sg76
(lp1487
g69
(g70
g71
NtRp1488
(dp1489
g74
(dp1490
g82
I5
ssg83
g1484
sg76
(lp1491
g69
(g78
g71
NtRp1492
(dp1493
g74
(dp1494
g82
I4
ssg83
Nsg76
(lp1495
sbasbasbasbag69
(g85
g71
NtRp1496
(dp1497
g74
(dp1498
sg83
g79
sg76
(lp1499
g69
(g90
g71
NtRp1500
(dp1501
g74
(dp1502
g94
g95
ssg83
g1496
sg76
(lp1503
S'global_settings'
p1504
asbag69
(g90
g71
NtRp1505
(dp1506
g74
(dp1507
g101
g102
ssg83
g1496
sg76
(lp1508
S':'
asbag69
(g90
g71
NtRp1509
(dp1510
g74
(dp1511
sg83
g1496
sg76
(lp1512
g69
(g70
g71
NtRp1513
(dp1514
g74
(dp1515
g82
I5
ssg83
g1509
sg76
(lp1516
g69
(g78
g71
NtRp1517
(dp1518
g74
(dp1519
g82
I4
ssg83
Nsg76
(lp1520
g69
(g85
g71
NtRp1521
(dp1522
g74
(dp1523
sg83
g1517
sg76
(lp1524
g69
(g90
g71
NtRp1525
(dp1526
g74
(dp1527
g94
g95
ssg83
g1521
sg76
(lp1528
g489
asbag69
(g90
g71
NtRp1529
(dp1530
g74
(dp1531
g101
g102
ssg83
g1521
sg76
(lp1532
S':'
asbag69
(g90
g71
NtRp1533
(dp1534
g74
(dp1535
sg83
g1521
sg76
(lp1536
g69
(g70
g71
NtRp1537
(dp1538
g74
(dp1539
g82
I4
ssg83
g1533
sg76
(lp1540
S"set(['c:\\\\Users\\\\Jorge\\\\Downloads\\\\web2py_src\\\\web2py\\\\applications\\\\init\\\\'])"
p1541
asbasbasbag69
(g85
g71
NtRp1542
(dp1543
g74
(dp1544
sg83
g1517
sg76
(lp1545
g69
(g90
g71
NtRp1546
(dp1547
g74
(dp1548
g94
g95
ssg83
g1542
sg76
(lp1549
g511
asbag69
(g90
g71
NtRp1550
(dp1551
g74
(dp1552
g101
g102
ssg83
g1542
sg76
(lp1553
S':'
asbag69
(g90
g71
NtRp1554
(dp1555
g74
(dp1556
sg83
g1542
sg76
(lp1557
g69
(g70
g71
NtRp1558
(dp1559
g74
(dp1560
g82
I4
ssg83
g1554
sg76
(lp1561
g524
asbasbasbag69
(g85
g71
NtRp1562
(dp1563
g74
(dp1564
sg83
g1517
sg76
(lp1565
g69
(g90
g71
NtRp1566
(dp1567
g74
(dp1568
g94
g95
ssg83
g1562
sg76
(lp1569
g533
asbag69
(g90
g71
NtRp1570
(dp1571
g74
(dp1572
g101
g102
ssg83
g1562
sg76
(lp1573
S':'
asbag69
(g90
g71
NtRp1574
(dp1575
g74
(dp1576
sg83
g1562
sg76
(lp1577
g69
(g70
g71
NtRp1578
(dp1579
g74
(dp1580
g82
I4
ssg83
g1574
sg76
(lp1581
g69
(g78
g71
NtRp1582
(dp1583
g74
(dp1584
g82
I3
ssg83
Nsg76
(lp1585
sbasbasbasbag69
(g85
g71
NtRp1586
(dp1587
g74
(dp1588
sg83
g1517
sg76
(lp1589
g69
(g90
g71
NtRp1590
(dp1591
g74
(dp1592
g94
g95
ssg83
g1586
sg76
(lp1593
g558
asbag69
(g90
g71
NtRp1594
(dp1595
g74
(dp1596
g101
g102
ssg83
g1586
sg76
(lp1597
S':'
asbag69
(g90
g71
NtRp1598
(dp1599
g74
(dp1600
sg83
g1586
sg76
(lp1601
g69
(g70
g71
NtRp1602
(dp1603
g74
(dp1604
g82
I4
ssg83
g1598
sg76
(lp1605
S"<Values at 0x3d817c8: {'verbose': False, 'ip': '127.0.0.1', 'shutdown_timeout': 5, 'taskbar': False, 'nocron': False, 'pid_filename': 'httpserver.pid', 'maxthreads': None, 'softcron': False, 'server_name': 'Jorge-PC', 'bpython': False, 'nogui': False, 'port': 8000, 'extcron': False, 'debuglevel': 30, 'test': None, 'folder': 'c:\\\\Users\\\\Jorge\\\\Downloads\\\\web2py_src\\\\web2py', 'config': '', 'import_models': False, 'winservice': '', 'shell': None, 'run': '', 'log_filename': 'httpserver.log', 'args': [''], 'socket_timeout': 5, 'ssl_ca_certificate': None, 'scheduler': None, 'profiler_filename': None, 'ssl_private_key': '', 'password': '<ask>', 'request_queue_size': 5, 'ssl_certificate': '', 'cronjob': False, 'numthreads': None, 'quiet': False, 'interfaces': None, 'minthreads': None, 'timeout': 10, 'plain': False, 'nobanner': False}>"
p1606
asbasbasbag69
(g85
g71
NtRp1607
(dp1608
g74
(dp1609
sg83
g1517
sg76
(lp1610
g69
(g90
g71
NtRp1611
(dp1612
g74
(dp1613
g94
g95
ssg83
g1607
sg76
(lp1614
g580
asbag69
(g90
g71
NtRp1615
(dp1616
g74
(dp1617
g101
g102
ssg83
g1607
sg76
(lp1618
S':'
asbag69
(g90
g71
NtRp1619
(dp1620
g74
(dp1621
sg83
g1607
sg76
(lp1622
g69
(g70
g71
NtRp1623
(dp1624
g74
(dp1625
g82
I4
ssg83
g1619
sg76
(lp1626
S'set([])'
p1627
asbasbasbag69
(g85
g71
NtRp1628
(dp1629
g74
(dp1630
sg83
g1517
sg76
(lp1631
g69
(g90
g71
NtRp1632
(dp1633
g74
(dp1634
g94
g95
ssg83
g1628
sg76
(lp1635
g602
asbag69
(g90
g71
NtRp1636
(dp1637
g74
(dp1638
g101
g102
ssg83
g1628
sg76
(lp1639
S':'
asbag69
(g90
g71
NtRp1640
(dp1641
g74
(dp1642
sg83
g1628
sg76
(lp1643
g69
(g70
g71
NtRp1644
(dp1645
g74
(dp1646
g82
I4
ssg83
g1640
sg76
(lp1647
g112
asbasbasbag69
(g85
g71
NtRp1648
(dp1649
g74
(dp1650
sg83
g1517
sg76
(lp1651
g69
(g90
g71
NtRp1652
(dp1653
g74
(dp1654
g94
g95
ssg83
g1648
sg76
(lp1655
g623
asbag69
(g90
g71
NtRp1656
(dp1657
g74
(dp1658
g101
g102
ssg83
g1648
sg76
(lp1659
S':'
asbag69
(g90
g71
NtRp1660
(dp1661
g74
(dp1662
sg83
g1648
sg76
(lp1663
g69
(g70
g71
NtRp1664
(dp1665
g74
(dp1666
g82
I4
ssg83
g1660
sg76
(lp1667
g636
asbasbasbag69
(g85
g71
NtRp1668
(dp1669
g74
(dp1670
sg83
g1517
sg76
(lp1671
g69
(g90
g71
NtRp1672
(dp1673
g74
(dp1674
g94
g95
ssg83
g1668
sg76
(lp1675
g821
asbag69
(g90
g71
NtRp1676
(dp1677
g74
(dp1678
g101
g102
ssg83
g1668
sg76
(lp1679
S':'
asbag69
(g90
g71
NtRp1680
(dp1681
g74
(dp1682
sg83
g1668
sg76
(lp1683
g69
(g70
g71
NtRp1684
(dp1685
g74
(dp1686
g82
I4
ssg83
g1680
sg76
(lp1687
g112
asbasbasbag69
(g85
g71
NtRp1688
(dp1689
g74
(dp1690
sg83
g1517
sg76
(lp1691
g69
(g90
g71
NtRp1692
(dp1693
g74
(dp1694
g94
g95
ssg83
g1688
sg76
(lp1695
g842
asbag69
(g90
g71
NtRp1696
(dp1697
g74
(dp1698
g101
g102
ssg83
g1688
sg76
(lp1699
S':'
asbag69
(g90
g71
NtRp1700
(dp1701
g74
(dp1702
sg83
g1688
sg76
(lp1703
g69
(g70
g71
NtRp1704
(dp1705
g74
(dp1706
g82
I4
ssg83
g1700
sg76
(lp1707
g112
asbasbasbag69
(g85
g71
NtRp1708
(dp1709
g74
(dp1710
sg83
g1517
sg76
(lp1711
g69
(g90
g71
NtRp1712
(dp1713
g74
(dp1714
g94
g95
ssg83
g1708
sg76
(lp1715
g1081
asbag69
(g90
g71
NtRp1716
(dp1717
g74
(dp1718
g101
g102
ssg83
g1708
sg76
(lp1719
S':'
asbag69
(g90
g71
NtRp1720
(dp1721
g74
(dp1722
sg83
g1708
sg76
(lp1723
g69
(g70
g71
NtRp1724
(dp1725
g74
(dp1726
g82
I4
ssg83
g1720
sg76
(lp1727
g1094
asbasbasbag69
(g85
g71
NtRp1728
(dp1729
g74
(dp1730
sg83
g1517
sg76
(lp1731
g69
(g90
g71
NtRp1732
(dp1733
g74
(dp1734
g94
g95
ssg83
g1728
sg76
(lp1735
g1124
asbag69
(g90
g71
NtRp1736
(dp1737
g74
(dp1738
g101
g102
ssg83
g1728
sg76
(lp1739
S':'
asbag69
(g90
g71
NtRp1740
(dp1741
g74
(dp1742
sg83
g1728
sg76
(lp1743
g69
(g70
g71
NtRp1744
(dp1745
g74
(dp1746
g82
I4
ssg83
g1740
sg76
(lp1747
g69
(g78
g71
NtRp1748
(dp1749
g74
(dp1750
g82
I3
ssg83
Nsg76
(lp1751
g69
(g85
g71
NtRp1752
(dp1753
g74
(dp1754
sg83
g1748
sg76
(lp1755
g69
(g90
g71
NtRp1756
(dp1757
g74
(dp1758
sg83
g1752
sg76
(lp1759
g69
(g70
g71
NtRp1760
(dp1761
g74
(dp1762
g82
I3
ssg83
g1756
sg76
(lp1763
S'1'
asbasbasbag69
(g85
g71
NtRp1764
(dp1765
g74
(dp1766
sg83
g1748
sg76
(lp1767
g69
(g90
g71
NtRp1768
(dp1769
g74
(dp1770
sg83
g1764
sg76
(lp1771
g69
(g70
g71
NtRp1772
(dp1773
g74
(dp1774
g82
I3
ssg83
g1768
sg76
(lp1775
S'99'
p1776
asbasbasbag69
(g85
g71
NtRp1777
(dp1778
g74
(dp1779
sg83
g1748
sg76
(lp1780
g69
(g90
g71
NtRp1781
(dp1782
g74
(dp1783
sg83
g1777
sg76
(lp1784
g69
(g70
g71
NtRp1785
(dp1786
g74
(dp1787
g82
I3
ssg83
g1781
sg76
(lp1788
S'7'
asbasbasbag69
(g85
g71
NtRp1789
(dp1790
g74
(dp1791
sg83
g1748
sg76
(lp1792
g69
(g90
g71
NtRp1793
(dp1794
g74
(dp1795
sg83
g1789
sg76
(lp1796
g69
(g70
g71
NtRp1797
(dp1798
g74
(dp1799
g82
I3
ssg83
g1793
sg76
(lp1800
S'datetime.datetime(2012, 3, 4, 22, 12, 8)'
p1801
asbasbasbag69
(g85
g71
NtRp1802
(dp1803
g74
(dp1804
sg83
g1748
sg76
(lp1805
g69
(g90
g71
NtRp1806
(dp1807
g74
(dp1808
sg83
g1802
sg76
(lp1809
g69
(g70
g71
NtRp1810
(dp1811
g74
(dp1812
g82
I3
ssg83
g1806
sg76
(lp1813
g1203
asbasbasbasbasbasbasbasbasbasbasbag69
(g85
g71
NtRp1814
(dp1815
g74
(dp1816
sg83
g79
sg76
(lp1817
g69
(g90
g71
NtRp1818
(dp1819
g74
(dp1820
g94
g95
ssg83
g1814
sg76
(lp1821
S'is_https'
p1822
asbag69
(g90
g71
NtRp1823
(dp1824
g74
(dp1825
g101
g102
ssg83
g1814
sg76
(lp1826
S':'
asbag69
(g90
g71
NtRp1827
(dp1828
g74
(dp1829
sg83
g1814
sg76
(lp1830
g69
(g70
g71
NtRp1831
(dp1832
g74
(dp1833
g82
I5
ssg83
g1827
sg76
(lp1834
g112
asbasbasbag69
(g85
g71
NtRp1835
(dp1836
g74
(dp1837
sg83
g79
sg76
(lp1838
g69
(g90
g71
NtRp1839
(dp1840
g74
(dp1841
g94
g95
ssg83
g1835
sg76
(lp1842
S'is_local'
p1843
asbag69
(g90
g71
NtRp1844
(dp1845
g74
(dp1846
g101
g102
ssg83
g1835
sg76
(lp1847
S':'
asbag69
(g90
g71
NtRp1848
(dp1849
g74
(dp1850
sg83
g1835
sg76
(lp1851
g69
(g70
g71
NtRp1852
(dp1853
g74
(dp1854
g82
I5
ssg83
g1848
sg76
(lp1855
g1312
asbasbasbag69
(g85
g71
NtRp1856
(dp1857
g74
(dp1858
sg83
g79
sg76
(lp1859
g69
(g90
g71
NtRp1860
(dp1861
g74
(dp1862
g94
g95
ssg83
g1856
sg76
(lp1863
S'is_restful'
p1864
asbag69
(g90
g71
NtRp1865
(dp1866
g74
(dp1867
g101
g102
ssg83
g1856
sg76
(lp1868
S':'
asbag69
(g90
g71
NtRp1869
(dp1870
g74
(dp1871
sg83
g1856
sg76
(lp1872
g69
(g70
g71
NtRp1873
(dp1874
g74
(dp1875
g82
I5
ssg83
g1869
sg76
(lp1876
g112
asbasbasbag69
(g85
g71
NtRp1877
(dp1878
g74
(dp1879
sg83
g79
sg76
(lp1880
g69
(g90
g71
NtRp1881
(dp1882
g74
(dp1883
g94
g95
ssg83
g1877
sg76
(lp1884
S'now'
p1885
asbag69
(g90
g71
NtRp1886
(dp1887
g74
(dp1888
g101
g102
ssg83
g1877
sg76
(lp1889
S':'
asbag69
(g90
g71
NtRp1890
(dp1891
g74
(dp1892
sg83
g1877
sg76
(lp1893
g69
(g70
g71
NtRp1894
(dp1895
g74
(dp1896
g82
I5
ssg83
g1890
sg76
(lp1897
S'datetime.datetime(2012, 4, 21, 22, 27, 54, 230000)'
p1898
asbasbasbag69
(g85
g71
NtRp1899
(dp1900
g74
(dp1901
sg83
g79
sg76
(lp1902
g69
(g90
g71
NtRp1903
(dp1904
g74
(dp1905
g94
g95
ssg83
g1899
sg76
(lp1906
S'post_vars'
p1907
asbag69
(g90
g71
NtRp1908
(dp1909
g74
(dp1910
g101
g102
ssg83
g1899
sg76
(lp1911
S':'
asbag69
(g90
g71
NtRp1912
(dp1913
g74
(dp1914
sg83
g1899
sg76
(lp1915
g69
(g70
g71
NtRp1916
(dp1917
g74
(dp1918
g82
I5
ssg83
g1912
sg76
(lp1919
g69
(g78
g71
NtRp1920
(dp1921
g74
(dp1922
g82
I4
ssg83
Nsg76
(lp1923
sbasbasbasbag69
(g85
g71
NtRp1924
(dp1925
g74
(dp1926
sg83
g79
sg76
(lp1927
g69
(g90
g71
NtRp1928
(dp1929
g74
(dp1930
g94
g95
ssg83
g1924
sg76
(lp1931
S'raw_args'
p1932
asbag69
(g90
g71
NtRp1933
(dp1934
g74
(dp1935
g101
g102
ssg83
g1924
sg76
(lp1936
S':'
asbag69
(g90
g71
NtRp1937
(dp1938
g74
(dp1939
sg83
g1924
sg76
(lp1940
g69
(g70
g71
NtRp1941
(dp1942
g74
(dp1943
g82
I5
ssg83
g1937
sg76
(lp1944
g171
asbasbasbag69
(g85
g71
NtRp1945
(dp1946
g74
(dp1947
sg83
g79
sg76
(lp1948
g69
(g90
g71
NtRp1949
(dp1950
g74
(dp1951
g94
g95
ssg83
g1945
sg76
(lp1952
S'url'
p1953
asbag69
(g90
g71
NtRp1954
(dp1955
g74
(dp1956
g101
g102
ssg83
g1945
sg76
(lp1957
S':'
asbag69
(g90
g71
NtRp1958
(dp1959
g74
(dp1960
sg83
g1945
sg76
(lp1961
g69
(g70
g71
NtRp1962
(dp1963
g74
(dp1964
g82
I5
ssg83
g1958
sg76
(lp1965
S'/init/default/user/login'
p1966
asbasbasbag69
(g85
g71
NtRp1967
(dp1968
g74
(dp1969
sg83
g79
sg76
(lp1970
g69
(g90
g71
NtRp1971
(dp1972
g74
(dp1973
g94
g95
ssg83
g1967
sg76
(lp1974
S'utcnow'
p1975
asbag69
(g90
g71
NtRp1976
(dp1977
g74
(dp1978
g101
g102
ssg83
g1967
sg76
(lp1979
S':'
asbag69
(g90
g71
NtRp1980
(dp1981
g74
(dp1982
sg83
g1967
sg76
(lp1983
g69
(g70
g71
NtRp1984
(dp1985
g74
(dp1986
g82
I5
ssg83
g1980
sg76
(lp1987
S'datetime.datetime(2012, 4, 22, 1, 27, 54, 230000)'
p1988
asbasbasbag69
(g85
g71
NtRp1989
(dp1990
g74
(dp1991
sg83
g79
sg76
(lp1992
g69
(g90
g71
NtRp1993
(dp1994
g74
(dp1995
g94
g95
ssg83
g1989
sg76
(lp1996
S'uuid'
p1997
asbag69
(g90
g71
NtRp1998
(dp1999
g74
(dp2000
g101
g102
ssg83
g1989
sg76
(lp2001
S':'
asbag69
(g90
g71
NtRp2002
(dp2003
g74
(dp2004
sg83
g1989
sg76
(lp2005
g69
(g70
g71
NtRp2006
(dp2007
g74
(dp2008
g82
I5
ssg83
g2002
sg76
(lp2009
S'init/127.0.0.1.2012-04-21.22-27-54.4c16274d-6ad5-4e34-94f7-939fb6114826'
p2010
asbasbasbag69
(g85
g71
NtRp2011
(dp2012
g74
(dp2013
sg83
g79
sg76
(lp2014
g69
(g90
g71
NtRp2015
(dp2016
g74
(dp2017
g94
g95
ssg83
g2011
sg76
(lp2018
S'vars'
p2019
asbag69
(g90
g71
NtRp2020
(dp2021
g74
(dp2022
g101
g102
ssg83
g2011
sg76
(lp2023
S':'
asbag69
(g90
g71
NtRp2024
(dp2025
g74
(dp2026
sg83
g2011
sg76
(lp2027
g69
(g70
g71
NtRp2028
(dp2029
g74
(dp2030
g82
I5
ssg83
g2024
sg76
(lp2031
g69
(g78
g71
NtRp2032
(dp2033
g74
(dp2034
g82
I4
ssg83
Nsg76
(lp2035
sbasbasbasbag69
(g85
g71
NtRp2036
(dp2037
g74
(dp2038
sg83
g79
sg76
(lp2039
g69
(g90
g71
NtRp2040
(dp2041
g74
(dp2042
g94
g95
ssg83
g2036
sg76
(lp2043
S'wsgi'
p2044
asbag69
(g90
g71
NtRp2045
(dp2046
g74
(dp2047
g101
g102
ssg83
g2036
sg76
(lp2048
S':'
asbag69
(g90
g71
NtRp2049
(dp2050
g74
(dp2051
sg83
g2036
sg76
(lp2052
g69
(g70
g71
NtRp2053
(dp2054
g74
(dp2055
g82
I5
ssg83
g2049
sg76
(lp2056
g69
(g78
g71
NtRp2057
(dp2058
g74
(dp2059
g82
I4
ssg83
Nsg76
(lp2060
g69
(g85
g71
NtRp2061
(dp2062
g74
(dp2063
sg83
g2057
sg76
(lp2064
g69
(g90
g71
NtRp2065
(dp2066
g74
(dp2067
g94
g95
ssg83
g2061
sg76
(lp2068
S'environ'
p2069
asbag69
(g90
g71
NtRp2070
(dp2071
g74
(dp2072
g101
g102
ssg83
g2061
sg76
(lp2073
S':'
asbag69
(g90
g71
NtRp2074
(dp2075
g74
(dp2076
sg83
g2061
sg76
(lp2077
g69
(g70
g71
NtRp2078
(dp2079
g74
(dp2080
g82
I4
ssg83
g2074
sg76
(lp2081
g69
(g78
g71
NtRp2082
(dp2083
g74
(dp2084
g82
I3
ssg83
Nsg76
(lp2085
g69
(g85
g71
NtRp2086
(dp2087
g74
(dp2088
sg83
g2082
sg76
(lp2089
g69
(g90
g71
NtRp2090
(dp2091
g74
(dp2092
g94
g95
ssg83
g2086
sg76
(lp2093
S'HTTP_ACCEPT'
p2094
asbag69
(g90
g71
NtRp2095
(dp2096
g74
(dp2097
g101
g102
ssg83
g2086
sg76
(lp2098
S':'
asbag69
(g90
g71
NtRp2099
(dp2100
g74
(dp2101
sg83
g2086
sg76
(lp2102
g69
(g70
g71
NtRp2103
(dp2104
g74
(dp2105
g82
I3
ssg83
g2099
sg76
(lp2106
g658
asbasbasbag69
(g85
g71
NtRp2107
(dp2108
g74
(dp2109
sg83
g2082
sg76
(lp2110
g69
(g90
g71
NtRp2111
(dp2112
g74
(dp2113
g94
g95
ssg83
g2107
sg76
(lp2114
S'HTTP_ACCEPT_ENCODING'
p2115
asbag69
(g90
g71
NtRp2116
(dp2117
g74
(dp2118
g101
g102
ssg83
g2107
sg76
(lp2119
S':'
asbag69
(g90
g71
NtRp2120
(dp2121
g74
(dp2122
sg83
g2107
sg76
(lp2123
g69
(g70
g71
NtRp2124
(dp2125
g74
(dp2126
g82
I3
ssg83
g2120
sg76
(lp2127
g680
asbasbasbag69
(g85
g71
NtRp2128
(dp2129
g74
(dp2130
sg83
g2082
sg76
(lp2131
g69
(g90
g71
NtRp2132
(dp2133
g74
(dp2134
g94
g95
ssg83
g2128
sg76
(lp2135
S'HTTP_ACCEPT_LANGUAGE'
p2136
asbag69
(g90
g71
NtRp2137
(dp2138
g74
(dp2139
g101
g102
ssg83
g2128
sg76
(lp2140
S':'
asbag69
(g90
g71
NtRp2141
(dp2142
g74
(dp2143
sg83
g2128
sg76
(lp2144
g69
(g70
g71
NtRp2145
(dp2146
g74
(dp2147
g82
I3
ssg83
g2141
sg76
(lp2148
g702
asbasbasbag69
(g85
g71
NtRp2149
(dp2150
g74
(dp2151
sg83
g2082
sg76
(lp2152
g69
(g90
g71
NtRp2153
(dp2154
g74
(dp2155
g94
g95
ssg83
g2149
sg76
(lp2156
S'HTTP_CONNECTION'
p2157
asbag69
(g90
g71
NtRp2158
(dp2159
g74
(dp2160
g101
g102
ssg83
g2149
sg76
(lp2161
S':'
asbag69
(g90
g71
NtRp2162
(dp2163
g74
(dp2164
sg83
g2149
sg76
(lp2165
g69
(g70
g71
NtRp2166
(dp2167
g74
(dp2168
g82
I3
ssg83
g2162
sg76
(lp2169
g724
asbasbasbag69
(g85
g71
NtRp2170
(dp2171
g74
(dp2172
sg83
g2082
sg76
(lp2173
g69
(g90
g71
NtRp2174
(dp2175
g74
(dp2176
g94
g95
ssg83
g2170
sg76
(lp2177
S'HTTP_COOKIE'
p2178
asbag69
(g90
g71
NtRp2179
(dp2180
g74
(dp2181
g101
g102
ssg83
g2170
sg76
(lp2182
S':'
asbag69
(g90
g71
NtRp2183
(dp2184
g74
(dp2185
sg83
g2170
sg76
(lp2186
g69
(g70
g71
NtRp2187
(dp2188
g74
(dp2189
g82
I3
ssg83
g2183
sg76
(lp2190
g746
asbasbasbag69
(g85
g71
NtRp2191
(dp2192
g74
(dp2193
sg83
g2082
sg76
(lp2194
g69
(g90
g71
NtRp2195
(dp2196
g74
(dp2197
g94
g95
ssg83
g2191
sg76
(lp2198
S'HTTP_HOST'
p2199
asbag69
(g90
g71
NtRp2200
(dp2201
g74
(dp2202
g101
g102
ssg83
g2191
sg76
(lp2203
S':'
asbag69
(g90
g71
NtRp2204
(dp2205
g74
(dp2206
sg83
g2191
sg76
(lp2207
g69
(g70
g71
NtRp2208
(dp2209
g74
(dp2210
g82
I3
ssg83
g2204
sg76
(lp2211
g768
asbasbasbag69
(g85
g71
NtRp2212
(dp2213
g74
(dp2214
sg83
g2082
sg76
(lp2215
g69
(g90
g71
NtRp2216
(dp2217
g74
(dp2218
g94
g95
ssg83
g2212
sg76
(lp2219
S'HTTP_REFERER'
p2220
asbag69
(g90
g71
NtRp2221
(dp2222
g74
(dp2223
g101
g102
ssg83
g2212
sg76
(lp2224
S':'
asbag69
(g90
g71
NtRp2225
(dp2226
g74
(dp2227
sg83
g2212
sg76
(lp2228
g69
(g70
g71
NtRp2229
(dp2230
g74
(dp2231
g82
I3
ssg83
g2225
sg76
(lp2232
g790
asbasbasbag69
(g85
g71
NtRp2233
(dp2234
g74
(dp2235
sg83
g2082
sg76
(lp2236
g69
(g90
g71
NtRp2237
(dp2238
g74
(dp2239
g94
g95
ssg83
g2233
sg76
(lp2240
S'HTTP_USER_AGENT'
p2241
asbag69
(g90
g71
NtRp2242
(dp2243
g74
(dp2244
g101
g102
ssg83
g2233
sg76
(lp2245
S':'
asbag69
(g90
g71
NtRp2246
(dp2247
g74
(dp2248
sg83
g2233
sg76
(lp2249
g69
(g70
g71
NtRp2250
(dp2251
g74
(dp2252
g82
I3
ssg83
g2246
sg76
(lp2253
g812
asbasbasbag69
(g85
g71
NtRp2254
(dp2255
g74
(dp2256
sg83
g2082
sg76
(lp2257
g69
(g90
g71
NtRp2258
(dp2259
g74
(dp2260
g94
g95
ssg83
g2254
sg76
(lp2261
S'PATH_INFO'
p2262
asbag69
(g90
g71
NtRp2263
(dp2264
g74
(dp2265
g101
g102
ssg83
g2254
sg76
(lp2266
S':'
asbag69
(g90
g71
NtRp2267
(dp2268
g74
(dp2269
sg83
g2254
sg76
(lp2270
g69
(g70
g71
NtRp2271
(dp2272
g74
(dp2273
g82
I3
ssg83
g2267
sg76
(lp2274
g876
asbasbasbag69
(g85
g71
NtRp2275
(dp2276
g74
(dp2277
sg83
g2082
sg76
(lp2278
g69
(g90
g71
NtRp2279
(dp2280
g74
(dp2281
g94
g95
ssg83
g2275
sg76
(lp2282
S'QUERY_STRING'
p2283
asbag69
(g90
g71
NtRp2284
(dp2285
g74
(dp2286
g101
g102
ssg83
g2275
sg76
(lp2287
S':'
asbag69
(g90
g71
NtRp2288
(dp2289
g74
(dp2290
sg83
g2275
sg76
(lp2291
g69
(g70
g71
NtRp2292
(dp2293
g74
(dp2294
g82
I3
ssg83
g2288
sg76
(lp2295
g898
asbasbasbag69
(g85
g71
NtRp2296
(dp2297
g74
(dp2298
sg83
g2082
sg76
(lp2299
g69
(g90
g71
NtRp2300
(dp2301
g74
(dp2302
g94
g95
ssg83
g2296
sg76
(lp2303
S'REMOTE_ADDR'
p2304
asbag69
(g90
g71
NtRp2305
(dp2306
g74
(dp2307
g101
g102
ssg83
g2296
sg76
(lp2308
S':'
asbag69
(g90
g71
NtRp2309
(dp2310
g74
(dp2311
sg83
g2296
sg76
(lp2312
g69
(g70
g71
NtRp2313
(dp2314
g74
(dp2315
g82
I3
ssg83
g2309
sg76
(lp2316
g215
asbasbasbag69
(g85
g71
NtRp2317
(dp2318
g74
(dp2319
sg83
g2082
sg76
(lp2320
g69
(g90
g71
NtRp2321
(dp2322
g74
(dp2323
g94
g95
ssg83
g2317
sg76
(lp2324
S'REMOTE_PORT'
p2325
asbag69
(g90
g71
NtRp2326
(dp2327
g74
(dp2328
g101
g102
ssg83
g2317
sg76
(lp2329
S':'
asbag69
(g90
g71
NtRp2330
(dp2331
g74
(dp2332
sg83
g2317
sg76
(lp2333
g69
(g70
g71
NtRp2334
(dp2335
g74
(dp2336
g82
I3
ssg83
g2330
sg76
(lp2337
g941
asbasbasbag69
(g85
g71
NtRp2338
(dp2339
g74
(dp2340
sg83
g2082
sg76
(lp2341
g69
(g90
g71
NtRp2342
(dp2343
g74
(dp2344
g94
g95
ssg83
g2338
sg76
(lp2345
S'REQUEST_METHOD'
p2346
asbag69
(g90
g71
NtRp2347
(dp2348
g74
(dp2349
g101
g102
ssg83
g2338
sg76
(lp2350
S':'
asbag69
(g90
g71
NtRp2351
(dp2352
g74
(dp2353
sg83
g2338
sg76
(lp2354
g69
(g70
g71
NtRp2355
(dp2356
g74
(dp2357
g82
I3
ssg83
g2351
sg76
(lp2358
g963
asbasbasbag69
(g85
g71
NtRp2359
(dp2360
g74
(dp2361
sg83
g2082
sg76
(lp2362
g69
(g90
g71
NtRp2363
(dp2364
g74
(dp2365
g94
g95
ssg83
g2359
sg76
(lp2366
S'SCRIPT_NAME'
p2367
asbag69
(g90
g71
NtRp2368
(dp2369
g74
(dp2370
g101
g102
ssg83
g2359
sg76
(lp2371
S':'
asbag69
(g90
g71
NtRp2372
(dp2373
g74
(dp2374
sg83
g2359
sg76
(lp2375
g69
(g70
g71
NtRp2376
(dp2377
g74
(dp2378
g82
I3
ssg83
g2372
sg76
(lp2379
S''
asbasbasbag69
(g85
g71
NtRp2380
(dp2381
g74
(dp2382
sg83
g2082
sg76
(lp2383
g69
(g90
g71
NtRp2384
(dp2385
g74
(dp2386
g94
g95
ssg83
g2380
sg76
(lp2387
S'SERVER_NAME'
p2388
asbag69
(g90
g71
NtRp2389
(dp2390
g74
(dp2391
g101
g102
ssg83
g2380
sg76
(lp2392
S':'
asbag69
(g90
g71
NtRp2393
(dp2394
g74
(dp2395
sg83
g2380
sg76
(lp2396
g69
(g70
g71
NtRp2397
(dp2398
g74
(dp2399
g82
I3
ssg83
g2393
sg76
(lp2400
g1006
asbasbasbag69
(g85
g71
NtRp2401
(dp2402
g74
(dp2403
sg83
g2082
sg76
(lp2404
g69
(g90
g71
NtRp2405
(dp2406
g74
(dp2407
g94
g95
ssg83
g2401
sg76
(lp2408
S'SERVER_PORT'
p2409
asbag69
(g90
g71
NtRp2410
(dp2411
g74
(dp2412
g101
g102
ssg83
g2401
sg76
(lp2413
S':'
asbag69
(g90
g71
NtRp2414
(dp2415
g74
(dp2416
sg83
g2401
sg76
(lp2417
g69
(g70
g71
NtRp2418
(dp2419
g74
(dp2420
g82
I3
ssg83
g2414
sg76
(lp2421
g1028
asbasbasbag69
(g85
g71
NtRp2422
(dp2423
g74
(dp2424
sg83
g2082
sg76
(lp2425
g69
(g90
g71
NtRp2426
(dp2427
g74
(dp2428
g94
g95
ssg83
g2422
sg76
(lp2429
S'SERVER_PROTOCOL'
p2430
asbag69
(g90
g71
NtRp2431
(dp2432
g74
(dp2433
g101
g102
ssg83
g2422
sg76
(lp2434
S':'
asbag69
(g90
g71
NtRp2435
(dp2436
g74
(dp2437
sg83
g2422
sg76
(lp2438
g69
(g70
g71
NtRp2439
(dp2440
g74
(dp2441
g82
I3
ssg83
g2435
sg76
(lp2442
g1050
asbasbasbag69
(g85
g71
NtRp2443
(dp2444
g74
(dp2445
sg83
g2082
sg76
(lp2446
g69
(g90
g71
NtRp2447
(dp2448
g74
(dp2449
g94
g95
ssg83
g2443
sg76
(lp2450
S'SERVER_SOFTWARE'
p2451
asbag69
(g90
g71
NtRp2452
(dp2453
g74
(dp2454
g101
g102
ssg83
g2443
sg76
(lp2455
S':'
asbag69
(g90
g71
NtRp2456
(dp2457
g74
(dp2458
sg83
g2443
sg76
(lp2459
g69
(g70
g71
NtRp2460
(dp2461
g74
(dp2462
g82
I3
ssg83
g2456
sg76
(lp2463
g1072
asbasbasbag69
(g85
g71
NtRp2464
(dp2465
g74
(dp2466
sg83
g2082
sg76
(lp2467
g69
(g90
g71
NtRp2468
(dp2469
g74
(dp2470
g94
g95
ssg83
g2464
sg76
(lp2471
S'wsgi.errors'
p2472
asbag69
(g90
g71
NtRp2473
(dp2474
g74
(dp2475
g101
g102
ssg83
g2464
sg76
(lp2476
S':'
asbag69
(g90
g71
NtRp2477
(dp2478
g74
(dp2479
sg83
g2464
sg76
(lp2480
g69
(g70
g71
NtRp2481
(dp2482
g74
(dp2483
g82
I3
ssg83
g2477
sg76
(lp2484
S"<open file '<stderr>', mode 'w' at 0x0000000001DB61E0>"
p2485
asbasbasbag69
(g85
g71
NtRp2486
(dp2487
g74
(dp2488
sg83
g2082
sg76
(lp2489
g69
(g90
g71
NtRp2490
(dp2491
g74
(dp2492
g94
g95
ssg83
g2486
sg76
(lp2493
S'wsgi.file_wrapper'
p2494
asbag69
(g90
g71
NtRp2495
(dp2496
g74
(dp2497
g101
g102
ssg83
g2486
sg76
(lp2498
S':'
asbag69
(g90
g71
NtRp2499
(dp2500
g74
(dp2501
sg83
g2486
sg76
(lp2502
g69
(g70
g71
NtRp2503
(dp2504
g74
(dp2505
g82
I3
ssg83
g2499
sg76
(lp2506
S'<class wsgiref.util.FileWrapper at 0x000000000385D288>'
p2507
asbasbasbag69
(g85
g71
NtRp2508
(dp2509
g74
(dp2510
sg83
g2082
sg76
(lp2511
g69
(g90
g71
NtRp2512
(dp2513
g74
(dp2514
g94
g95
ssg83
g2508
sg76
(lp2515
S'wsgi.input'
p2516
asbag69
(g90
g71
NtRp2517
(dp2518
g74
(dp2519
g101
g102
ssg83
g2508
sg76
(lp2520
S':'
asbag69
(g90
g71
NtRp2521
(dp2522
g74
(dp2523
sg83
g2508
sg76
(lp2524
g69
(g70
g71
NtRp2525
(dp2526
g74
(dp2527
g82
I3
ssg83
g2521
sg76
(lp2528
S'<cStringIO.StringO object at 0x00000000096DF1F0>'
p2529
asbasbasbag69
(g85
g71
NtRp2530
(dp2531
g74
(dp2532
sg83
g2082
sg76
(lp2533
g69
(g90
g71
NtRp2534
(dp2535
g74
(dp2536
g94
g95
ssg83
g2530
sg76
(lp2537
S'wsgi.multiprocess'
p2538
asbag69
(g90
g71
NtRp2539
(dp2540
g74
(dp2541
g101
g102
ssg83
g2530
sg76
(lp2542
S':'
asbag69
(g90
g71
NtRp2543
(dp2544
g74
(dp2545
sg83
g2530
sg76
(lp2546
g69
(g70
g71
NtRp2547
(dp2548
g74
(dp2549
g82
I3
ssg83
g2543
sg76
(lp2550
g112
asbasbasbag69
(g85
g71
NtRp2551
(dp2552
g74
(dp2553
sg83
g2082
sg76
(lp2554
g69
(g90
g71
NtRp2555
(dp2556
g74
(dp2557
g94
g95
ssg83
g2551
sg76
(lp2558
S'wsgi.multithread'
p2559
asbag69
(g90
g71
NtRp2560
(dp2561
g74
(dp2562
g101
g102
ssg83
g2551
sg76
(lp2563
S':'
asbag69
(g90
g71
NtRp2564
(dp2565
g74
(dp2566
sg83
g2551
sg76
(lp2567
g69
(g70
g71
NtRp2568
(dp2569
g74
(dp2570
g82
I3
ssg83
g2564
sg76
(lp2571
g1312
asbasbasbag69
(g85
g71
NtRp2572
(dp2573
g74
(dp2574
sg83
g2082
sg76
(lp2575
g69
(g90
g71
NtRp2576
(dp2577
g74
(dp2578
g94
g95
ssg83
g2572
sg76
(lp2579
S'wsgi.run_once'
p2580
asbag69
(g90
g71
NtRp2581
(dp2582
g74
(dp2583
g101
g102
ssg83
g2572
sg76
(lp2584
S':'
asbag69
(g90
g71
NtRp2585
(dp2586
g74
(dp2587
sg83
g2572
sg76
(lp2588
g69
(g70
g71
NtRp2589
(dp2590
g74
(dp2591
g82
I3
ssg83
g2585
sg76
(lp2592
g112
asbasbasbag69
(g85
g71
NtRp2593
(dp2594
g74
(dp2595
sg83
g2082
sg76
(lp2596
g69
(g90
g71
NtRp2597
(dp2598
g74
(dp2599
g94
g95
ssg83
g2593
sg76
(lp2600
S'wsgi.url_scheme'
p2601
asbag69
(g90
g71
NtRp2602
(dp2603
g74
(dp2604
g101
g102
ssg83
g2593
sg76
(lp2605
S':'
asbag69
(g90
g71
NtRp2606
(dp2607
g74
(dp2608
sg83
g2593
sg76
(lp2609
g69
(g70
g71
NtRp2610
(dp2611
g74
(dp2612
g82
I3
ssg83
g2606
sg76
(lp2613
g1355
asbasbasbag69
(g85
g71
NtRp2614
(dp2615
g74
(dp2616
sg83
g2082
sg76
(lp2617
g69
(g90
g71
NtRp2618
(dp2619
g74
(dp2620
g94
g95
ssg83
g2614
sg76
(lp2621
S'wsgi.version'
p2622
asbag69
(g90
g71
NtRp2623
(dp2624
g74
(dp2625
g101
g102
ssg83
g2614
sg76
(lp2626
S':'
asbag69
(g90
g71
NtRp2627
(dp2628
g74
(dp2629
sg83
g2614
sg76
(lp2630
g69
(g70
g71
NtRp2631
(dp2632
g74
(dp2633
g82
I3
ssg83
g2627
sg76
(lp2634
S'1'
asbasbasbasbasbasbasbasbasbasbasbasbasbsS'frames'
p2635
(lp2636
(dp2637
S'file'
p2638
S'c:\\Users\\Jorge\\Downloads\\web2py_src\\web2py\\gluon\\restricted.py'
p2639
sS'dump'
p2640
(dp2641
S'code'
p2642
S"'# -*- coding: utf-8 -*-\\nif 0:\\n    from gluon.glo...form=form)\\nresponse._vars=response._caller(user)\\n'"
p2643
sS'layer'
p2644
S"r'c:\\Users\\Jorge\\Downloads\\web2py_src\\web2py\\applications\\init\\controllers/default.py'"
p2645
sS'global compile2'
p2646
S'<function compile2>'
p2647
sS'ccode'
p2648
S'undefined'
p2649
ssS'lnum'
p2650
I204
sS'lines'
p2651
(dp2652
I199
S"    environment['__name__'] = '__restricted__'"
p2653
sI200
S'    try:'
p2654
sI201
S'        if type(code) == types.CodeType:'
p2655
sI202
S'            ccode = code'
p2656
sI203
S'        else:'
p2657
sI204
S'            ccode = compile2(code,layer)'
p2658
sI205
S'        exec ccode in environment'
p2659
sI206
S'    except HTTP:'
p2660
sI207
S'        raise'
p2661
sI208
S'    except RestrictedError:'
p2662
ssS'call'
p2663
S"(code='# -*- coding: utf-8 -*-\\nif 0:\\n    from gluon.glo...form=form)\\nresponse._vars=response._caller(user)\\n', environment={'A': <class 'gluon.html.A'>, 'Auth': <class 'gluon.tools.Auth'>, 'B': <class 'gluon.html.B'>, 'BEAUTIFY': <class 'gluon.html.BEAUTIFY'>, 'BODY': <class 'gluon.html.BODY'>, 'BR': <class 'gluon.html.BR'>, 'BUTTON': <class 'gluon.html.BUTTON'>, 'CAT': <class 'gluon.html.CAT'>, 'CENTER': <class 'gluon.html.CENTER'>, 'CLEANUP': <class 'gluon.validators.CLEANUP'>, ...}, layer=r'c:\\Users\\Jorge\\Downloads\\web2py_src\\web2py\\applications\\init\\controllers/default.py')"
p2664
sS'func'
p2665
S'restricted'
p2666
sa(dp2667
g2638
S'c:\\Users\\Jorge\\Downloads\\web2py_src\\web2py\\gluon\\restricted.py'
p2668
sg2640
(dp2669
S'builtincompile'
p2670
S'<built-in function compile>'
p2671
sS'code'
p2672
S"'# -*- coding: utf-8 -*-\\nif 0:\\n    from gluon.glo...form=form)\\nresponse._vars=response._caller(user)\\n'"
p2673
sS'code.rstrip'
p2674
S'<built-in method rstrip of str object>'
p2675
sS').replace'
p2676
g2649
sS'layer'
p2677
S"r'c:\\Users\\Jorge\\Downloads\\web2py_src\\web2py\\applications\\init\\controllers/default.py'"
p2678
ssg2650
I189
sg2651
(dp2679
I192
S'    """'
p2680
sI193
S'    runs code in environment and returns the output. if an exception occurs'
p2681
sI184
S''
sI185
S'def compile2(code,layer):'
p2682
sI186
S'    """'
p2683
sI187
S"    The +'\\n' is necessary else compile fails when code ends in a comment."
p2684
sI188
S'    """'
p2685
sI189
S"    return compile(code.rstrip().replace('\\r\\n','\\n')+'\\n', layer, 'exec')"
p2686
sI190
S''
sI191
S"def restricted(code, environment=None, layer='Unknown'):"
p2687
ssg2663
S"(code='# -*- coding: utf-8 -*-\\nif 0:\\n    from gluon.glo...form=form)\\nresponse._vars=response._caller(user)\\n', layer=r'c:\\Users\\Jorge\\Downloads\\web2py_src\\web2py\\applications\\init\\controllers/default.py')"
p2688
sg2665
S'compile2'
p2689
sasS'pyver'
p2690
S'Python 2.7.2: C:\\Python27\\python.exe'
p2691
sS'session'
p2692
g69
(g70
g71
NtRp2693
(dp2694
g74
(dp2695
sg76
(lp2696
g69
(g78
g71
NtRp2697
(dp2698
g74
(dp2699
g82
I5
ssg83
Nsg76
(lp2700
g69
(g85
g71
NtRp2701
(dp2702
g74
(dp2703
sg83
g2697
sg76
(lp2704
g69
(g90
g71
NtRp2705
(dp2706
g74
(dp2707
g94
g95
ssg83
g2701
sg76
(lp2708
S'auth'
p2709
asbag69
(g90
g71
NtRp2710
(dp2711
g74
(dp2712
g101
g102
ssg83
g2701
sg76
(lp2713
S':'
asbag69
(g90
g71
NtRp2714
(dp2715
g74
(dp2716
sg83
g2701
sg76
(lp2717
g69
(g70
g71
NtRp2718
(dp2719
g74
(dp2720
g82
I5
ssg83
g2714
sg76
(lp2721
g69
(g78
g71
NtRp2722
(dp2723
g74
(dp2724
g82
I4
ssg83
Nsg76
(lp2725
g69
(g85
g71
NtRp2726
(dp2727
g74
(dp2728
sg83
g2722
sg76
(lp2729
g69
(g90
g71
NtRp2730
(dp2731
g74
(dp2732
g94
g95
ssg83
g2726
sg76
(lp2733
S'expiration'
p2734
asbag69
(g90
g71
NtRp2735
(dp2736
g74
(dp2737
g101
g102
ssg83
g2726
sg76
(lp2738
S':'
asbag69
(g90
g71
NtRp2739
(dp2740
g74
(dp2741
sg83
g2726
sg76
(lp2742
g69
(g70
g71
NtRp2743
(dp2744
g74
(dp2745
g82
I4
ssg83
g2739
sg76
(lp2746
S'3600'
p2747
asbasbasbag69
(g85
g71
NtRp2748
(dp2749
g74
(dp2750
sg83
g2722
sg76
(lp2751
g69
(g90
g71
NtRp2752
(dp2753
g74
(dp2754
g94
g95
ssg83
g2748
sg76
(lp2755
S'hmac_key'
p2756
asbag69
(g90
g71
NtRp2757
(dp2758
g74
(dp2759
g101
g102
ssg83
g2748
sg76
(lp2760
S':'
asbag69
(g90
g71
NtRp2761
(dp2762
g74
(dp2763
sg83
g2748
sg76
(lp2764
g69
(g70
g71
NtRp2765
(dp2766
g74
(dp2767
g82
I4
ssg83
g2761
sg76
(lp2768
S'e4ac3fb1-b7b6-4776-a4b7-286441f8b0f1'
p2769
asbasbasbag69
(g85
g71
NtRp2770
(dp2771
g74
(dp2772
sg83
g2722
sg76
(lp2773
g69
(g90
g71
NtRp2774
(dp2775
g74
(dp2776
g94
g95
ssg83
g2770
sg76
(lp2777
S'last_visit'
p2778
asbag69
(g90
g71
NtRp2779
(dp2780
g74
(dp2781
g101
g102
ssg83
g2770
sg76
(lp2782
S':'
asbag69
(g90
g71
NtRp2783
(dp2784
g74
(dp2785
sg83
g2770
sg76
(lp2786
g69
(g70
g71
NtRp2787
(dp2788
g74
(dp2789
g82
I4
ssg83
g2783
sg76
(lp2790
S'datetime.datetime(2012, 4, 21, 22, 22, 40, 968000)'
p2791
asbasbasbag69
(g85
g71
NtRp2792
(dp2793
g74
(dp2794
sg83
g2722
sg76
(lp2795
g69
(g90
g71
NtRp2796
(dp2797
g74
(dp2798
g94
g95
ssg83
g2792
sg76
(lp2799
S'remember'
p2800
asbag69
(g90
g71
NtRp2801
(dp2802
g74
(dp2803
g101
g102
ssg83
g2792
sg76
(lp2804
S':'
asbag69
(g90
g71
NtRp2805
(dp2806
g74
(dp2807
sg83
g2792
sg76
(lp2808
g69
(g70
g71
NtRp2809
(dp2810
g74
(dp2811
g82
I4
ssg83
g2805
sg76
(lp2812
g112
asbasbasbag69
(g85
g71
NtRp2813
(dp2814
g74
(dp2815
sg83
g2722
sg76
(lp2816
g69
(g90
g71
NtRp2817
(dp2818
g74
(dp2819
g94
g95
ssg83
g2813
sg76
(lp2820
S'user'
p2821
asbag69
(g90
g71
NtRp2822
(dp2823
g74
(dp2824
g101
g102
ssg83
g2813
sg76
(lp2825
S':'
asbag69
(g90
g71
NtRp2826
(dp2827
g74
(dp2828
sg83
g2813
sg76
(lp2829
g69
(g70
g71
NtRp2830
(dp2831
g74
(dp2832
g82
I4
ssg83
g2826
sg76
(lp2833
g69
(g78
g71
NtRp2834
(dp2835
g74
(dp2836
g82
I3
ssg83
Nsg76
(lp2837
g69
(g85
g71
NtRp2838
(dp2839
g74
(dp2840
sg83
g2834
sg76
(lp2841
g69
(g90
g71
NtRp2842
(dp2843
g74
(dp2844
g94
g95
ssg83
g2838
sg76
(lp2845
S'created_on'
p2846
asbag69
(g90
g71
NtRp2847
(dp2848
g74
(dp2849
g101
g102
ssg83
g2838
sg76
(lp2850
S':'
asbag69
(g90
g71
NtRp2851
(dp2852
g74
(dp2853
sg83
g2838
sg76
(lp2854
g69
(g70
g71
NtRp2855
(dp2856
g74
(dp2857
g82
I3
ssg83
g2851
sg76
(lp2858
S'datetime.datetime(2012, 4, 14, 20, 20, 15)'
p2859
asbasbasbag69
(g85
g71
NtRp2860
(dp2861
g74
(dp2862
sg83
g2834
sg76
(lp2863
g69
(g90
g71
NtRp2864
(dp2865
g74
(dp2866
g94
g95
ssg83
g2860
sg76
(lp2867
S'email'
p2868
asbag69
(g90
g71
NtRp2869
(dp2870
g74
(dp2871
g101
g102
ssg83
g2860
sg76
(lp2872
S':'
asbag69
(g90
g71
NtRp2873
(dp2874
g74
(dp2875
sg83
g2860
sg76
(lp2876
g69
(g70
g71
NtRp2877
(dp2878
g74
(dp2879
g82
I3
ssg83
g2873
sg76
(lp2880
S'maximiliano.alcaraz@aeg.com.ar'
p2881
asbasbasbag69
(g85
g71
NtRp2882
(dp2883
g74
(dp2884
sg83
g2834
sg76
(lp2885
g69
(g90
g71
NtRp2886
(dp2887
g74
(dp2888
g94
g95
ssg83
g2882
sg76
(lp2889
S'first_name'
p2890
asbag69
(g90
g71
NtRp2891
(dp2892
g74
(dp2893
g101
g102
ssg83
g2882
sg76
(lp2894
S':'
asbag69
(g90
g71
NtRp2895
(dp2896
g74
(dp2897
sg83
g2882
sg76
(lp2898
g69
(g70
g71
NtRp2899
(dp2900
g74
(dp2901
g82
I3
ssg83
g2895
sg76
(lp2902
S'Maximiliano'
p2903
asbasbasbag69
(g85
g71
NtRp2904
(dp2905
g74
(dp2906
sg83
g2834
sg76
(lp2907
g69
(g90
g71
NtRp2908
(dp2909
g74
(dp2910
g94
g95
ssg83
g2904
sg76
(lp2911
S'id'
p2912
asbag69
(g90
g71
NtRp2913
(dp2914
g74
(dp2915
g101
g102
ssg83
g2904
sg76
(lp2916
S':'
asbag69
(g90
g71
NtRp2917
(dp2918
g74
(dp2919
sg83
g2904
sg76
(lp2920
g69
(g70
g71
NtRp2921
(dp2922
g74
(dp2923
g82
I3
ssg83
g2917
sg76
(lp2924
S'15'
p2925
asbasbasbag69
(g85
g71
NtRp2926
(dp2927
g74
(dp2928
sg83
g2834
sg76
(lp2929
g69
(g90
g71
NtRp2930
(dp2931
g74
(dp2932
g94
g95
ssg83
g2926
sg76
(lp2933
S'last_name'
p2934
asbag69
(g90
g71
NtRp2935
(dp2936
g74
(dp2937
g101
g102
ssg83
g2926
sg76
(lp2938
S':'
asbag69
(g90
g71
NtRp2939
(dp2940
g74
(dp2941
sg83
g2926
sg76
(lp2942
g69
(g70
g71
NtRp2943
(dp2944
g74
(dp2945
g82
I3
ssg83
g2939
sg76
(lp2946
S'Alcaraz'
p2947
asbasbasbag69
(g85
g71
NtRp2948
(dp2949
g74
(dp2950
sg83
g2834
sg76
(lp2951
g69
(g90
g71
NtRp2952
(dp2953
g74
(dp2954
g94
g95
ssg83
g2948
sg76
(lp2955
S'modified_on'
p2956
asbag69
(g90
g71
NtRp2957
(dp2958
g74
(dp2959
g101
g102
ssg83
g2948
sg76
(lp2960
S':'
asbag69
(g90
g71
NtRp2961
(dp2962
g74
(dp2963
sg83
g2948
sg76
(lp2964
g69
(g70
g71
NtRp2965
(dp2966
g74
(dp2967
g82
I3
ssg83
g2961
sg76
(lp2968
S'datetime.datetime(2012, 4, 14, 20, 20, 15)'
p2969
asbasbasbag69
(g85
g71
NtRp2970
(dp2971
g74
(dp2972
sg83
g2834
sg76
(lp2973
g69
(g90
g71
NtRp2974
(dp2975
g74
(dp2976
g94
g95
ssg83
g2970
sg76
(lp2977
S'password'
p2978
asbag69
(g90
g71
NtRp2979
(dp2980
g74
(dp2981
g101
g102
ssg83
g2970
sg76
(lp2982
S':'
asbag69
(g90
g71
NtRp2983
(dp2984
g74
(dp2985
sg83
g2970
sg76
(lp2986
g69
(g70
g71
NtRp2987
(dp2988
g74
(dp2989
g82
I3
ssg83
g2983
sg76
(lp2990
S'3b00954a2acd03e4a32d91f4bdebb4b7'
p2991
asbasbasbag69
(g85
g71
NtRp2992
(dp2993
g74
(dp2994
sg83
g2834
sg76
(lp2995
g69
(g90
g71
NtRp2996
(dp2997
g74
(dp2998
g94
g95
ssg83
g2992
sg76
(lp2999
S'registration_id'
p3000
asbag69
(g90
g71
NtRp3001
(dp3002
g74
(dp3003
g101
g102
ssg83
g2992
sg76
(lp3004
S':'
asbag69
(g90
g71
NtRp3005
(dp3006
g74
(dp3007
sg83
g2992
sg76
(lp3008
g69
(g70
g71
NtRp3009
(dp3010
g74
(dp3011
g82
I3
ssg83
g3005
sg76
(lp3012
S''
asbasbasbag69
(g85
g71
NtRp3013
(dp3014
g74
(dp3015
sg83
g2834
sg76
(lp3016
g69
(g90
g71
NtRp3017
(dp3018
g74
(dp3019
g94
g95
ssg83
g3013
sg76
(lp3020
S'registration_key'
p3021
asbag69
(g90
g71
NtRp3022
(dp3023
g74
(dp3024
g101
g102
ssg83
g3013
sg76
(lp3025
S':'
asbag69
(g90
g71
NtRp3026
(dp3027
g74
(dp3028
sg83
g3013
sg76
(lp3029
g69
(g70
g71
NtRp3030
(dp3031
g74
(dp3032
g82
I3
ssg83
g3026
sg76
(lp3033
S''
asbasbasbag69
(g85
g71
NtRp3034
(dp3035
g74
(dp3036
sg83
g2834
sg76
(lp3037
g69
(g90
g71
NtRp3038
(dp3039
g74
(dp3040
g94
g95
ssg83
g3034
sg76
(lp3041
S'reset_password_key'
p3042
asbag69
(g90
g71
NtRp3043
(dp3044
g74
(dp3045
g101
g102
ssg83
g3034
sg76
(lp3046
S':'
asbag69
(g90
g71
NtRp3047
(dp3048
g74
(dp3049
sg83
g3034
sg76
(lp3050
g69
(g70
g71
NtRp3051
(dp3052
g74
(dp3053
g82
I3
ssg83
g3047
sg76
(lp3054
S''
asbasbasbag69
(g85
g71
NtRp3055
(dp3056
g74
(dp3057
sg83
g2834
sg76
(lp3058
g69
(g90
g71
NtRp3059
(dp3060
g74
(dp3061
g94
g95
ssg83
g3055
sg76
(lp3062
S'username'
p3063
asbag69
(g90
g71
NtRp3064
(dp3065
g74
(dp3066
g101
g102
ssg83
g3055
sg76
(lp3067
S':'
asbag69
(g90
g71
NtRp3068
(dp3069
g74
(dp3070
sg83
g3055
sg76
(lp3071
g69
(g70
g71
NtRp3072
(dp3073
g74
(dp3074
g82
I3
ssg83
g3068
sg76
(lp3075
S'maxi'
p3076
asbasbasbasbasbasbasbag69
(g85
g71
NtRp3077
(dp3078
g74
(dp3079
sg83
g2722
sg76
(lp3080
g69
(g90
g71
NtRp3081
(dp3082
g74
(dp3083
g94
g95
ssg83
g3077
sg76
(lp3084
S'user_groups'
p3085
asbag69
(g90
g71
NtRp3086
(dp3087
g74
(dp3088
g101
g102
ssg83
g3077
sg76
(lp3089
S':'
asbag69
(g90
g71
NtRp3090
(dp3091
g74
(dp3092
sg83
g3077
sg76
(lp3093
g69
(g70
g71
NtRp3094
(dp3095
g74
(dp3096
g82
I4
ssg83
g3090
sg76
(lp3097
g69
(g78
g71
NtRp3098
(dp3099
g74
(dp3100
g82
I3
ssg83
Nsg76
(lp3101
g69
(g85
g71
NtRp3102
(dp3103
g74
(dp3104
sg83
g3098
sg76
(lp3105
g69
(g90
g71
NtRp3106
(dp3107
g74
(dp3108
g94
g95
ssg83
g3102
sg76
(lp3109
S'5'
asbag69
(g90
g71
NtRp3110
(dp3111
g74
(dp3112
g101
g102
ssg83
g3102
sg76
(lp3113
S':'
asbag69
(g90
g71
NtRp3114
(dp3115
g74
(dp3116
sg83
g3102
sg76
(lp3117
g69
(g70
g71
NtRp3118
(dp3119
g74
(dp3120
g82
I3
ssg83
g3114
sg76
(lp3121
S'Admin'
p3122
asbasbasbasbasbasbasbasbasbasbasbasbasbsS'etype'
p3123
S"<type 'exceptions.SyntaxError'>"
p3124
sS'date'
p3125
S'Sat Apr 21 22:27:54 2012'
p3126
sS'response'
p3127
g69
(g70
g71
NtRp3128
(dp3129
g74
(dp3130
sg76
(lp3131
g69
(g78
g71
NtRp3132
(dp3133
g74
(dp3134
g82
I5
ssg83
Nsg76
(lp3135
g69
(g85
g71
NtRp3136
(dp3137
g74
(dp3138
sg83
g3132
sg76
(lp3139
g69
(g90
g71
NtRp3140
(dp3141
g74
(dp3142
g94
g95
ssg83
g3136
sg76
(lp3143
g180
asbag69
(g90
g71
NtRp3144
(dp3145
g74
(dp3146
g101
g102
ssg83
g3136
sg76
(lp3147
S':'
asbag69
(g90
g71
NtRp3148
(dp3149
g74
(dp3150
sg83
g3136
sg76
(lp3151
g69
(g70
g71
NtRp3152
(dp3153
g74
(dp3154
g82
I5
ssg83
g3148
sg76
(lp3155
S'<cStringIO.StringO object at 0x0000000008F245E0>'
p3156
asbasbasbag69
(g85
g71
NtRp3157
(dp3158
g74
(dp3159
sg83
g3132
sg76
(lp3160
g69
(g90
g71
NtRp3161
(dp3162
g74
(dp3163
g94
g95
ssg83
g3157
sg76
(lp3164
g246
asbag69
(g90
g71
NtRp3165
(dp3166
g74
(dp3167
g101
g102
ssg83
g3157
sg76
(lp3168
S':'
asbag69
(g90
g71
NtRp3169
(dp3170
g74
(dp3171
sg83
g3157
sg76
(lp3172
g69
(g70
g71
NtRp3173
(dp3174
g74
(dp3175
g82
I5
ssg83
g3169
sg76
(lp3176
g69
(g78
g71
NtRp3177
(dp3178
g74
(dp3179
g82
I4
ssg83
Nsg76
(lp3180
g69
(g85
g71
NtRp3181
(dp3182
g74
(dp3183
sg83
g3177
sg76
(lp3184
g69
(g90
g71
NtRp3185
(dp3186
g74
(dp3187
g94
g95
ssg83
g3181
sg76
(lp3188
S'session_id_init'
p3189
asbag69
(g90
g71
NtRp3190
(dp3191
g74
(dp3192
g101
g102
ssg83
g3181
sg76
(lp3193
S':'
asbag69
(g90
g71
NtRp3194
(dp3195
g74
(dp3196
sg83
g3181
sg76
(lp3197
g69
(g70
g71
NtRp3198
(dp3199
g74
(dp3200
g82
I4
ssg83
g3194
sg76
(lp3201
g69
(g78
g71
NtRp3202
(dp3203
g74
(dp3204
g82
I3
ssg83
Nsg76
(lp3205
g69
(g85
g71
NtRp3206
(dp3207
g74
(dp3208
sg83
g3202
sg76
(lp3209
g69
(g90
g71
NtRp3210
(dp3211
g74
(dp3212
g94
g95
ssg83
g3206
sg76
(lp3213
g296
asbag69
(g90
g71
NtRp3214
(dp3215
g74
(dp3216
g101
g102
ssg83
g3206
sg76
(lp3217
S':'
asbag69
(g90
g71
NtRp3218
(dp3219
g74
(dp3220
sg83
g3206
sg76
(lp3221
g69
(g70
g71
NtRp3222
(dp3223
g74
(dp3224
g82
I3
ssg83
g3218
sg76
(lp3225
S''
asbasbasbag69
(g85
g71
NtRp3226
(dp3227
g74
(dp3228
sg83
g3202
sg76
(lp3229
g69
(g90
g71
NtRp3230
(dp3231
g74
(dp3232
g94
g95
ssg83
g3226
sg76
(lp3233
g317
asbag69
(g90
g71
NtRp3234
(dp3235
g74
(dp3236
g101
g102
ssg83
g3226
sg76
(lp3237
S':'
asbag69
(g90
g71
NtRp3238
(dp3239
g74
(dp3240
sg83
g3226
sg76
(lp3241
g69
(g70
g71
NtRp3242
(dp3243
g74
(dp3244
g82
I3
ssg83
g3238
sg76
(lp3245
S''
asbasbasbag69
(g85
g71
NtRp3246
(dp3247
g74
(dp3248
sg83
g3202
sg76
(lp3249
g69
(g90
g71
NtRp3250
(dp3251
g74
(dp3252
g94
g95
ssg83
g3246
sg76
(lp3253
g338
asbag69
(g90
g71
NtRp3254
(dp3255
g74
(dp3256
g101
g102
ssg83
g3246
sg76
(lp3257
S':'
asbag69
(g90
g71
NtRp3258
(dp3259
g74
(dp3260
sg83
g3246
sg76
(lp3261
g69
(g70
g71
NtRp3262
(dp3263
g74
(dp3264
g82
I3
ssg83
g3258
sg76
(lp3265
S''
asbasbasbag69
(g85
g71
NtRp3266
(dp3267
g74
(dp3268
sg83
g3202
sg76
(lp3269
g69
(g90
g71
NtRp3270
(dp3271
g74
(dp3272
g94
g95
ssg83
g3266
sg76
(lp3273
g359
asbag69
(g90
g71
NtRp3274
(dp3275
g74
(dp3276
g101
g102
ssg83
g3266
sg76
(lp3277
S':'
asbag69
(g90
g71
NtRp3278
(dp3279
g74
(dp3280
sg83
g3266
sg76
(lp3281
g69
(g70
g71
NtRp3282
(dp3283
g74
(dp3284
g82
I3
ssg83
g3278
sg76
(lp3285
S''
asbasbasbag69
(g85
g71
NtRp3286
(dp3287
g74
(dp3288
sg83
g3202
sg76
(lp3289
g69
(g90
g71
NtRp3290
(dp3291
g74
(dp3292
g94
g95
ssg83
g3286
sg76
(lp3293
g380
asbag69
(g90
g71
NtRp3294
(dp3295
g74
(dp3296
g101
g102
ssg83
g3286
sg76
(lp3297
S':'
asbag69
(g90
g71
NtRp3298
(dp3299
g74
(dp3300
sg83
g3286
sg76
(lp3301
g69
(g70
g71
NtRp3302
(dp3303
g74
(dp3304
g82
I3
ssg83
g3298
sg76
(lp3305
S''
asbasbasbag69
(g85
g71
NtRp3306
(dp3307
g74
(dp3308
sg83
g3202
sg76
(lp3309
g69
(g90
g71
NtRp3310
(dp3311
g74
(dp3312
g94
g95
ssg83
g3306
sg76
(lp3313
g401
asbag69
(g90
g71
NtRp3314
(dp3315
g74
(dp3316
g101
g102
ssg83
g3306
sg76
(lp3317
S':'
asbag69
(g90
g71
NtRp3318
(dp3319
g74
(dp3320
sg83
g3306
sg76
(lp3321
g69
(g70
g71
NtRp3322
(dp3323
g74
(dp3324
g82
I3
ssg83
g3318
sg76
(lp3325
S'/'
asbasbasbag69
(g85
g71
NtRp3326
(dp3327
g74
(dp3328
sg83
g3202
sg76
(lp3329
g69
(g90
g71
NtRp3330
(dp3331
g74
(dp3332
g94
g95
ssg83
g3326
sg76
(lp3333
g422
asbag69
(g90
g71
NtRp3334
(dp3335
g74
(dp3336
g101
g102
ssg83
g3326
sg76
(lp3337
S':'
asbag69
(g90
g71
NtRp3338
(dp3339
g74
(dp3340
sg83
g3326
sg76
(lp3341
g69
(g70
g71
NtRp3342
(dp3343
g74
(dp3344
g82
I3
ssg83
g3338
sg76
(lp3345
S''
asbasbasbag69
(g85
g71
NtRp3346
(dp3347
g74
(dp3348
sg83
g3202
sg76
(lp3349
g69
(g90
g71
NtRp3350
(dp3351
g74
(dp3352
g94
g95
ssg83
g3346
sg76
(lp3353
g443
asbag69
(g90
g71
NtRp3354
(dp3355
g74
(dp3356
g101
g102
ssg83
g3346
sg76
(lp3357
S':'
asbag69
(g90
g71
NtRp3358
(dp3359
g74
(dp3360
sg83
g3346
sg76
(lp3361
g69
(g70
g71
NtRp3362
(dp3363
g74
(dp3364
g82
I3
ssg83
g3358
sg76
(lp3365
S''
asbasbasbasbasbasbasbasbasbasbasbag69
(g85
g71
NtRp3366
(dp3367
g74
(dp3368
sg83
g3132
sg76
(lp3369
g69
(g90
g71
NtRp3370
(dp3371
g74
(dp3372
g94
g95
ssg83
g3366
sg76
(lp3373
S'delimiters'
p3374
asbag69
(g90
g71
NtRp3375
(dp3376
g74
(dp3377
g101
g102
ssg83
g3366
sg76
(lp3378
S':'
asbag69
(g90
g71
NtRp3379
(dp3380
g74
(dp3381
sg83
g3366
sg76
(lp3382
g69
(g70
g71
NtRp3383
(dp3384
g74
(dp3385
g82
I5
ssg83
g3379
sg76
(lp3386
g69
(g78
g71
NtRp3387
(dp3388
g74
(dp3389
g82
I4
ssg83
Nsg76
(lp3390
g69
(g85
g71
NtRp3391
(dp3392
g74
(dp3393
sg83
g3387
sg76
(lp3394
g69
(g90
g71
NtRp3395
(dp3396
g74
(dp3397
sg83
g3391
sg76
(lp3398
g69
(g70
g71
NtRp3399
(dp3400
g74
(dp3401
g82
I4
ssg83
g3395
sg76
(lp3402
S'{{'
p3403
asbasbasbag69
(g85
g71
NtRp3404
(dp3405
g74
(dp3406
sg83
g3387
sg76
(lp3407
g69
(g90
g71
NtRp3408
(dp3409
g74
(dp3410
sg83
g3404
sg76
(lp3411
g69
(g70
g71
NtRp3412
(dp3413
g74
(dp3414
g82
I4
ssg83
g3408
sg76
(lp3415
S'}}'
p3416
asbasbasbasbasbasbasbag69
(g85
g71
NtRp3417
(dp3418
g74
(dp3419
sg83
g3132
sg76
(lp3420
g69
(g90
g71
NtRp3421
(dp3422
g74
(dp3423
g94
g95
ssg83
g3417
sg76
(lp3424
S'files'
p3425
asbag69
(g90
g71
NtRp3426
(dp3427
g74
(dp3428
g101
g102
ssg83
g3417
sg76
(lp3429
S':'
asbag69
(g90
g71
NtRp3430
(dp3431
g74
(dp3432
sg83
g3417
sg76
(lp3433
g69
(g70
g71
NtRp3434
(dp3435
g74
(dp3436
g82
I5
ssg83
g3430
sg76
(lp3437
g69
(g78
g71
NtRp3438
(dp3439
g74
(dp3440
g82
I4
ssg83
Nsg76
(lp3441
sbasbasbasbag69
(g85
g71
NtRp3442
(dp3443
g74
(dp3444
sg83
g3132
sg76
(lp3445
g69
(g90
g71
NtRp3446
(dp3447
g74
(dp3448
g94
g95
ssg83
g3442
sg76
(lp3449
S'flash'
p3450
asbag69
(g90
g71
NtRp3451
(dp3452
g74
(dp3453
g101
g102
ssg83
g3442
sg76
(lp3454
S':'
asbag69
(g90
g71
NtRp3455
(dp3456
g74
(dp3457
sg83
g3442
sg76
(lp3458
g69
(g70
g71
NtRp3459
(dp3460
g74
(dp3461
g82
I5
ssg83
g3455
sg76
(lp3462
S''
asbasbasbag69
(g85
g71
NtRp3463
(dp3464
g74
(dp3465
sg83
g3132
sg76
(lp3466
g69
(g90
g71
NtRp3467
(dp3468
g74
(dp3469
g94
g95
ssg83
g3463
sg76
(lp3470
S'generic_patterns'
p3471
asbag69
(g90
g71
NtRp3472
(dp3473
g74
(dp3474
g101
g102
ssg83
g3463
sg76
(lp3475
S':'
asbag69
(g90
g71
NtRp3476
(dp3477
g74
(dp3478
sg83
g3463
sg76
(lp3479
g69
(g70
g71
NtRp3480
(dp3481
g74
(dp3482
g82
I5
ssg83
g3476
sg76
(lp3483
g69
(g78
g71
NtRp3484
(dp3485
g74
(dp3486
g82
I4
ssg83
Nsg76
(lp3487
g69
(g85
g71
NtRp3488
(dp3489
g74
(dp3490
sg83
g3484
sg76
(lp3491
g69
(g90
g71
NtRp3492
(dp3493
g74
(dp3494
sg83
g3488
sg76
(lp3495
g69
(g70
g71
NtRp3496
(dp3497
g74
(dp3498
g82
I4
ssg83
g3492
sg76
(lp3499
S'*'
asbasbasbasbasbasbasbag69
(g85
g71
NtRp3500
(dp3501
g74
(dp3502
sg83
g3132
sg76
(lp3503
g69
(g90
g71
NtRp3504
(dp3505
g74
(dp3506
g94
g95
ssg83
g3500
sg76
(lp3507
S'headers'
p3508
asbag69
(g90
g71
NtRp3509
(dp3510
g74
(dp3511
g101
g102
ssg83
g3500
sg76
(lp3512
S':'
asbag69
(g90
g71
NtRp3513
(dp3514
g74
(dp3515
sg83
g3500
sg76
(lp3516
g69
(g70
g71
NtRp3517
(dp3518
g74
(dp3519
g82
I5
ssg83
g3513
sg76
(lp3520
g69
(g78
g71
NtRp3521
(dp3522
g74
(dp3523
g82
I4
ssg83
Nsg76
(lp3524
g69
(g85
g71
NtRp3525
(dp3526
g74
(dp3527
sg83
g3521
sg76
(lp3528
g69
(g90
g71
NtRp3529
(dp3530
g74
(dp3531
g94
g95
ssg83
g3525
sg76
(lp3532
S'Cache-Control'
p3533
asbag69
(g90
g71
NtRp3534
(dp3535
g74
(dp3536
g101
g102
ssg83
g3525
sg76
(lp3537
S':'
asbag69
(g90
g71
NtRp3538
(dp3539
g74
(dp3540
sg83
g3525
sg76
(lp3541
g69
(g70
g71
NtRp3542
(dp3543
g74
(dp3544
g82
I4
ssg83
g3538
sg76
(lp3545
S'no-store, no-cache, must-revalidate, post-check=0, pre-check=0'
p3546
asbasbasbag69
(g85
g71
NtRp3547
(dp3548
g74
(dp3549
sg83
g3521
sg76
(lp3550
g69
(g90
g71
NtRp3551
(dp3552
g74
(dp3553
g94
g95
ssg83
g3547
sg76
(lp3554
S'Content-Type'
p3555
asbag69
(g90
g71
NtRp3556
(dp3557
g74
(dp3558
g101
g102
ssg83
g3547
sg76
(lp3559
S':'
asbag69
(g90
g71
NtRp3560
(dp3561
g74
(dp3562
sg83
g3547
sg76
(lp3563
g69
(g70
g71
NtRp3564
(dp3565
g74
(dp3566
g82
I4
ssg83
g3560
sg76
(lp3567
S'text/html; charset=utf-8'
p3568
asbasbasbag69
(g85
g71
NtRp3569
(dp3570
g74
(dp3571
sg83
g3521
sg76
(lp3572
g69
(g90
g71
NtRp3573
(dp3574
g74
(dp3575
g94
g95
ssg83
g3569
sg76
(lp3576
S'Expires'
p3577
asbag69
(g90
g71
NtRp3578
(dp3579
g74
(dp3580
g101
g102
ssg83
g3569
sg76
(lp3581
S':'
asbag69
(g90
g71
NtRp3582
(dp3583
g74
(dp3584
sg83
g3569
sg76
(lp3585
g69
(g70
g71
NtRp3586
(dp3587
g74
(dp3588
g82
I4
ssg83
g3582
sg76
(lp3589
S'Sun, 22 Apr 2012 01:27:54 GMT'
p3590
asbasbasbag69
(g85
g71
NtRp3591
(dp3592
g74
(dp3593
sg83
g3521
sg76
(lp3594
g69
(g90
g71
NtRp3595
(dp3596
g74
(dp3597
g94
g95
ssg83
g3591
sg76
(lp3598
S'Pragma'
p3599
asbag69
(g90
g71
NtRp3600
(dp3601
g74
(dp3602
g101
g102
ssg83
g3591
sg76
(lp3603
S':'
asbag69
(g90
g71
NtRp3604
(dp3605
g74
(dp3606
sg83
g3591
sg76
(lp3607
g69
(g70
g71
NtRp3608
(dp3609
g74
(dp3610
g82
I4
ssg83
g3604
sg76
(lp3611
S'no-cache'
p3612
asbasbasbag69
(g85
g71
NtRp3613
(dp3614
g74
(dp3615
sg83
g3521
sg76
(lp3616
g69
(g90
g71
NtRp3617
(dp3618
g74
(dp3619
g94
g95
ssg83
g3613
sg76
(lp3620
S'X-Powered-By'
p3621
asbag69
(g90
g71
NtRp3622
(dp3623
g74
(dp3624
g101
g102
ssg83
g3613
sg76
(lp3625
S':'
asbag69
(g90
g71
NtRp3626
(dp3627
g74
(dp3628
sg83
g3613
sg76
(lp3629
g69
(g70
g71
NtRp3630
(dp3631
g74
(dp3632
g82
I4
ssg83
g3626
sg76
(lp3633
S'web2py'
p3634
asbasbasbasbasbasbasbag69
(g85
g71
NtRp3635
(dp3636
g74
(dp3637
sg83
g3132
sg76
(lp3638
g69
(g90
g71
NtRp3639
(dp3640
g74
(dp3641
g94
g95
ssg83
g3635
sg76
(lp3642
S'menu'
p3643
asbag69
(g90
g71
NtRp3644
(dp3645
g74
(dp3646
g101
g102
ssg83
g3635
sg76
(lp3647
S':'
asbag69
(g90
g71
NtRp3648
(dp3649
g74
(dp3650
sg83
g3635
sg76
(lp3651
g69
(g70
g71
NtRp3652
(dp3653
g74
(dp3654
g82
I5
ssg83
g3648
sg76
(lp3655
g69
(g78
g71
NtRp3656
(dp3657
g74
(dp3658
g82
I4
ssg83
Nsg76
(lp3659
g69
(g85
g71
NtRp3660
(dp3661
g74
(dp3662
sg83
g3656
sg76
(lp3663
g69
(g90
g71
NtRp3664
(dp3665
g74
(dp3666
sg83
g3660
sg76
(lp3667
g69
(g70
g71
NtRp3668
(dp3669
g74
(dp3670
g82
I4
ssg83
g3664
sg76
(lp3671
g69
(g78
g71
NtRp3672
(dp3673
g74
(dp3674
g82
I3
ssg83
Nsg76
(lp3675
g69
(g85
g71
NtRp3676
(dp3677
g74
(dp3678
sg83
g3672
sg76
(lp3679
g69
(g90
g71
NtRp3680
(dp3681
g74
(dp3682
sg83
g3676
sg76
(lp3683
g69
(g70
g71
NtRp3684
(dp3685
g74
(dp3686
g82
I3
ssg83
g3680
sg76
(lp3687
cgluon.languages
lazyT_unpickle
p3688
(S't\x06\x00\x00\x00Inicio'
tRp3689
asbasbasbag69
(g85
g71
NtRp3690
(dp3691
g74
(dp3692
sg83
g3672
sg76
(lp3693
g69
(g90
g71
NtRp3694
(dp3695
g74
(dp3696
sg83
g3690
sg76
(lp3697
g69
(g70
g71
NtRp3698
(dp3699
g74
(dp3700
g82
I3
ssg83
g3694
sg76
(lp3701
g112
asbasbasbag69
(g85
g71
NtRp3702
(dp3703
g74
(dp3704
sg83
g3672
sg76
(lp3705
g69
(g90
g71
NtRp3706
(dp3707
g74
(dp3708
sg83
g3702
sg76
(lp3709
g69
(g70
g71
NtRp3710
(dp3711
g74
(dp3712
g82
I3
ssg83
g3706
sg76
(lp3713
S'/init/default/index'
p3714
asbasbasbag69
(g85
g71
NtRp3715
(dp3716
g74
(dp3717
sg83
g3672
sg76
(lp3718
g69
(g90
g71
NtRp3719
(dp3720
g74
(dp3721
sg83
g3715
sg76
(lp3722
g69
(g70
g71
NtRp3723
(dp3724
g74
(dp3725
g82
I3
ssg83
g3719
sg76
(lp3726
g69
(g78
g71
NtRp3727
(dp3728
g74
(dp3729
g82
I2
ssg83
Nsg76
(lp3730
sbasbasbasbasbasbasbasbag69
(g85
g71
NtRp3731
(dp3732
g74
(dp3733
sg83
g3656
sg76
(lp3734
g69
(g90
g71
NtRp3735
(dp3736
g74
(dp3737
sg83
g3731
sg76
(lp3738
g69
(g70
g71
NtRp3739
(dp3740
g74
(dp3741
g82
I4
ssg83
g3735
sg76
(lp3742
g69
(g78
g71
NtRp3743
(dp3744
g74
(dp3745
g82
I3
ssg83
Nsg76
(lp3746
g69
(g85
g71
NtRp3747
(dp3748
g74
(dp3749
sg83
g3743
sg76
(lp3750
g69
(g90
g71
NtRp3751
(dp3752
g74
(dp3753
sg83
g3747
sg76
(lp3754
g69
(g70
g71
NtRp3755
(dp3756
g74
(dp3757
g82
I3
ssg83
g3751
sg76
(lp3758
g3688
(S't\x07\x00\x00\x00cliente'
tRp3759
asbasbasbag69
(g85
g71
NtRp3760
(dp3761
g74
(dp3762
sg83
g3743
sg76
(lp3763
g69
(g90
g71
NtRp3764
(dp3765
g74
(dp3766
sg83
g3760
sg76
(lp3767
g69
(g70
g71
NtRp3768
(dp3769
g74
(dp3770
g82
I3
ssg83
g3764
sg76
(lp3771
g112
asbasbasbag69
(g85
g71
NtRp3772
(dp3773
g74
(dp3774
sg83
g3743
sg76
(lp3775
g69
(g90
g71
NtRp3776
(dp3777
g74
(dp3778
sg83
g3772
sg76
(lp3779
g69
(g70
g71
NtRp3780
(dp3781
g74
(dp3782
g82
I3
ssg83
g3776
sg76
(lp3783
S'/init/default/cliente'
p3784
asbasbasbag69
(g85
g71
NtRp3785
(dp3786
g74
(dp3787
sg83
g3743
sg76
(lp3788
g69
(g90
g71
NtRp3789
(dp3790
g74
(dp3791
sg83
g3785
sg76
(lp3792
g69
(g70
g71
NtRp3793
(dp3794
g74
(dp3795
g82
I3
ssg83
g3789
sg76
(lp3796
g69
(g78
g71
NtRp3797
(dp3798
g74
(dp3799
g82
I2
ssg83
Nsg76
(lp3800
sbasbasbasbasbasbasbasbag69
(g85
g71
NtRp3801
(dp3802
g74
(dp3803
sg83
g3656
sg76
(lp3804
g69
(g90
g71
NtRp3805
(dp3806
g74
(dp3807
sg83
g3801
sg76
(lp3808
g69
(g70
g71
NtRp3809
(dp3810
g74
(dp3811
g82
I4
ssg83
g3805
sg76
(lp3812
g69
(g78
g71
NtRp3813
(dp3814
g74
(dp3815
g82
I3
ssg83
Nsg76
(lp3816
g69
(g85
g71
NtRp3817
(dp3818
g74
(dp3819
sg83
g3813
sg76
(lp3820
g69
(g90
g71
NtRp3821
(dp3822
g74
(dp3823
sg83
g3817
sg76
(lp3824
g69
(g70
g71
NtRp3825
(dp3826
g74
(dp3827
g82
I3
ssg83
g3821
sg76
(lp3828
g3688
(S't\t\x00\x00\x00categoria'
tRp3829
asbasbasbag69
(g85
g71
NtRp3830
(dp3831
g74
(dp3832
sg83
g3813
sg76
(lp3833
g69
(g90
g71
NtRp3834
(dp3835
g74
(dp3836
sg83
g3830
sg76
(lp3837
g69
(g70
g71
NtRp3838
(dp3839
g74
(dp3840
g82
I3
ssg83
g3834
sg76
(lp3841
g112
asbasbasbag69
(g85
g71
NtRp3842
(dp3843
g74
(dp3844
sg83
g3813
sg76
(lp3845
g69
(g90
g71
NtRp3846
(dp3847
g74
(dp3848
sg83
g3842
sg76
(lp3849
g69
(g70
g71
NtRp3850
(dp3851
g74
(dp3852
g82
I3
ssg83
g3846
sg76
(lp3853
S'/init/default/categoria'
p3854
asbasbasbag69
(g85
g71
NtRp3855
(dp3856
g74
(dp3857
sg83
g3813
sg76
(lp3858
g69
(g90
g71
NtRp3859
(dp3860
g74
(dp3861
sg83
g3855
sg76
(lp3862
g69
(g70
g71
NtRp3863
(dp3864
g74
(dp3865
g82
I3
ssg83
g3859
sg76
(lp3866
g69
(g78
g71
NtRp3867
(dp3868
g74
(dp3869
g82
I2
ssg83
Nsg76
(lp3870
sbasbasbasbasbasbasbasbag69
(g85
g71
NtRp3871
(dp3872
g74
(dp3873
sg83
g3656
sg76
(lp3874
g69
(g90
g71
NtRp3875
(dp3876
g74
(dp3877
sg83
g3871
sg76
(lp3878
g69
(g70
g71
NtRp3879
(dp3880
g74
(dp3881
g82
I4
ssg83
g3875
sg76
(lp3882
g69
(g78
g71
NtRp3883
(dp3884
g74
(dp3885
g82
I3
ssg83
Nsg76
(lp3886
g69
(g85
g71
NtRp3887
(dp3888
g74
(dp3889
sg83
g3883
sg76
(lp3890
g69
(g90
g71
NtRp3891
(dp3892
g74
(dp3893
sg83
g3887
sg76
(lp3894
g69
(g70
g71
NtRp3895
(dp3896
g74
(dp3897
g82
I3
ssg83
g3891
sg76
(lp3898
g3688
(S't\t\x00\x00\x00articulos'
tRp3899
asbasbasbag69
(g85
g71
NtRp3900
(dp3901
g74
(dp3902
sg83
g3883
sg76
(lp3903
g69
(g90
g71
NtRp3904
(dp3905
g74
(dp3906
sg83
g3900
sg76
(lp3907
g69
(g70
g71
NtRp3908
(dp3909
g74
(dp3910
g82
I3
ssg83
g3904
sg76
(lp3911
g112
asbasbasbag69
(g85
g71
NtRp3912
(dp3913
g74
(dp3914
sg83
g3883
sg76
(lp3915
g69
(g90
g71
NtRp3916
(dp3917
g74
(dp3918
sg83
g3912
sg76
(lp3919
g69
(g70
g71
NtRp3920
(dp3921
g74
(dp3922
g82
I3
ssg83
g3916
sg76
(lp3923
S'/init/default/articulo'
p3924
asbasbasbag69
(g85
g71
NtRp3925
(dp3926
g74
(dp3927
sg83
g3883
sg76
(lp3928
g69
(g90
g71
NtRp3929
(dp3930
g74
(dp3931
sg83
g3925
sg76
(lp3932
g69
(g70
g71
NtRp3933
(dp3934
g74
(dp3935
g82
I3
ssg83
g3929
sg76
(lp3936
g69
(g78
g71
NtRp3937
(dp3938
g74
(dp3939
g82
I2
ssg83
Nsg76
(lp3940
sbasbasbasbasbasbasbasbag69
(g85
g71
NtRp3941
(dp3942
g74
(dp3943
sg83
g3656
sg76
(lp3944
g69
(g90
g71
NtRp3945
(dp3946
g74
(dp3947
sg83
g3941
sg76
(lp3948
g69
(g70
g71
NtRp3949
(dp3950
g74
(dp3951
g82
I4
ssg83
g3945
sg76
(lp3952
g69
(g78
g71
NtRp3953
(dp3954
g74
(dp3955
g82
I3
ssg83
Nsg76
(lp3956
g69
(g85
g71
NtRp3957
(dp3958
g74
(dp3959
sg83
g3953
sg76
(lp3960
g69
(g90
g71
NtRp3961
(dp3962
g74
(dp3963
sg83
g3957
sg76
(lp3964
g69
(g70
g71
NtRp3965
(dp3966
g74
(dp3967
g82
I3
ssg83
g3961
sg76
(lp3968
g3688
(S's\x13\x00\x00\x00Lista de Pendientes'
tRp3969
asbasbasbag69
(g85
g71
NtRp3970
(dp3971
g74
(dp3972
sg83
g3953
sg76
(lp3973
g69
(g90
g71
NtRp3974
(dp3975
g74
(dp3976
sg83
g3970
sg76
(lp3977
g69
(g70
g71
NtRp3978
(dp3979
g74
(dp3980
g82
I3
ssg83
g3974
sg76
(lp3981
g112
asbasbasbag69
(g85
g71
NtRp3982
(dp3983
g74
(dp3984
sg83
g3953
sg76
(lp3985
g69
(g90
g71
NtRp3986
(dp3987
g74
(dp3988
sg83
g3982
sg76
(lp3989
g69
(g70
g71
NtRp3990
(dp3991
g74
(dp3992
g82
I3
ssg83
g3986
sg76
(lp3993
S'/init/default/presupuestos2'
p3994
asbasbasbag69
(g85
g71
NtRp3995
(dp3996
g74
(dp3997
sg83
g3953
sg76
(lp3998
g69
(g90
g71
NtRp3999
(dp4000
g74
(dp4001
sg83
g3995
sg76
(lp4002
g69
(g70
g71
NtRp4003
(dp4004
g74
(dp4005
g82
I3
ssg83
g3999
sg76
(lp4006
g69
(g78
g71
NtRp4007
(dp4008
g74
(dp4009
g82
I2
ssg83
Nsg76
(lp4010
sbasbasbasbasbasbasbasbag69
(g85
g71
NtRp4011
(dp4012
g74
(dp4013
sg83
g3656
sg76
(lp4014
g69
(g90
g71
NtRp4015
(dp4016
g74
(dp4017
sg83
g4011
sg76
(lp4018
g69
(g70
g71
NtRp4019
(dp4020
g74
(dp4021
g82
I4
ssg83
g4015
sg76
(lp4022
g69
(g78
g71
NtRp4023
(dp4024
g74
(dp4025
g82
I3
ssg83
Nsg76
(lp4026
g69
(g85
g71
NtRp4027
(dp4028
g74
(dp4029
sg83
g4023
sg76
(lp4030
g69
(g90
g71
NtRp4031
(dp4032
g74
(dp4033
sg83
g4027
sg76
(lp4034
g69
(g70
g71
NtRp4035
(dp4036
g74
(dp4037
g82
I3
ssg83
g4031
sg76
(lp4038
g3688
(S't\x0c\x00\x00\x00Modificacion'
tRp4039
asbasbasbag69
(g85
g71
NtRp4040
(dp4041
g74
(dp4042
sg83
g4023
sg76
(lp4043
g69
(g90
g71
NtRp4044
(dp4045
g74
(dp4046
sg83
g4040
sg76
(lp4047
g69
(g70
g71
NtRp4048
(dp4049
g74
(dp4050
g82
I3
ssg83
g4044
sg76
(lp4051
g112
asbasbasbag69
(g85
g71
NtRp4052
(dp4053
g74
(dp4054
sg83
g4023
sg76
(lp4055
g69
(g90
g71
NtRp4056
(dp4057
g74
(dp4058
sg83
g4052
sg76
(lp4059
g69
(g70
g71
NtRp4060
(dp4061
g74
(dp4062
g82
I3
ssg83
g4056
sg76
(lp4063
S'/init/default/presupuestos'
p4064
asbasbasbag69
(g85
g71
NtRp4065
(dp4066
g74
(dp4067
sg83
g4023
sg76
(lp4068
g69
(g90
g71
NtRp4069
(dp4070
g74
(dp4071
sg83
g4065
sg76
(lp4072
g69
(g70
g71
NtRp4073
(dp4074
g74
(dp4075
g82
I3
ssg83
g4069
sg76
(lp4076
g69
(g78
g71
NtRp4077
(dp4078
g74
(dp4079
g82
I2
ssg83
Nsg76
(lp4080
sbasbasbasbasbasbasbasbag69
(g85
g71
NtRp4081
(dp4082
g74
(dp4083
sg83
g3656
sg76
(lp4084
g69
(g90
g71
NtRp4085
(dp4086
g74
(dp4087
sg83
g4081
sg76
(lp4088
g69
(g70
g71
NtRp4089
(dp4090
g74
(dp4091
g82
I4
ssg83
g4085
sg76
(lp4092
g69
(g78
g71
NtRp4093
(dp4094
g74
(dp4095
g82
I3
ssg83
Nsg76
(lp4096
g69
(g85
g71
NtRp4097
(dp4098
g74
(dp4099
sg83
g4093
sg76
(lp4100
g69
(g90
g71
NtRp4101
(dp4102
g74
(dp4103
sg83
g4097
sg76
(lp4104
g69
(g70
g71
NtRp4105
(dp4106
g74
(dp4107
g82
I3
ssg83
g4101
sg76
(lp4108
g3688
(S's\x0c\x00\x00\x00Nueva Salida'
tRp4109
asbasbasbag69
(g85
g71
NtRp4110
(dp4111
g74
(dp4112
sg83
g4093
sg76
(lp4113
g69
(g90
g71
NtRp4114
(dp4115
g74
(dp4116
sg83
g4110
sg76
(lp4117
g69
(g70
g71
NtRp4118
(dp4119
g74
(dp4120
g82
I3
ssg83
g4114
sg76
(lp4121
g112
asbasbasbag69
(g85
g71
NtRp4122
(dp4123
g74
(dp4124
sg83
g4093
sg76
(lp4125
g69
(g90
g71
NtRp4126
(dp4127
g74
(dp4128
sg83
g4122
sg76
(lp4129
g69
(g70
g71
NtRp4130
(dp4131
g74
(dp4132
g82
I3
ssg83
g4126
sg76
(lp4133
S'/init/default/movimientos'
p4134
asbasbasbag69
(g85
g71
NtRp4135
(dp4136
g74
(dp4137
sg83
g4093
sg76
(lp4138
g69
(g90
g71
NtRp4139
(dp4140
g74
(dp4141
sg83
g4135
sg76
(lp4142
g69
(g70
g71
NtRp4143
(dp4144
g74
(dp4145
g82
I3
ssg83
g4139
sg76
(lp4146
g69
(g78
g71
NtRp4147
(dp4148
g74
(dp4149
g82
I2
ssg83
Nsg76
(lp4150
sbasbasbasbasbasbasbasbasbasbasbasbag69
(g85
g71
NtRp4151
(dp4152
g74
(dp4153
sg83
g3132
sg76
(lp4154
g69
(g90
g71
NtRp4155
(dp4156
g74
(dp4157
g94
g95
ssg83
g4151
sg76
(lp4158
S'meta'
p4159
asbag69
(g90
g71
NtRp4160
(dp4161
g74
(dp4162
g101
g102
ssg83
g4151
sg76
(lp4163
S':'
asbag69
(g90
g71
NtRp4164
(dp4165
g74
(dp4166
sg83
g4151
sg76
(lp4167
g69
(g70
g71
NtRp4168
(dp4169
g74
(dp4170
g82
I5
ssg83
g4164
sg76
(lp4171
g69
(g78
g71
NtRp4172
(dp4173
g74
(dp4174
g82
I4
ssg83
Nsg76
(lp4175
g69
(g85
g71
NtRp4176
(dp4177
g74
(dp4178
sg83
g4172
sg76
(lp4179
g69
(g90
g71
NtRp4180
(dp4181
g74
(dp4182
g94
g95
ssg83
g4176
sg76
(lp4183
S'author'
p4184
asbag69
(g90
g71
NtRp4185
(dp4186
g74
(dp4187
g101
g102
ssg83
g4176
sg76
(lp4188
S':'
asbag69
(g90
g71
NtRp4189
(dp4190
g74
(dp4191
sg83
g4176
sg76
(lp4192
g69
(g70
g71
NtRp4193
(dp4194
g74
(dp4195
g82
I4
ssg83
g4189
sg76
(lp4196
S'jorge a <jorge.agua@gmail.com>'
p4197
asbasbasbag69
(g85
g71
NtRp4198
(dp4199
g74
(dp4200
sg83
g4172
sg76
(lp4201
g69
(g90
g71
NtRp4202
(dp4203
g74
(dp4204
g94
g95
ssg83
g4198
sg76
(lp4205
S'description'
p4206
asbag69
(g90
g71
NtRp4207
(dp4208
g74
(dp4209
g101
g102
ssg83
g4198
sg76
(lp4210
S':'
asbag69
(g90
g71
NtRp4211
(dp4212
g74
(dp4213
sg83
g4198
sg76
(lp4214
g69
(g70
g71
NtRp4215
(dp4216
g74
(dp4217
g82
I4
ssg83
g4211
sg76
(lp4218
S''
asbasbasbag69
(g85
g71
NtRp4219
(dp4220
g74
(dp4221
sg83
g4172
sg76
(lp4222
g69
(g90
g71
NtRp4223
(dp4224
g74
(dp4225
g94
g95
ssg83
g4219
sg76
(lp4226
S'keywords'
p4227
asbag69
(g90
g71
NtRp4228
(dp4229
g74
(dp4230
g101
g102
ssg83
g4219
sg76
(lp4231
S':'
asbag69
(g90
g71
NtRp4232
(dp4233
g74
(dp4234
sg83
g4219
sg76
(lp4235
g69
(g70
g71
NtRp4236
(dp4237
g74
(dp4238
g82
I4
ssg83
g4232
sg76
(lp4239
S''
asbasbasbasbasbasbasbag69
(g85
g71
NtRp4240
(dp4241
g74
(dp4242
sg83
g3132
sg76
(lp4243
g69
(g90
g71
NtRp4244
(dp4245
g74
(dp4246
g94
g95
ssg83
g4240
sg76
(lp4247
S'postprocessing'
p4248
asbag69
(g90
g71
NtRp4249
(dp4250
g74
(dp4251
g101
g102
ssg83
g4240
sg76
(lp4252
S':'
asbag69
(g90
g71
NtRp4253
(dp4254
g74
(dp4255
sg83
g4240
sg76
(lp4256
g69
(g70
g71
NtRp4257
(dp4258
g74
(dp4259
g82
I5
ssg83
g4253
sg76
(lp4260
g69
(g78
g71
NtRp4261
(dp4262
g74
(dp4263
g82
I4
ssg83
Nsg76
(lp4264
sbasbasbasbag69
(g85
g71
NtRp4265
(dp4266
g74
(dp4267
sg83
g3132
sg76
(lp4268
g69
(g90
g71
NtRp4269
(dp4270
g74
(dp4271
g94
g95
ssg83
g4265
sg76
(lp4272
S'session_file'
p4273
asbag69
(g90
g71
NtRp4274
(dp4275
g74
(dp4276
g101
g102
ssg83
g4265
sg76
(lp4277
S':'
asbag69
(g90
g71
NtRp4278
(dp4279
g74
(dp4280
sg83
g4265
sg76
(lp4281
g69
(g70
g71
NtRp4282
(dp4283
g74
(dp4284
g82
I5
ssg83
g4278
sg76
(lp4285
S"<open file 'c:\\Users\\Jorge\\Downloads\\web2py_src\\web2py\\applications\\init\\sessions\\127.0.0.1-66e156be-9dc8-4ace-8e89-ad9e90c7093a', mode 'rb+' at 0x0000000009118930>"
p4286
asbasbasbag69
(g85
g71
NtRp4287
(dp4288
g74
(dp4289
sg83
g3132
sg76
(lp4290
g69
(g90
g71
NtRp4291
(dp4292
g74
(dp4293
g94
g95
ssg83
g4287
sg76
(lp4294
S'session_filename'
p4295
asbag69
(g90
g71
NtRp4296
(dp4297
g74
(dp4298
g101
g102
ssg83
g4287
sg76
(lp4299
S':'
asbag69
(g90
g71
NtRp4300
(dp4301
g74
(dp4302
sg83
g4287
sg76
(lp4303
g69
(g70
g71
NtRp4304
(dp4305
g74
(dp4306
g82
I5
ssg83
g4300
sg76
(lp4307
S'c:\\Users\\Jorge\\Downloads\\web2py_src\\web2py\\applications\\init\\sessions\\127.0.0.1-66e156be-9dc8-4ace-8e89-ad9e90c7093a'
p4308
asbasbasbag69
(g85
g71
NtRp4309
(dp4310
g74
(dp4311
sg83
g3132
sg76
(lp4312
g69
(g90
g71
NtRp4313
(dp4314
g74
(dp4315
g94
g95
ssg83
g4309
sg76
(lp4316
S'session_id'
p4317
asbag69
(g90
g71
NtRp4318
(dp4319
g74
(dp4320
g101
g102
ssg83
g4309
sg76
(lp4321
S':'
asbag69
(g90
g71
NtRp4322
(dp4323
g74
(dp4324
sg83
g4309
sg76
(lp4325
g69
(g70
g71
NtRp4326
(dp4327
g74
(dp4328
g82
I5
ssg83
g4322
sg76
(lp4329
S'127.0.0.1-66e156be-9dc8-4ace-8e89-ad9e90c7093a'
p4330
asbasbasbag69
(g85
g71
NtRp4331
(dp4332
g74
(dp4333
sg83
g3132
sg76
(lp4334
g69
(g90
g71
NtRp4335
(dp4336
g74
(dp4337
g94
g95
ssg83
g4331
sg76
(lp4338
S'session_id_name'
p4339
asbag69
(g90
g71
NtRp4340
(dp4341
g74
(dp4342
g101
g102
ssg83
g4331
sg76
(lp4343
S':'
asbag69
(g90
g71
NtRp4344
(dp4345
g74
(dp4346
sg83
g4331
sg76
(lp4347
g69
(g70
g71
NtRp4348
(dp4349
g74
(dp4350
g82
I5
ssg83
g4344
sg76
(lp4351
g3189
asbasbasbag69
(g85
g71
NtRp4352
(dp4353
g74
(dp4354
sg83
g3132
sg76
(lp4355
g69
(g90
g71
NtRp4356
(dp4357
g74
(dp4358
g94
g95
ssg83
g4352
sg76
(lp4359
S'session_locked'
p4360
asbag69
(g90
g71
NtRp4361
(dp4362
g74
(dp4363
g101
g102
ssg83
g4352
sg76
(lp4364
S':'
asbag69
(g90
g71
NtRp4365
(dp4366
g74
(dp4367
sg83
g4352
sg76
(lp4368
g69
(g70
g71
NtRp4369
(dp4370
g74
(dp4371
g82
I5
ssg83
g4365
sg76
(lp4372
g1312
asbasbasbag69
(g85
g71
NtRp4373
(dp4374
g74
(dp4375
sg83
g3132
sg76
(lp4376
g69
(g90
g71
NtRp4377
(dp4378
g74
(dp4379
g94
g95
ssg83
g4373
sg76
(lp4380
S'session_new'
p4381
asbag69
(g90
g71
NtRp4382
(dp4383
g74
(dp4384
g101
g102
ssg83
g4373
sg76
(lp4385
S':'
asbag69
(g90
g71
NtRp4386
(dp4387
g74
(dp4388
sg83
g4373
sg76
(lp4389
g69
(g70
g71
NtRp4390
(dp4391
g74
(dp4392
g82
I5
ssg83
g4386
sg76
(lp4393
g112
asbasbasbag69
(g85
g71
NtRp4394
(dp4395
g74
(dp4396
sg83
g3132
sg76
(lp4397
g69
(g90
g71
NtRp4398
(dp4399
g74
(dp4400
g94
g95
ssg83
g4394
sg76
(lp4401
S'status'
p4402
asbag69
(g90
g71
NtRp4403
(dp4404
g74
(dp4405
g101
g102
ssg83
g4394
sg76
(lp4406
S':'
asbag69
(g90
g71
NtRp4407
(dp4408
g74
(dp4409
sg83
g4394
sg76
(lp4410
g69
(g70
g71
NtRp4411
(dp4412
g74
(dp4413
g82
I5
ssg83
g4407
sg76
(lp4414
S'200'
p4415
asbasbasbag69
(g85
g71
NtRp4416
(dp4417
g74
(dp4418
sg83
g3132
sg76
(lp4419
g69
(g90
g71
NtRp4420
(dp4421
g74
(dp4422
g94
g95
ssg83
g4416
sg76
(lp4423
S'subtitle'
p4424
asbag69
(g90
g71
NtRp4425
(dp4426
g74
(dp4427
g101
g102
ssg83
g4416
sg76
(lp4428
S':'
asbag69
(g90
g71
NtRp4429
(dp4430
g74
(dp4431
sg83
g4416
sg76
(lp4432
g69
(g70
g71
NtRp4433
(dp4434
g74
(dp4435
g82
I5
ssg83
g4429
sg76
(lp4436
S'powered by jorge'
p4437
asbasbasbag69
(g85
g71
NtRp4438
(dp4439
g74
(dp4440
sg83
g3132
sg76
(lp4441
g69
(g90
g71
NtRp4442
(dp4443
g74
(dp4444
g94
g95
ssg83
g4438
sg76
(lp4445
S'title'
p4446
asbag69
(g90
g71
NtRp4447
(dp4448
g74
(dp4449
g101
g102
ssg83
g4438
sg76
(lp4450
S':'
asbag69
(g90
g71
NtRp4451
(dp4452
g74
(dp4453
sg83
g4438
sg76
(lp4454
g69
(g70
g71
NtRp4455
(dp4456
g74
(dp4457
g82
I5
ssg83
g4451
sg76
(lp4458
S'mi nueva app'
p4459
asbasbasbag69
(g85
g71
NtRp4460
(dp4461
g74
(dp4462
sg83
g3132
sg76
(lp4463
g69
(g90
g71
NtRp4464
(dp4465
g74
(dp4466
g94
g95
ssg83
g4460
sg76
(lp4467
g1997
asbag69
(g90
g71
NtRp4468
(dp4469
g74
(dp4470
g101
g102
ssg83
g4460
sg76
(lp4471
S':'
asbag69
(g90
g71
NtRp4472
(dp4473
g74
(dp4474
sg83
g4460
sg76
(lp4475
g69
(g70
g71
NtRp4476
(dp4477
g74
(dp4478
g82
I5
ssg83
g4472
sg76
(lp4479
g2010
asbasbasbag69
(g85
g71
NtRp4480
(dp4481
g74
(dp4482
sg83
g3132
sg76
(lp4483
g69
(g90
g71
NtRp4484
(dp4485
g74
(dp4486
g94
g95
ssg83
g4480
sg76
(lp4487
S'view'
p4488
asbag69
(g90
g71
NtRp4489
(dp4490
g74
(dp4491
g101
g102
ssg83
g4480
sg76
(lp4492
S':'
asbag69
(g90
g71
NtRp4493
(dp4494
g74
(dp4495
sg83
g4480
sg76
(lp4496
g69
(g70
g71
NtRp4497
(dp4498
g74
(dp4499
g82
I5
ssg83
g4493
sg76
(lp4500
S'default/user.html'
p4501
asbasbasbasbasbsS'locals'
p4502
(dp4503
g4
S"r'c:\\Users\\Jorge\\Downloads\\web2py_src\\web2py\\applications\\init\\controllers/default.py'"
p4504
sg6
S"'# -*- coding: utf-8 -*-\\nif 0:\\n    from gluon.glo...form=form)\\nresponse._vars=response._caller(user)\\n'"
p4505
sssS'traceback'
p4506
S'Traceback (most recent call last):\n  File "c:\\Users\\Jorge\\Downloads\\web2py_src\\web2py\\gluon\\restricted.py", line 204, in restricted\n    ccode = compile2(code,layer)\n  File "c:\\Users\\Jorge\\Downloads\\web2py_src\\web2py\\gluon\\restricted.py", line 189, in compile2\n    return compile(code.rstrip().replace(\'\\r\\n\',\'\\n\')+\'\\n\', layer, \'exec\')\n  File "c:\\Users\\Jorge\\Downloads\\web2py_src\\web2py\\applications\\init\\controllers/default.py", line 162\n    ],\n    ^\nSyntaxError: invalid syntax\n'
p4507
s.