(dp1
S'output'
p2
S"<type 'exceptions.NameError'> global name '_id' is not defined"
p3
sS'layer'
p4
S'c:\\Users\\Jorge\\Downloads\\web2py_src\\web2py\\applications\\init\\controllers/default.py'
p5
sS'code'
p6
S'# -*- coding: utf-8 -*-\nif 0:\n    from gluon.globals import *\n    from gluon.html import *\n    from gluon.http import *\n    from gluon.tools import Auth\n    from gluon.sqlhtml import SQLFORM, SQLTABLE, form_factory\n    session = Session()\n    request = Request()\n    response = Response()\n\n### required - do no delete\ndef user(): return dict(form=auth())\ndef download(): return response.download(request,db)\ndef call(): return service()\n### end requires\n\n\n\ndef index():\n    return dict()\n\ndef error():\n    return dict()\n\n@auth.requires_login()\ndef cliente():\n    # presentacion de listado de clientes\n    datasource = db(db.cliente.id>0).select()\n    powerTable = plugins.powerTable\n    powerTable.datasource = datasource\n    powerTable.headers = \'labels\'\n    powerTable.showkeycolumn = False\n    powerTable.dtfeatures[\'bJQueryUI\'] = request.vars.get(\'jqueryui\',True)\n    powerTable.uitheme = request.vars.get(\'theme\',\'Smoothness\')\n    powerTable.dtfeatures["sScrollY"] = "100%"\n    powerTable.dtfeatures["sScrollX"] = "100%"\n    powerTable.dtfeatures[\'sPaginationType\'] = \'full_numbers\'\n    powerTable.dtfeatures["iDisplayLength"] = 20\n    # alta de clientes \n    mystep = [dict(title=\'NUEVO CLIENTE\',Legend=\'Ingrese los datos del nuevo cliente\',\n                   fields=[\'empresa\',\'contacto\',\'telefono\',\'correo\'])]\n    from plugin_PowerFormWizard import PowerFormWizard\n    options = {\'description\':False,\'legend\':True,\'validate\':True}\n    form = PowerFormWizard(db.cliente, steps=mystep, options=options)\n    \n    if form.accepts(request.vars, session):\n        response.flash = "registro aceptado"\n    elif form.errors:\n        form.step_validation()\n        response.flash = "error en los datos"\n    return dict( table=powerTable.create(),form=form)    \n   \n@auth.requires_login()\ndef categoria():\n    # presentacion de categorias de articulos\n    datasource = db(db.categoria.id>0).select()\n    powerTable = plugins.powerTable\n    powerTable.datasource = datasource\n    powerTable.headers = \'labels\'\n    powerTable.showkeycolumn = False\n    powerTable.dtfeatures[\'bJQueryUI\'] = request.vars.get(\'jqueryui\',True)\n    powerTable.uitheme = request.vars.get(\'theme\',\'Smoothness\')\n    powerTable.dtfeatures["sScrollY"] = "100%"\n    powerTable.dtfeatures["sScrollX"] = "100%"\n    powerTable.dtfeatures[\'sPaginationType\'] = \'full_numbers\'\n    powerTable.dtfeatures["iDisplayLength"] = 30\n    # alta de categoria de articulos\n    mystep = [dict(title=\'NUEVAS CATEGORIAS\',Legend=\'Ingrese una Categoria para Agrupar art\xc3\xadculos\',fields=[\'name\'])]\n    from plugin_PowerFormWizard import PowerFormWizard\n    options = {\'description\':False,\'legend\':True,\'validate\':True}\n    form = PowerFormWizard(db.categoria, steps=mystep, options=options)\n    \n    if form.accepts(request.vars, session):\n        response.flash = "registro aceptado"\n    elif form.errors:\n        form.step_validation()\n        response.flash = "error en los datos"\n    return dict( table=powerTable.create(),form=form)\n\ndef editablefunction():\n    id = request.vars.row_id\n    column = request.vars.column\n    db(db.order_lines.id==id).update(column=value)\n    db.commit()\n\n@auth.requires_login()\ndef articulo():\n    \n    # presentacion de tabla de articulos ############    \n    datasource = db(db.articulo.id>0).select()\n    powerTable = plugins.powerTable\n    powerTable.datasource = datasource\n    powerTable.headers = \'labels\'\n    powerTable.showkeycolumn = False\n    powerTable.dtfeatures[\'bJQueryUI\'] = request.vars.get(\'jqueryui\',True)\n    powerTable.uitheme = request.vars.get(\'theme\',\'Smoothness\')\n    powerTable.dtfeatures["sScrollY"] = "100%"\n    powerTable.dtfeatures["sScrollX"] = "100%"\n    powerTable.dtfeatures[\'sPaginationType\'] = \'full_numbers\'\n    powerTable.dtfeatures["iDisplayLength"] = 10\n    powerTable.extrajs = dict(autoresize={},\n                             tooltip={},\n                             details={\'detailscolumns\':\'articulo.memo\'}\n                             )\n    powerTable.keycolumn = \'articulo.id\'\n    powerTable.columns = [\'articulo.descripcion\',\'articulo.link\',\n                          \'articulo.precio\',\'articulo.categoria\']\n    # alta de articulos ####################    \n    mystep = [dict(title=\'NUEVOS ARTICULOS\',Legend=\'Ingrese los datos del articulo\',\n                   fields=[\'descripcion\',\'memo\',\'iva\',\'precio\',\'categoria\'])]\n    from plugin_PowerFormWizard import PowerFormWizard\n    options = {\'description\':False,\'legend\':True,\'validate\':True}\n    form = PowerFormWizard(db.articulo, steps=mystep, options=options)\n    \n    if form.accepts(request.vars, session):\n        response.flash = "registro aceptado"\n    elif form.errors:\n        form.step_validation()\n        response.flash = "error en los datos"\n    return dict( table=powerTable.create(),form=form)\n\n\ndef features():\n    from plugin_PowerGrid.CallBack import CallBack        \n    return CallBack(db.movimientos.id>0 and db.movimientos.fecha_devuelta==None)\n\n@auth.requires(auth.has_membership(role=\'Admin\'))   \ndef presupuestos():\n            \n    from plugin_PowerGrid.PowerGrid import PowerGrid\n    p = PowerGrid(\n                  callback=URL(\'default\',\'features\', extension=\'json\'),\n                  buttons=[\n                            #(\'details\',URL(\'plugin_PowerGrid\',\'data\',args=[\'read\',\'products\'])+\'/${id}\',\'_blank\',\'Details of Record ${id}\',\'modal positive left button\',\'magnifier\',[600,500]),\n                            (\'cargar comprobante\',URL(\'default\',\'prueba\',args=[\'read\',\'movimientos\'])+\'/${id}\',\'_blank\',\'Editando Registro ${id}\',\'refreshmodal middle button\', \'pen\',[600,800]),\n                            #(\'delete\',URL(\'plugin_PowerGrid\',\'data\',args=[\'delete\',\'products\'])+\'/${id}\',\'_blank\',\'Are you sure you want to delete record ${id}\',\'confirmationmodal right negative button\', \'cross\'),\n                          \n                         ],\n                  addurl=URL(\'plugin_PowerGrid\',\'data\',args=[\'create\',\'features\']), \n                  addLabel=\'Add New Record\',   \n                  addTitle=\'You are adding a new record\',              \n                  headers=[[\'id\',\'Codigo\'],[\'entregado_x\',\'Entrega: \'], [\'retirado_x\',\'Retira\'],\n                           ],\n                  \n                  #headers=[[\'entregado_x\',\'Entrega: \'], [\'retirado_x\',\'Retira\'], [\'id_articulo\',\'Articulo\'],[\'cantidad\',\'Cantidad\'],\n                           #[\'cliente\',\'Usado en\']],\n                  #hidecontrolbuttons=True,\n                  #hiderefreshbutton=True,\n                  hideaddbutton=True,\n                  #_id="banana",\n                  #target="melancia",\n                  #searchBy=\'equal\',\n                  minH=800,\n                  options=dict(#colsWidth=[60,60,60],\n                               #width=700,\n                               #buttonBackTitle=\'Back\',\n                               #buttonMax=4,\n                               #buttonNextTitle=\'Next\',\n                               #success="""js[function(){alert(\'Executed on success\');}]js""",\n                               #before="""js[function(){alert(\'Executed before\');}]js""",\n                               #error="""js[function(){alert(\'Executed on load error\');}]js""",\n                               #buttonOption=False,\n                               #buttonsWidth=200\n                               #buttonTitle=\'oi\',\n                               #clickFx=False,\n                               #debug=True,\n                               #find=\'name\',search=\'J\',\n                               #searchOption=False,\n                               searchButtonLabel=\'Buscar\',\n                               searchButtonTitle=\'Clique para buscar\',\n                               searchFocus=True,\n                               #cache=True,\n                               #contentType=\'application/x-www-form-urlencoded; charset=utf-8\',\n                               #type=\'get\',\n                               #dataType=\'jsonp\',\n                               #jsonp=True,\n                               #jsonpCallback=\'callback\',\n                               #findsName=[[\'name\',\'name\']],\n                               #hoverFx=False,\n                               #loadingOption=True,\n                               #loadingText=\'Carregando...\',\n                               #messageOption=False,\n                               #noResultOption=False,\n                               noResultText=\'no se encontraron datos \',\n                               #page=1,\n                               #rows=3,\n                               #rowsNumber=[3,25],\n                               #params=\'&blablabla=45\',\n                               #resize=False,\n                               #resultOption=False,\n                               #resultText= \'Exibindo {from} - {to} de {total} registros\',\n                               #scroll=True,height=100,\n                               #searchText=\'Busque aqui\',\n                               #sortName=\'name\',\n                               #sortOrder=\'asc\',\n                               #template=\'template\',\n                               #templateStyle=\'blabla\',\n\n\n\n                                   ),\n                  )\n\n    return dict(p=p)\n\n@auth.requires_login()\ndef presupuestos2():\n            \n    class Virtual(object):\n        @virtualsettings(label=T(\'Informacion: \'))\n        def virtualtooltip(self):\n            return T(\'se retiro para  <strong>%s</strong>, en concepto de <strong>%s</strong>\' %\n                     (self.cliente.empresa,self.movimientos.concepto))\n        \n    datasource = db(db.movimientos.cliente==db.cliente.id).select() \n    powerTable = plugins.powerTable\n    powerTable.datasource = datasource\n    powerTable.virtualfields = Virtual()\n    powerTable.headers = \'labels\'\n    powerTable.showkeycolumn = True\n    powerTable.dtfeatures[\'bJQueryUI\'] = request.vars.get(\'jqueryui\',True)\n    powerTable.uitheme = request.vars.get(\'theme\',\'Smoothness\')\n    powerTable.dtfeatures[\'sScrollX\'] = \'100%\'\n    powerTable.dtfeatures[\'sPaginationType\'] = request.vars.get(\'pager\',\'scrolling\')\n    powerTable.extrajs = dict(autoresize={},\n                               tooltip={},\n                               )\n    powerTable.columns = [\'movimientos.id\',\n                         \'movimientos.entregado_x\',\n                         \'movimientos.retirado_x\',\n                         \'movimientos.id_articulo\',\n                         \'movimientos.cantidad\',\n                         \'movimientos.Comprobante\',\n                         \'movimientos.fecha_pedido\',\n                         \'movimientos.fecha_devuelta\'\n                         ]\n    return dict(table=powerTable.create())\n\n@auth.requires(auth.has_membership(role=\'Admin\'))  \ndef movimientos():\n    mystep = [dict(title=\'MOVIMIENTOS\',Legend=\'Ingrese los datos solicitados\',\n                   fields=[\'entregado_x\',\'retirado_x\',\'id_articulo\',\'cantidad\',\n                           \'estado\',\'Comprobante\',\n                           \'cliente\',\'concepto\'])]\n    from plugin_PowerFormWizard import PowerFormWizard\n    options = {\'description\':False,\'legend\':True,\'validate\':True}\n    form = PowerFormWizard(db.movimientos, steps=mystep, options=options)\n    \n    if form.accepts(request.vars, session):\n        response.flash = "registro aceptado"\n        #rows = db(db.movimientos.id>0).select()\n        #last_row = rows.last()\n        #a=db.memomovi.insert(referencia=last_row.id,entregado_x=last_row.entregado_x,\n                             #retirado_x=last_row.retirado_x,id_articulo=last_row.id_articulo,\n                             #cantidad=last_row.cantidad,fecha_pedido=last_row.fecha_pedido,\n                             #fecha_devuelta=last_row.fecha_devuelta,estado=last_row.estado,\n                             #Comprobante=last_row.Comprobante,cliente=last_row.cliente)\n        #db.commit()\n    elif form.errors:\n        form.step_validation()\n        response.flash = "error en los datos"\n    return dict(form=form)\n\ndef prueba():\n    indice = _id\n    form=FORM(\'Your name:\',\n              INPUT(_name=\'name\', requires=IS_NOT_EMPTY()),\n              INPUT(_type=\'submit\'))\n    if form.accepts(request.vars, session):\n        response.flash = \'form accepted \'\n    elif form.errors:\n        response.flash = \'form has errors  _id\'\n    else:\n        response.flash = \'please fill the form  ${id}\'\n    return dict(form=form)\nresponse._vars=response._caller(prueba)\n'
p7
sS'snapshot'
p8
(dp9
S'exception'
p10
(dp11
S'__hash__'
p12
S"<method-wrapper '__hash__' of exceptions.NameError object>"
p13
sS'__setattr__'
p14
S"<method-wrapper '__setattr__' of exceptions.NameError object>"
p15
sS'__reduce_ex__'
p16
S'<built-in method __reduce_ex__ of exceptions.NameError object>'
p17
sS'__getslice__'
p18
S"<method-wrapper '__getslice__' of exceptions.NameError object>"
p19
sS'__getitem__'
p20
S"<method-wrapper '__getitem__' of exceptions.NameError object>"
p21
sS'__setstate__'
p22
S'<built-in method __setstate__ of exceptions.NameError object>'
p23
sS'__reduce__'
p24
S'<built-in method __reduce__ of exceptions.NameError object>'
p25
sS'__str__'
p26
S"<method-wrapper '__str__' of exceptions.NameError object>"
p27
sS'__format__'
p28
S'<built-in method __format__ of exceptions.NameError object>'
p29
sS'__getattribute__'
p30
S"<method-wrapper '__getattribute__' of exceptions.NameError object>"
p31
sS'__class__'
p32
S"<type 'exceptions.NameError'>"
p33
sS'__unicode__'
p34
S'<built-in method __unicode__ of exceptions.NameError object>'
p35
sS'__delattr__'
p36
S"<method-wrapper '__delattr__' of exceptions.NameError object>"
p37
sS'__subclasshook__'
p38
S'<built-in method __subclasshook__ of type object>'
p39
sS'__repr__'
p40
S"<method-wrapper '__repr__' of exceptions.NameError object>"
p41
sS'__dict__'
p42
S'{}'
p43
sS'args'
p44
S'("global name \'_id\' is not defined",)'
p45
sS'__sizeof__'
p46
S'<built-in method __sizeof__ of exceptions.NameError object>'
p47
sS'__doc__'
p48
S"'Name not found globally.'"
p49
sS'__init__'
p50
S"<method-wrapper '__init__' of exceptions.NameError object>"
p51
sS'__new__'
p52
S'<built-in method __new__ of type object>'
p53
ssS'evalue'
p54
S"global name '_id' is not defined"
p55
sS'request'
p56
ccopy_reg
_reconstructor
p57
(cgluon.html
BEAUTIFY
p58
c__builtin__
object
p59
NtRp60
(dp61
S'attributes'
p62
(dp63
sS'components'
p64
(lp65
g57
(cgluon.html
TABLE
p66
g59
NtRp67
(dp68
g62
(dp69
S'level'
p70
I5
ssS'parent'
p71
Nsg64
(lp72
g57
(cgluon.html
TR
p73
g59
NtRp74
(dp75
g62
(dp76
sg71
g67
sg64
(lp77
g57
(cgluon.html
TD
p78
g59
NtRp79
(dp80
g62
(dp81
S'_style'
p82
S'font-weight:bold;vertical-align:top'
p83
ssg71
g74
sg64
(lp84
S'ajax'
p85
asbag57
(g78
g59
NtRp86
(dp87
g62
(dp88
S'_valign'
p89
S'top'
p90
ssg71
g74
sg64
(lp91
S':'
asbag57
(g78
g59
NtRp92
(dp93
g62
(dp94
sg71
g74
sg64
(lp95
g57
(g58
g59
NtRp96
(dp97
g62
(dp98
g70
I5
ssg71
g92
sg64
(lp99
S'False'
p100
asbasbasbag57
(g73
g59
NtRp101
(dp102
g62
(dp103
sg71
g67
sg64
(lp104
g57
(g78
g59
NtRp105
(dp106
g62
(dp107
g82
g83
ssg71
g101
sg64
(lp108
S'application'
p109
asbag57
(g78
g59
NtRp110
(dp111
g62
(dp112
g89
g90
ssg71
g101
sg64
(lp113
S':'
asbag57
(g78
g59
NtRp114
(dp115
g62
(dp116
sg71
g101
sg64
(lp117
g57
(g58
g59
NtRp118
(dp119
g62
(dp120
g70
I5
ssg71
g114
sg64
(lp121
S'init'
p122
asbasbasbag57
(g73
g59
NtRp123
(dp124
g62
(dp125
sg71
g67
sg64
(lp126
g57
(g78
g59
NtRp127
(dp128
g62
(dp129
g82
g83
ssg71
g123
sg64
(lp130
g44
asbag57
(g78
g59
NtRp131
(dp132
g62
(dp133
g89
g90
ssg71
g123
sg64
(lp134
S':'
asbag57
(g78
g59
NtRp135
(dp136
g62
(dp137
sg71
g123
sg64
(lp138
g57
(g58
g59
NtRp139
(dp140
g62
(dp141
g70
I5
ssg71
g135
sg64
(lp142
g57
(g66
g59
NtRp143
(dp144
g62
(dp145
g70
I4
ssg71
Nsg64
(lp146
g57
(g73
g59
NtRp147
(dp148
g62
(dp149
sg71
g143
sg64
(lp150
g57
(g78
g59
NtRp151
(dp152
g62
(dp153
sg71
g147
sg64
(lp154
g57
(g58
g59
NtRp155
(dp156
g62
(dp157
g70
I4
ssg71
g151
sg64
(lp158
S'read'
p159
asbasbasbag57
(g73
g59
NtRp160
(dp161
g62
(dp162
sg71
g143
sg64
(lp163
g57
(g78
g59
NtRp164
(dp165
g62
(dp166
sg71
g160
sg64
(lp167
g57
(g58
g59
NtRp168
(dp169
g62
(dp170
g70
I4
ssg71
g164
sg64
(lp171
S'movimientos'
p172
asbasbasbag57
(g73
g59
NtRp173
(dp174
g62
(dp175
sg71
g143
sg64
(lp176
g57
(g78
g59
NtRp177
(dp178
g62
(dp179
sg71
g173
sg64
(lp180
g57
(g58
g59
NtRp181
(dp182
g62
(dp183
g70
I4
ssg71
g177
sg64
(lp184
S'20'
p185
asbasbasbasbasbasbasbag57
(g73
g59
NtRp186
(dp187
g62
(dp188
sg71
g67
sg64
(lp189
g57
(g78
g59
NtRp190
(dp191
g62
(dp192
g82
g83
ssg71
g186
sg64
(lp193
S'body'
p194
asbag57
(g78
g59
NtRp195
(dp196
g62
(dp197
g89
g90
ssg71
g186
sg64
(lp198
S':'
asbag57
(g78
g59
NtRp199
(dp200
g62
(dp201
sg71
g186
sg64
(lp202
g57
(g58
g59
NtRp203
(dp204
g62
(dp205
g70
I5
ssg71
g199
sg64
(lp206
S'<cStringIO.StringO object at 0x00000000094AC1B8>'
p207
asbasbasbag57
(g73
g59
NtRp208
(dp209
g62
(dp210
sg71
g67
sg64
(lp211
g57
(g78
g59
NtRp212
(dp213
g62
(dp214
g82
g83
ssg71
g208
sg64
(lp215
S'client'
p216
asbag57
(g78
g59
NtRp217
(dp218
g62
(dp219
g89
g90
ssg71
g208
sg64
(lp220
S':'
asbag57
(g78
g59
NtRp221
(dp222
g62
(dp223
sg71
g208
sg64
(lp224
g57
(g58
g59
NtRp225
(dp226
g62
(dp227
g70
I5
ssg71
g221
sg64
(lp228
S'127.0.0.1'
p229
asbasbasbag57
(g73
g59
NtRp230
(dp231
g62
(dp232
sg71
g67
sg64
(lp233
g57
(g78
g59
NtRp234
(dp235
g62
(dp236
g82
g83
ssg71
g230
sg64
(lp237
S'controller'
p238
asbag57
(g78
g59
NtRp239
(dp240
g62
(dp241
g89
g90
ssg71
g230
sg64
(lp242
S':'
asbag57
(g78
g59
NtRp243
(dp244
g62
(dp245
sg71
g230
sg64
(lp246
g57
(g58
g59
NtRp247
(dp248
g62
(dp249
g70
I5
ssg71
g243
sg64
(lp250
S'default'
p251
asbasbasbag57
(g73
g59
NtRp252
(dp253
g62
(dp254
sg71
g67
sg64
(lp255
g57
(g78
g59
NtRp256
(dp257
g62
(dp258
g82
g83
ssg71
g252
sg64
(lp259
S'cookies'
p260
asbag57
(g78
g59
NtRp261
(dp262
g62
(dp263
g89
g90
ssg71
g252
sg64
(lp264
S':'
asbag57
(g78
g59
NtRp265
(dp266
g62
(dp267
sg71
g252
sg64
(lp268
g57
(g58
g59
NtRp269
(dp270
g62
(dp271
g70
I5
ssg71
g265
sg64
(lp272
g57
(g66
g59
NtRp273
(dp274
g62
(dp275
g70
I4
ssg71
Nsg64
(lp276
g57
(g73
g59
NtRp277
(dp278
g62
(dp279
sg71
g273
sg64
(lp280
g57
(g78
g59
NtRp281
(dp282
g62
(dp283
g82
g83
ssg71
g277
sg64
(lp284
S'session_id_init'
p285
asbag57
(g78
g59
NtRp286
(dp287
g62
(dp288
g89
g90
ssg71
g277
sg64
(lp289
S':'
asbag57
(g78
g59
NtRp290
(dp291
g62
(dp292
sg71
g277
sg64
(lp293
g57
(g58
g59
NtRp294
(dp295
g62
(dp296
g70
I4
ssg71
g290
sg64
(lp297
g57
(g66
g59
NtRp298
(dp299
g62
(dp300
g70
I3
ssg71
Nsg64
(lp301
g57
(g73
g59
NtRp302
(dp303
g62
(dp304
sg71
g298
sg64
(lp305
g57
(g78
g59
NtRp306
(dp307
g62
(dp308
g82
g83
ssg71
g302
sg64
(lp309
S'comment'
p310
asbag57
(g78
g59
NtRp311
(dp312
g62
(dp313
g89
g90
ssg71
g302
sg64
(lp314
S':'
asbag57
(g78
g59
NtRp315
(dp316
g62
(dp317
sg71
g302
sg64
(lp318
g57
(g58
g59
NtRp319
(dp320
g62
(dp321
g70
I3
ssg71
g315
sg64
(lp322
S''
asbasbasbag57
(g73
g59
NtRp323
(dp324
g62
(dp325
sg71
g298
sg64
(lp326
g57
(g78
g59
NtRp327
(dp328
g62
(dp329
g82
g83
ssg71
g323
sg64
(lp330
S'domain'
p331
asbag57
(g78
g59
NtRp332
(dp333
g62
(dp334
g89
g90
ssg71
g323
sg64
(lp335
S':'
asbag57
(g78
g59
NtRp336
(dp337
g62
(dp338
sg71
g323
sg64
(lp339
g57
(g58
g59
NtRp340
(dp341
g62
(dp342
g70
I3
ssg71
g336
sg64
(lp343
S''
asbasbasbag57
(g73
g59
NtRp344
(dp345
g62
(dp346
sg71
g298
sg64
(lp347
g57
(g78
g59
NtRp348
(dp349
g62
(dp350
g82
g83
ssg71
g344
sg64
(lp351
S'expires'
p352
asbag57
(g78
g59
NtRp353
(dp354
g62
(dp355
g89
g90
ssg71
g344
sg64
(lp356
S':'
asbag57
(g78
g59
NtRp357
(dp358
g62
(dp359
sg71
g344
sg64
(lp360
g57
(g58
g59
NtRp361
(dp362
g62
(dp363
g70
I3
ssg71
g357
sg64
(lp364
S''
asbasbasbag57
(g73
g59
NtRp365
(dp366
g62
(dp367
sg71
g298
sg64
(lp368
g57
(g78
g59
NtRp369
(dp370
g62
(dp371
g82
g83
ssg71
g365
sg64
(lp372
S'httponly'
p373
asbag57
(g78
g59
NtRp374
(dp375
g62
(dp376
g89
g90
ssg71
g365
sg64
(lp377
S':'
asbag57
(g78
g59
NtRp378
(dp379
g62
(dp380
sg71
g365
sg64
(lp381
g57
(g58
g59
NtRp382
(dp383
g62
(dp384
g70
I3
ssg71
g378
sg64
(lp385
S''
asbasbasbag57
(g73
g59
NtRp386
(dp387
g62
(dp388
sg71
g298
sg64
(lp389
g57
(g78
g59
NtRp390
(dp391
g62
(dp392
g82
g83
ssg71
g386
sg64
(lp393
S'max-age'
p394
asbag57
(g78
g59
NtRp395
(dp396
g62
(dp397
g89
g90
ssg71
g386
sg64
(lp398
S':'
asbag57
(g78
g59
NtRp399
(dp400
g62
(dp401
sg71
g386
sg64
(lp402
g57
(g58
g59
NtRp403
(dp404
g62
(dp405
g70
I3
ssg71
g399
sg64
(lp406
S''
asbasbasbag57
(g73
g59
NtRp407
(dp408
g62
(dp409
sg71
g298
sg64
(lp410
g57
(g78
g59
NtRp411
(dp412
g62
(dp413
g82
g83
ssg71
g407
sg64
(lp414
S'path'
p415
asbag57
(g78
g59
NtRp416
(dp417
g62
(dp418
g89
g90
ssg71
g407
sg64
(lp419
S':'
asbag57
(g78
g59
NtRp420
(dp421
g62
(dp422
sg71
g407
sg64
(lp423
g57
(g58
g59
NtRp424
(dp425
g62
(dp426
g70
I3
ssg71
g420
sg64
(lp427
S''
asbasbasbag57
(g73
g59
NtRp428
(dp429
g62
(dp430
sg71
g298
sg64
(lp431
g57
(g78
g59
NtRp432
(dp433
g62
(dp434
g82
g83
ssg71
g428
sg64
(lp435
S'secure'
p436
asbag57
(g78
g59
NtRp437
(dp438
g62
(dp439
g89
g90
ssg71
g428
sg64
(lp440
S':'
asbag57
(g78
g59
NtRp441
(dp442
g62
(dp443
sg71
g428
sg64
(lp444
g57
(g58
g59
NtRp445
(dp446
g62
(dp447
g70
I3
ssg71
g441
sg64
(lp448
S''
asbasbasbag57
(g73
g59
NtRp449
(dp450
g62
(dp451
sg71
g298
sg64
(lp452
g57
(g78
g59
NtRp453
(dp454
g62
(dp455
g82
g83
ssg71
g449
sg64
(lp456
S'version'
p457
asbag57
(g78
g59
NtRp458
(dp459
g62
(dp460
g89
g90
ssg71
g449
sg64
(lp461
S':'
asbag57
(g78
g59
NtRp462
(dp463
g62
(dp464
sg71
g449
sg64
(lp465
g57
(g58
g59
NtRp466
(dp467
g62
(dp468
g70
I3
ssg71
g462
sg64
(lp469
S''
asbasbasbasbasbasbasbasbasbasbasbag57
(g73
g59
NtRp470
(dp471
g62
(dp472
sg71
g67
sg64
(lp473
g57
(g78
g59
NtRp474
(dp475
g62
(dp476
g82
g83
ssg71
g470
sg64
(lp477
S'env'
p478
asbag57
(g78
g59
NtRp479
(dp480
g62
(dp481
g89
g90
ssg71
g470
sg64
(lp482
S':'
asbag57
(g78
g59
NtRp483
(dp484
g62
(dp485
sg71
g470
sg64
(lp486
g57
(g58
g59
NtRp487
(dp488
g62
(dp489
g70
I5
ssg71
g483
sg64
(lp490
g57
(g66
g59
NtRp491
(dp492
g62
(dp493
g70
I4
ssg71
Nsg64
(lp494
g57
(g73
g59
NtRp495
(dp496
g62
(dp497
sg71
g491
sg64
(lp498
g57
(g78
g59
NtRp499
(dp500
g62
(dp501
g82
g83
ssg71
g495
sg64
(lp502
S'app_folders'
p503
asbag57
(g78
g59
NtRp504
(dp505
g62
(dp506
g89
g90
ssg71
g495
sg64
(lp507
S':'
asbag57
(g78
g59
NtRp508
(dp509
g62
(dp510
sg71
g495
sg64
(lp511
g57
(g58
g59
NtRp512
(dp513
g62
(dp514
g70
I4
ssg71
g508
sg64
(lp515
S"set(['c:\\\\Users\\\\Jorge\\\\Downloads\\\\web2py_src\\\\web2py\\\\applications\\\\init\\\\'])"
p516
asbasbasbag57
(g73
g59
NtRp517
(dp518
g62
(dp519
sg71
g491
sg64
(lp520
g57
(g78
g59
NtRp521
(dp522
g62
(dp523
g82
g83
ssg71
g517
sg64
(lp524
S'applications_parent'
p525
asbag57
(g78
g59
NtRp526
(dp527
g62
(dp528
g89
g90
ssg71
g517
sg64
(lp529
S':'
asbag57
(g78
g59
NtRp530
(dp531
g62
(dp532
sg71
g517
sg64
(lp533
g57
(g58
g59
NtRp534
(dp535
g62
(dp536
g70
I4
ssg71
g530
sg64
(lp537
S'c:\\Users\\Jorge\\Downloads\\web2py_src\\web2py'
p538
asbasbasbag57
(g73
g59
NtRp539
(dp540
g62
(dp541
sg71
g491
sg64
(lp542
g57
(g78
g59
NtRp543
(dp544
g62
(dp545
g82
g83
ssg71
g539
sg64
(lp546
S'cmd_args'
p547
asbag57
(g78
g59
NtRp548
(dp549
g62
(dp550
g89
g90
ssg71
g539
sg64
(lp551
S':'
asbag57
(g78
g59
NtRp552
(dp553
g62
(dp554
sg71
g539
sg64
(lp555
g57
(g58
g59
NtRp556
(dp557
g62
(dp558
g70
I4
ssg71
g552
sg64
(lp559
g57
(g66
g59
NtRp560
(dp561
g62
(dp562
g70
I3
ssg71
Nsg64
(lp563
sbasbasbasbag57
(g73
g59
NtRp564
(dp565
g62
(dp566
sg71
g491
sg64
(lp567
g57
(g78
g59
NtRp568
(dp569
g62
(dp570
g82
g83
ssg71
g564
sg64
(lp571
S'cmd_options'
p572
asbag57
(g78
g59
NtRp573
(dp574
g62
(dp575
g89
g90
ssg71
g564
sg64
(lp576
S':'
asbag57
(g78
g59
NtRp577
(dp578
g62
(dp579
sg71
g564
sg64
(lp580
g57
(g58
g59
NtRp581
(dp582
g62
(dp583
g70
I4
ssg71
g577
sg64
(lp584
S"<Values at 0x374e208: {'verbose': False, 'ip': '127.0.0.1', 'shutdown_timeout': 5, 'taskbar': False, 'nocron': False, 'pid_filename': 'httpserver.pid', 'maxthreads': None, 'softcron': False, 'server_name': 'Jorge-PC', 'bpython': False, 'nogui': False, 'port': 8000, 'extcron': False, 'debuglevel': 30, 'test': None, 'folder': 'c:\\\\Users\\\\Jorge\\\\Downloads\\\\web2py_src\\\\web2py', 'config': '', 'import_models': False, 'winservice': '', 'shell': None, 'run': '', 'log_filename': 'httpserver.log', 'args': [''], 'socket_timeout': 5, 'ssl_ca_certificate': None, 'scheduler': None, 'profiler_filename': None, 'ssl_private_key': '', 'password': '<ask>', 'request_queue_size': 5, 'ssl_certificate': '', 'cronjob': False, 'numthreads': None, 'quiet': False, 'interfaces': None, 'minthreads': None, 'timeout': 10, 'plain': False, 'nobanner': False}>"
p585
asbasbasbag57
(g73
g59
NtRp586
(dp587
g62
(dp588
sg71
g491
sg64
(lp589
g57
(g78
g59
NtRp590
(dp591
g62
(dp592
g82
g83
ssg71
g586
sg64
(lp593
S'db_sessions'
p594
asbag57
(g78
g59
NtRp595
(dp596
g62
(dp597
g89
g90
ssg71
g586
sg64
(lp598
S':'
asbag57
(g78
g59
NtRp599
(dp600
g62
(dp601
sg71
g586
sg64
(lp602
g57
(g58
g59
NtRp603
(dp604
g62
(dp605
g70
I4
ssg71
g599
sg64
(lp606
S'set([])'
p607
asbasbasbag57
(g73
g59
NtRp608
(dp609
g62
(dp610
sg71
g491
sg64
(lp611
g57
(g78
g59
NtRp612
(dp613
g62
(dp614
g82
g83
ssg71
g608
sg64
(lp615
S'debugging'
p616
asbag57
(g78
g59
NtRp617
(dp618
g62
(dp619
g89
g90
ssg71
g608
sg64
(lp620
S':'
asbag57
(g78
g59
NtRp621
(dp622
g62
(dp623
sg71
g608
sg64
(lp624
g57
(g58
g59
NtRp625
(dp626
g62
(dp627
g70
I4
ssg71
g621
sg64
(lp628
g100
asbasbasbag57
(g73
g59
NtRp629
(dp630
g62
(dp631
sg71
g491
sg64
(lp632
g57
(g78
g59
NtRp633
(dp634
g62
(dp635
g82
g83
ssg71
g629
sg64
(lp636
S'gluon_parent'
p637
asbag57
(g78
g59
NtRp638
(dp639
g62
(dp640
g89
g90
ssg71
g629
sg64
(lp641
S':'
asbag57
(g78
g59
NtRp642
(dp643
g62
(dp644
sg71
g629
sg64
(lp645
g57
(g58
g59
NtRp646
(dp647
g62
(dp648
g70
I4
ssg71
g642
sg64
(lp649
S'c:\\Users\\Jorge\\Downloads\\web2py_src\\web2py'
p650
asbasbasbag57
(g73
g59
NtRp651
(dp652
g62
(dp653
sg71
g491
sg64
(lp654
g57
(g78
g59
NtRp655
(dp656
g62
(dp657
g82
g83
ssg71
g651
sg64
(lp658
S'http_accept'
p659
asbag57
(g78
g59
NtRp660
(dp661
g62
(dp662
g89
g90
ssg71
g651
sg64
(lp663
S':'
asbag57
(g78
g59
NtRp664
(dp665
g62
(dp666
sg71
g651
sg64
(lp667
g57
(g58
g59
NtRp668
(dp669
g62
(dp670
g70
I4
ssg71
g664
sg64
(lp671
S'text/html,application/xhtml+xml,application/xml;q=0.9,*/*;q=0.8'
p672
asbasbasbag57
(g73
g59
NtRp673
(dp674
g62
(dp675
sg71
g491
sg64
(lp676
g57
(g78
g59
NtRp677
(dp678
g62
(dp679
g82
g83
ssg71
g673
sg64
(lp680
S'http_accept_encoding'
p681
asbag57
(g78
g59
NtRp682
(dp683
g62
(dp684
g89
g90
ssg71
g673
sg64
(lp685
S':'
asbag57
(g78
g59
NtRp686
(dp687
g62
(dp688
sg71
g673
sg64
(lp689
g57
(g58
g59
NtRp690
(dp691
g62
(dp692
g70
I4
ssg71
g686
sg64
(lp693
S'gzip, deflate'
p694
asbasbasbag57
(g73
g59
NtRp695
(dp696
g62
(dp697
sg71
g491
sg64
(lp698
g57
(g78
g59
NtRp699
(dp700
g62
(dp701
g82
g83
ssg71
g695
sg64
(lp702
S'http_accept_language'
p703
asbag57
(g78
g59
NtRp704
(dp705
g62
(dp706
g89
g90
ssg71
g695
sg64
(lp707
S':'
asbag57
(g78
g59
NtRp708
(dp709
g62
(dp710
sg71
g695
sg64
(lp711
g57
(g58
g59
NtRp712
(dp713
g62
(dp714
g70
I4
ssg71
g708
sg64
(lp715
S'es-es,es;q=0.8,en-us;q=0.5,en;q=0.3'
p716
asbasbasbag57
(g73
g59
NtRp717
(dp718
g62
(dp719
sg71
g491
sg64
(lp720
g57
(g78
g59
NtRp721
(dp722
g62
(dp723
g82
g83
ssg71
g717
sg64
(lp724
S'http_connection'
p725
asbag57
(g78
g59
NtRp726
(dp727
g62
(dp728
g89
g90
ssg71
g717
sg64
(lp729
S':'
asbag57
(g78
g59
NtRp730
(dp731
g62
(dp732
sg71
g717
sg64
(lp733
g57
(g58
g59
NtRp734
(dp735
g62
(dp736
g70
I4
ssg71
g730
sg64
(lp737
S'keep-alive'
p738
asbasbasbag57
(g73
g59
NtRp739
(dp740
g62
(dp741
sg71
g491
sg64
(lp742
g57
(g78
g59
NtRp743
(dp744
g62
(dp745
g82
g83
ssg71
g739
sg64
(lp746
S'http_cookie'
p747
asbag57
(g78
g59
NtRp748
(dp749
g62
(dp750
g89
g90
ssg71
g739
sg64
(lp751
S':'
asbag57
(g78
g59
NtRp752
(dp753
g62
(dp754
sg71
g739
sg64
(lp755
g57
(g58
g59
NtRp756
(dp757
g62
(dp758
g70
I4
ssg71
g752
sg64
(lp759
S'session_id_init=127.0.0.1-db1a5172-e0eb-4779-bead-3eff2ec2fe17'
p760
asbasbasbag57
(g73
g59
NtRp761
(dp762
g62
(dp763
sg71
g491
sg64
(lp764
g57
(g78
g59
NtRp765
(dp766
g62
(dp767
g82
g83
ssg71
g761
sg64
(lp768
S'http_host'
p769
asbag57
(g78
g59
NtRp770
(dp771
g62
(dp772
g89
g90
ssg71
g761
sg64
(lp773
S':'
asbag57
(g78
g59
NtRp774
(dp775
g62
(dp776
sg71
g761
sg64
(lp777
g57
(g58
g59
NtRp778
(dp779
g62
(dp780
g70
I4
ssg71
g774
sg64
(lp781
S'127.0.0.1:8000'
p782
asbasbasbag57
(g73
g59
NtRp783
(dp784
g62
(dp785
sg71
g491
sg64
(lp786
g57
(g78
g59
NtRp787
(dp788
g62
(dp789
g82
g83
ssg71
g783
sg64
(lp790
S'http_referer'
p791
asbag57
(g78
g59
NtRp792
(dp793
g62
(dp794
g89
g90
ssg71
g783
sg64
(lp795
S':'
asbag57
(g78
g59
NtRp796
(dp797
g62
(dp798
sg71
g783
sg64
(lp799
g57
(g58
g59
NtRp800
(dp801
g62
(dp802
g70
I4
ssg71
g796
sg64
(lp803
S'http://127.0.0.1:8000/init/default/presupuestos'
p804
asbasbasbag57
(g73
g59
NtRp805
(dp806
g62
(dp807
sg71
g491
sg64
(lp808
g57
(g78
g59
NtRp809
(dp810
g62
(dp811
g82
g83
ssg71
g805
sg64
(lp812
S'http_user_agent'
p813
asbag57
(g78
g59
NtRp814
(dp815
g62
(dp816
g89
g90
ssg71
g805
sg64
(lp817
S':'
asbag57
(g78
g59
NtRp818
(dp819
g62
(dp820
sg71
g805
sg64
(lp821
g57
(g58
g59
NtRp822
(dp823
g62
(dp824
g70
I4
ssg71
g818
sg64
(lp825
S'Mozilla/5.0 (Windows NT 6.1; WOW64; rv:11.0) Gecko/20100101 Firefox/11.0'
p826
asbasbasbag57
(g73
g59
NtRp827
(dp828
g62
(dp829
sg71
g491
sg64
(lp830
g57
(g78
g59
NtRp831
(dp832
g62
(dp833
g82
g83
ssg71
g827
sg64
(lp834
S'is_jython'
p835
asbag57
(g78
g59
NtRp836
(dp837
g62
(dp838
g89
g90
ssg71
g827
sg64
(lp839
S':'
asbag57
(g78
g59
NtRp840
(dp841
g62
(dp842
sg71
g827
sg64
(lp843
g57
(g58
g59
NtRp844
(dp845
g62
(dp846
g70
I4
ssg71
g840
sg64
(lp847
g100
asbasbasbag57
(g73
g59
NtRp848
(dp849
g62
(dp850
sg71
g491
sg64
(lp851
g57
(g78
g59
NtRp852
(dp853
g62
(dp854
g82
g83
ssg71
g848
sg64
(lp855
S'is_pypy'
p856
asbag57
(g78
g59
NtRp857
(dp858
g62
(dp859
g89
g90
ssg71
g848
sg64
(lp860
S':'
asbag57
(g78
g59
NtRp861
(dp862
g62
(dp863
sg71
g848
sg64
(lp864
g57
(g58
g59
NtRp865
(dp866
g62
(dp867
g70
I4
ssg71
g861
sg64
(lp868
g100
asbasbasbag57
(g73
g59
NtRp869
(dp870
g62
(dp871
sg71
g491
sg64
(lp872
g57
(g78
g59
NtRp873
(dp874
g62
(dp875
g82
g83
ssg71
g869
sg64
(lp876
S'path_info'
p877
asbag57
(g78
g59
NtRp878
(dp879
g62
(dp880
g89
g90
ssg71
g869
sg64
(lp881
S':'
asbag57
(g78
g59
NtRp882
(dp883
g62
(dp884
sg71
g869
sg64
(lp885
g57
(g58
g59
NtRp886
(dp887
g62
(dp888
g70
I4
ssg71
g882
sg64
(lp889
S'/init/default/prueba/read/movimientos/20'
p890
asbasbasbag57
(g73
g59
NtRp891
(dp892
g62
(dp893
sg71
g491
sg64
(lp894
g57
(g78
g59
NtRp895
(dp896
g62
(dp897
g82
g83
ssg71
g891
sg64
(lp898
S'query_string'
p899
asbag57
(g78
g59
NtRp900
(dp901
g62
(dp902
g89
g90
ssg71
g891
sg64
(lp903
S':'
asbag57
(g78
g59
NtRp904
(dp905
g62
(dp906
sg71
g891
sg64
(lp907
g57
(g58
g59
NtRp908
(dp909
g62
(dp910
g70
I4
ssg71
g904
sg64
(lp911
S''
asbasbasbag57
(g73
g59
NtRp912
(dp913
g62
(dp914
sg71
g491
sg64
(lp915
g57
(g78
g59
NtRp916
(dp917
g62
(dp918
g82
g83
ssg71
g912
sg64
(lp919
S'remote_addr'
p920
asbag57
(g78
g59
NtRp921
(dp922
g62
(dp923
g89
g90
ssg71
g912
sg64
(lp924
S':'
asbag57
(g78
g59
NtRp925
(dp926
g62
(dp927
sg71
g912
sg64
(lp928
g57
(g58
g59
NtRp929
(dp930
g62
(dp931
g70
I4
ssg71
g925
sg64
(lp932
g229
asbasbasbag57
(g73
g59
NtRp933
(dp934
g62
(dp935
sg71
g491
sg64
(lp936
g57
(g78
g59
NtRp937
(dp938
g62
(dp939
g82
g83
ssg71
g933
sg64
(lp940
S'remote_port'
p941
asbag57
(g78
g59
NtRp942
(dp943
g62
(dp944
g89
g90
ssg71
g933
sg64
(lp945
S':'
asbag57
(g78
g59
NtRp946
(dp947
g62
(dp948
sg71
g933
sg64
(lp949
g57
(g58
g59
NtRp950
(dp951
g62
(dp952
g70
I4
ssg71
g946
sg64
(lp953
S'50147'
p954
asbasbasbag57
(g73
g59
NtRp955
(dp956
g62
(dp957
sg71
g491
sg64
(lp958
g57
(g78
g59
NtRp959
(dp960
g62
(dp961
g82
g83
ssg71
g955
sg64
(lp962
S'request_method'
p963
asbag57
(g78
g59
NtRp964
(dp965
g62
(dp966
g89
g90
ssg71
g955
sg64
(lp967
S':'
asbag57
(g78
g59
NtRp968
(dp969
g62
(dp970
sg71
g955
sg64
(lp971
g57
(g58
g59
NtRp972
(dp973
g62
(dp974
g70
I4
ssg71
g968
sg64
(lp975
S'GET'
p976
asbasbasbag57
(g73
g59
NtRp977
(dp978
g62
(dp979
sg71
g491
sg64
(lp980
g57
(g78
g59
NtRp981
(dp982
g62
(dp983
g82
g83
ssg71
g977
sg64
(lp984
S'script_name'
p985
asbag57
(g78
g59
NtRp986
(dp987
g62
(dp988
g89
g90
ssg71
g977
sg64
(lp989
S':'
asbag57
(g78
g59
NtRp990
(dp991
g62
(dp992
sg71
g977
sg64
(lp993
g57
(g58
g59
NtRp994
(dp995
g62
(dp996
g70
I4
ssg71
g990
sg64
(lp997
S''
asbasbasbag57
(g73
g59
NtRp998
(dp999
g62
(dp1000
sg71
g491
sg64
(lp1001
g57
(g78
g59
NtRp1002
(dp1003
g62
(dp1004
g82
g83
ssg71
g998
sg64
(lp1005
S'server_name'
p1006
asbag57
(g78
g59
NtRp1007
(dp1008
g62
(dp1009
g89
g90
ssg71
g998
sg64
(lp1010
S':'
asbag57
(g78
g59
NtRp1011
(dp1012
g62
(dp1013
sg71
g998
sg64
(lp1014
g57
(g58
g59
NtRp1015
(dp1016
g62
(dp1017
g70
I4
ssg71
g1011
sg64
(lp1018
S'Jorge-PC'
p1019
asbasbasbag57
(g73
g59
NtRp1020
(dp1021
g62
(dp1022
sg71
g491
sg64
(lp1023
g57
(g78
g59
NtRp1024
(dp1025
g62
(dp1026
g82
g83
ssg71
g1020
sg64
(lp1027
S'server_port'
p1028
asbag57
(g78
g59
NtRp1029
(dp1030
g62
(dp1031
g89
g90
ssg71
g1020
sg64
(lp1032
S':'
asbag57
(g78
g59
NtRp1033
(dp1034
g62
(dp1035
sg71
g1020
sg64
(lp1036
g57
(g58
g59
NtRp1037
(dp1038
g62
(dp1039
g70
I4
ssg71
g1033
sg64
(lp1040
S'8000'
p1041
asbasbasbag57
(g73
g59
NtRp1042
(dp1043
g62
(dp1044
sg71
g491
sg64
(lp1045
g57
(g78
g59
NtRp1046
(dp1047
g62
(dp1048
g82
g83
ssg71
g1042
sg64
(lp1049
S'server_protocol'
p1050
asbag57
(g78
g59
NtRp1051
(dp1052
g62
(dp1053
g89
g90
ssg71
g1042
sg64
(lp1054
S':'
asbag57
(g78
g59
NtRp1055
(dp1056
g62
(dp1057
sg71
g1042
sg64
(lp1058
g57
(g58
g59
NtRp1059
(dp1060
g62
(dp1061
g70
I4
ssg71
g1055
sg64
(lp1062
S'HTTP/1.1'
p1063
asbasbasbag57
(g73
g59
NtRp1064
(dp1065
g62
(dp1066
sg71
g491
sg64
(lp1067
g57
(g78
g59
NtRp1068
(dp1069
g62
(dp1070
g82
g83
ssg71
g1064
sg64
(lp1071
S'server_software'
p1072
asbag57
(g78
g59
NtRp1073
(dp1074
g62
(dp1075
g89
g90
ssg71
g1064
sg64
(lp1076
S':'
asbag57
(g78
g59
NtRp1077
(dp1078
g62
(dp1079
sg71
g1064
sg64
(lp1080
g57
(g58
g59
NtRp1081
(dp1082
g62
(dp1083
g70
I4
ssg71
g1077
sg64
(lp1084
S'Rocket 1.2.4'
p1085
asbasbasbag57
(g73
g59
NtRp1086
(dp1087
g62
(dp1088
sg71
g491
sg64
(lp1089
g57
(g78
g59
NtRp1090
(dp1091
g62
(dp1092
g82
g83
ssg71
g1086
sg64
(lp1093
S'web2py_crontype'
p1094
asbag57
(g78
g59
NtRp1095
(dp1096
g62
(dp1097
g89
g90
ssg71
g1086
sg64
(lp1098
S':'
asbag57
(g78
g59
NtRp1099
(dp1100
g62
(dp1101
sg71
g1086
sg64
(lp1102
g57
(g58
g59
NtRp1103
(dp1104
g62
(dp1105
g70
I4
ssg71
g1099
sg64
(lp1106
S'hard'
p1107
asbasbasbag57
(g73
g59
NtRp1108
(dp1109
g62
(dp1110
sg71
g491
sg64
(lp1111
g57
(g78
g59
NtRp1112
(dp1113
g62
(dp1114
g82
g83
ssg71
g1108
sg64
(lp1115
S'web2py_path'
p1116
asbag57
(g78
g59
NtRp1117
(dp1118
g62
(dp1119
g89
g90
ssg71
g1108
sg64
(lp1120
S':'
asbag57
(g78
g59
NtRp1121
(dp1122
g62
(dp1123
sg71
g1108
sg64
(lp1124
g57
(g58
g59
NtRp1125
(dp1126
g62
(dp1127
g70
I4
ssg71
g1121
sg64
(lp1128
g538
asbasbasbag57
(g73
g59
NtRp1129
(dp1130
g62
(dp1131
sg71
g491
sg64
(lp1132
g57
(g78
g59
NtRp1133
(dp1134
g62
(dp1135
g82
g83
ssg71
g1129
sg64
(lp1136
S'web2py_version'
p1137
asbag57
(g78
g59
NtRp1138
(dp1139
g62
(dp1140
g89
g90
ssg71
g1129
sg64
(lp1141
S':'
asbag57
(g78
g59
NtRp1142
(dp1143
g62
(dp1144
sg71
g1129
sg64
(lp1145
g57
(g58
g59
NtRp1146
(dp1147
g62
(dp1148
g70
I4
ssg71
g1142
sg64
(lp1149
g57
(g66
g59
NtRp1150
(dp1151
g62
(dp1152
g70
I3
ssg71
Nsg64
(lp1153
g57
(g73
g59
NtRp1154
(dp1155
g62
(dp1156
sg71
g1150
sg64
(lp1157
g57
(g78
g59
NtRp1158
(dp1159
g62
(dp1160
sg71
g1154
sg64
(lp1161
g57
(g58
g59
NtRp1162
(dp1163
g62
(dp1164
g70
I3
ssg71
g1158
sg64
(lp1165
S'1'
asbasbasbag57
(g73
g59
NtRp1166
(dp1167
g62
(dp1168
sg71
g1150
sg64
(lp1169
g57
(g78
g59
NtRp1170
(dp1171
g62
(dp1172
sg71
g1166
sg64
(lp1173
g57
(g58
g59
NtRp1174
(dp1175
g62
(dp1176
g70
I3
ssg71
g1170
sg64
(lp1177
S'99'
p1178
asbasbasbag57
(g73
g59
NtRp1179
(dp1180
g62
(dp1181
sg71
g1150
sg64
(lp1182
g57
(g78
g59
NtRp1183
(dp1184
g62
(dp1185
sg71
g1179
sg64
(lp1186
g57
(g58
g59
NtRp1187
(dp1188
g62
(dp1189
g70
I3
ssg71
g1183
sg64
(lp1190
S'7'
asbasbasbag57
(g73
g59
NtRp1191
(dp1192
g62
(dp1193
sg71
g1150
sg64
(lp1194
g57
(g78
g59
NtRp1195
(dp1196
g62
(dp1197
sg71
g1191
sg64
(lp1198
g57
(g58
g59
NtRp1199
(dp1200
g62
(dp1201
g70
I3
ssg71
g1195
sg64
(lp1202
S'datetime.datetime(2012, 3, 4, 22, 12, 8)'
p1203
asbasbasbag57
(g73
g59
NtRp1204
(dp1205
g62
(dp1206
sg71
g1150
sg64
(lp1207
g57
(g78
g59
NtRp1208
(dp1209
g62
(dp1210
sg71
g1204
sg64
(lp1211
g57
(g58
g59
NtRp1212
(dp1213
g62
(dp1214
g70
I3
ssg71
g1208
sg64
(lp1215
S'stable'
p1216
asbasbasbasbasbasbasbag57
(g73
g59
NtRp1217
(dp1218
g62
(dp1219
sg71
g491
sg64
(lp1220
g57
(g78
g59
NtRp1221
(dp1222
g62
(dp1223
g82
g83
ssg71
g1217
sg64
(lp1224
S'wsgi_errors'
p1225
asbag57
(g78
g59
NtRp1226
(dp1227
g62
(dp1228
g89
g90
ssg71
g1217
sg64
(lp1229
S':'
asbag57
(g78
g59
NtRp1230
(dp1231
g62
(dp1232
sg71
g1217
sg64
(lp1233
g57
(g58
g59
NtRp1234
(dp1235
g62
(dp1236
g70
I4
ssg71
g1230
sg64
(lp1237
S"<open file '<stderr>', mode 'w' at 0x0000000001D361E0>"
p1238
asbasbasbag57
(g73
g59
NtRp1239
(dp1240
g62
(dp1241
sg71
g491
sg64
(lp1242
g57
(g78
g59
NtRp1243
(dp1244
g62
(dp1245
g82
g83
ssg71
g1239
sg64
(lp1246
S'wsgi_file_wrapper'
p1247
asbag57
(g78
g59
NtRp1248
(dp1249
g62
(dp1250
g89
g90
ssg71
g1239
sg64
(lp1251
S':'
asbag57
(g78
g59
NtRp1252
(dp1253
g62
(dp1254
sg71
g1239
sg64
(lp1255
g57
(g58
g59
NtRp1256
(dp1257
g62
(dp1258
g70
I4
ssg71
g1252
sg64
(lp1259
S'<class wsgiref.util.FileWrapper at 0x000000000380EC48>'
p1260
asbasbasbag57
(g73
g59
NtRp1261
(dp1262
g62
(dp1263
sg71
g491
sg64
(lp1264
g57
(g78
g59
NtRp1265
(dp1266
g62
(dp1267
g82
g83
ssg71
g1261
sg64
(lp1268
S'wsgi_input'
p1269
asbag57
(g78
g59
NtRp1270
(dp1271
g62
(dp1272
g89
g90
ssg71
g1261
sg64
(lp1273
S':'
asbag57
(g78
g59
NtRp1274
(dp1275
g62
(dp1276
sg71
g1261
sg64
(lp1277
g57
(g58
g59
NtRp1278
(dp1279
g62
(dp1280
g70
I4
ssg71
g1274
sg64
(lp1281
S'<socket._fileobject object at 0x00000000049AB5E8>'
p1282
asbasbasbag57
(g73
g59
NtRp1283
(dp1284
g62
(dp1285
sg71
g491
sg64
(lp1286
g57
(g78
g59
NtRp1287
(dp1288
g62
(dp1289
g82
g83
ssg71
g1283
sg64
(lp1290
S'wsgi_multiprocess'
p1291
asbag57
(g78
g59
NtRp1292
(dp1293
g62
(dp1294
g89
g90
ssg71
g1283
sg64
(lp1295
S':'
asbag57
(g78
g59
NtRp1296
(dp1297
g62
(dp1298
sg71
g1283
sg64
(lp1299
g57
(g58
g59
NtRp1300
(dp1301
g62
(dp1302
g70
I4
ssg71
g1296
sg64
(lp1303
g100
asbasbasbag57
(g73
g59
NtRp1304
(dp1305
g62
(dp1306
sg71
g491
sg64
(lp1307
g57
(g78
g59
NtRp1308
(dp1309
g62
(dp1310
g82
g83
ssg71
g1304
sg64
(lp1311
S'wsgi_multithread'
p1312
asbag57
(g78
g59
NtRp1313
(dp1314
g62
(dp1315
g89
g90
ssg71
g1304
sg64
(lp1316
S':'
asbag57
(g78
g59
NtRp1317
(dp1318
g62
(dp1319
sg71
g1304
sg64
(lp1320
g57
(g58
g59
NtRp1321
(dp1322
g62
(dp1323
g70
I4
ssg71
g1317
sg64
(lp1324
S'True'
p1325
asbasbasbag57
(g73
g59
NtRp1326
(dp1327
g62
(dp1328
sg71
g491
sg64
(lp1329
g57
(g78
g59
NtRp1330
(dp1331
g62
(dp1332
g82
g83
ssg71
g1326
sg64
(lp1333
S'wsgi_run_once'
p1334
asbag57
(g78
g59
NtRp1335
(dp1336
g62
(dp1337
g89
g90
ssg71
g1326
sg64
(lp1338
S':'
asbag57
(g78
g59
NtRp1339
(dp1340
g62
(dp1341
sg71
g1326
sg64
(lp1342
g57
(g58
g59
NtRp1343
(dp1344
g62
(dp1345
g70
I4
ssg71
g1339
sg64
(lp1346
g100
asbasbasbag57
(g73
g59
NtRp1347
(dp1348
g62
(dp1349
sg71
g491
sg64
(lp1350
g57
(g78
g59
NtRp1351
(dp1352
g62
(dp1353
g82
g83
ssg71
g1347
sg64
(lp1354
S'wsgi_url_scheme'
p1355
asbag57
(g78
g59
NtRp1356
(dp1357
g62
(dp1358
g89
g90
ssg71
g1347
sg64
(lp1359
S':'
asbag57
(g78
g59
NtRp1360
(dp1361
g62
(dp1362
sg71
g1347
sg64
(lp1363
g57
(g58
g59
NtRp1364
(dp1365
g62
(dp1366
g70
I4
ssg71
g1360
sg64
(lp1367
S'http'
p1368
asbasbasbag57
(g73
g59
NtRp1369
(dp1370
g62
(dp1371
sg71
g491
sg64
(lp1372
g57
(g78
g59
NtRp1373
(dp1374
g62
(dp1375
g82
g83
ssg71
g1369
sg64
(lp1376
S'wsgi_version'
p1377
asbag57
(g78
g59
NtRp1378
(dp1379
g62
(dp1380
g89
g90
ssg71
g1369
sg64
(lp1381
S':'
asbag57
(g78
g59
NtRp1382
(dp1383
g62
(dp1384
sg71
g1369
sg64
(lp1385
g57
(g58
g59
NtRp1386
(dp1387
g62
(dp1388
g70
I4
ssg71
g1382
sg64
(lp1389
g57
(g66
g59
NtRp1390
(dp1391
g62
(dp1392
g70
I3
ssg71
Nsg64
(lp1393
g57
(g73
g59
NtRp1394
(dp1395
g62
(dp1396
sg71
g1390
sg64
(lp1397
g57
(g78
g59
NtRp1398
(dp1399
g62
(dp1400
sg71
g1394
sg64
(lp1401
g57
(g58
g59
NtRp1402
(dp1403
g62
(dp1404
g70
I3
ssg71
g1398
sg64
(lp1405
S'1'
asbasbasbag57
(g73
g59
NtRp1406
(dp1407
g62
(dp1408
sg71
g1390
sg64
(lp1409
g57
(g78
g59
NtRp1410
(dp1411
g62
(dp1412
sg71
g1406
sg64
(lp1413
g57
(g58
g59
NtRp1414
(dp1415
g62
(dp1416
g70
I3
ssg71
g1410
sg64
(lp1417
S'0'
asbasbasbasbasbasbasbasbasbasbasbag57
(g73
g59
NtRp1418
(dp1419
g62
(dp1420
sg71
g67
sg64
(lp1421
g57
(g78
g59
NtRp1422
(dp1423
g62
(dp1424
g82
g83
ssg71
g1418
sg64
(lp1425
S'extension'
p1426
asbag57
(g78
g59
NtRp1427
(dp1428
g62
(dp1429
g89
g90
ssg71
g1418
sg64
(lp1430
S':'
asbag57
(g78
g59
NtRp1431
(dp1432
g62
(dp1433
sg71
g1418
sg64
(lp1434
g57
(g58
g59
NtRp1435
(dp1436
g62
(dp1437
g70
I5
ssg71
g1431
sg64
(lp1438
S'html'
p1439
asbasbasbag57
(g73
g59
NtRp1440
(dp1441
g62
(dp1442
sg71
g67
sg64
(lp1443
g57
(g78
g59
NtRp1444
(dp1445
g62
(dp1446
g82
g83
ssg71
g1440
sg64
(lp1447
S'folder'
p1448
asbag57
(g78
g59
NtRp1449
(dp1450
g62
(dp1451
g89
g90
ssg71
g1440
sg64
(lp1452
S':'
asbag57
(g78
g59
NtRp1453
(dp1454
g62
(dp1455
sg71
g1440
sg64
(lp1456
g57
(g58
g59
NtRp1457
(dp1458
g62
(dp1459
g70
I5
ssg71
g1453
sg64
(lp1460
S'c:\\Users\\Jorge\\Downloads\\web2py_src\\web2py\\applications\\init\\'
p1461
asbasbasbag57
(g73
g59
NtRp1462
(dp1463
g62
(dp1464
sg71
g67
sg64
(lp1465
g57
(g78
g59
NtRp1466
(dp1467
g62
(dp1468
g82
g83
ssg71
g1462
sg64
(lp1469
S'function'
p1470
asbag57
(g78
g59
NtRp1471
(dp1472
g62
(dp1473
g89
g90
ssg71
g1462
sg64
(lp1474
S':'
asbag57
(g78
g59
NtRp1475
(dp1476
g62
(dp1477
sg71
g1462
sg64
(lp1478
g57
(g58
g59
NtRp1479
(dp1480
g62
(dp1481
g70
I5
ssg71
g1475
sg64
(lp1482
S'prueba'
p1483
asbasbasbag57
(g73
g59
NtRp1484
(dp1485
g62
(dp1486
sg71
g67
sg64
(lp1487
g57
(g78
g59
NtRp1488
(dp1489
g62
(dp1490
g82
g83
ssg71
g1484
sg64
(lp1491
S'get_vars'
p1492
asbag57
(g78
g59
NtRp1493
(dp1494
g62
(dp1495
g89
g90
ssg71
g1484
sg64
(lp1496
S':'
asbag57
(g78
g59
NtRp1497
(dp1498
g62
(dp1499
sg71
g1484
sg64
(lp1500
g57
(g58
g59
NtRp1501
(dp1502
g62
(dp1503
g70
I5
ssg71
g1497
sg64
(lp1504
g57
(g66
g59
NtRp1505
(dp1506
g62
(dp1507
g70
I4
ssg71
Nsg64
(lp1508
sbasbasbasbag57
(g73
g59
NtRp1509
(dp1510
g62
(dp1511
sg71
g67
sg64
(lp1512
g57
(g78
g59
NtRp1513
(dp1514
g62
(dp1515
g82
g83
ssg71
g1509
sg64
(lp1516
S'global_settings'
p1517
asbag57
(g78
g59
NtRp1518
(dp1519
g62
(dp1520
g89
g90
ssg71
g1509
sg64
(lp1521
S':'
asbag57
(g78
g59
NtRp1522
(dp1523
g62
(dp1524
sg71
g1509
sg64
(lp1525
g57
(g58
g59
NtRp1526
(dp1527
g62
(dp1528
g70
I5
ssg71
g1522
sg64
(lp1529
g57
(g66
g59
NtRp1530
(dp1531
g62
(dp1532
g70
I4
ssg71
Nsg64
(lp1533
g57
(g73
g59
NtRp1534
(dp1535
g62
(dp1536
sg71
g1530
sg64
(lp1537
g57
(g78
g59
NtRp1538
(dp1539
g62
(dp1540
g82
g83
ssg71
g1534
sg64
(lp1541
g503
asbag57
(g78
g59
NtRp1542
(dp1543
g62
(dp1544
g89
g90
ssg71
g1534
sg64
(lp1545
S':'
asbag57
(g78
g59
NtRp1546
(dp1547
g62
(dp1548
sg71
g1534
sg64
(lp1549
g57
(g58
g59
NtRp1550
(dp1551
g62
(dp1552
g70
I4
ssg71
g1546
sg64
(lp1553
S"set(['c:\\\\Users\\\\Jorge\\\\Downloads\\\\web2py_src\\\\web2py\\\\applications\\\\init\\\\'])"
p1554
asbasbasbag57
(g73
g59
NtRp1555
(dp1556
g62
(dp1557
sg71
g1530
sg64
(lp1558
g57
(g78
g59
NtRp1559
(dp1560
g62
(dp1561
g82
g83
ssg71
g1555
sg64
(lp1562
g525
asbag57
(g78
g59
NtRp1563
(dp1564
g62
(dp1565
g89
g90
ssg71
g1555
sg64
(lp1566
S':'
asbag57
(g78
g59
NtRp1567
(dp1568
g62
(dp1569
sg71
g1555
sg64
(lp1570
g57
(g58
g59
NtRp1571
(dp1572
g62
(dp1573
g70
I4
ssg71
g1567
sg64
(lp1574
g538
asbasbasbag57
(g73
g59
NtRp1575
(dp1576
g62
(dp1577
sg71
g1530
sg64
(lp1578
g57
(g78
g59
NtRp1579
(dp1580
g62
(dp1581
g82
g83
ssg71
g1575
sg64
(lp1582
g547
asbag57
(g78
g59
NtRp1583
(dp1584
g62
(dp1585
g89
g90
ssg71
g1575
sg64
(lp1586
S':'
asbag57
(g78
g59
NtRp1587
(dp1588
g62
(dp1589
sg71
g1575
sg64
(lp1590
g57
(g58
g59
NtRp1591
(dp1592
g62
(dp1593
g70
I4
ssg71
g1587
sg64
(lp1594
g57
(g66
g59
NtRp1595
(dp1596
g62
(dp1597
g70
I3
ssg71
Nsg64
(lp1598
sbasbasbasbag57
(g73
g59
NtRp1599
(dp1600
g62
(dp1601
sg71
g1530
sg64
(lp1602
g57
(g78
g59
NtRp1603
(dp1604
g62
(dp1605
g82
g83
ssg71
g1599
sg64
(lp1606
g572
asbag57
(g78
g59
NtRp1607
(dp1608
g62
(dp1609
g89
g90
ssg71
g1599
sg64
(lp1610
S':'
asbag57
(g78
g59
NtRp1611
(dp1612
g62
(dp1613
sg71
g1599
sg64
(lp1614
g57
(g58
g59
NtRp1615
(dp1616
g62
(dp1617
g70
I4
ssg71
g1611
sg64
(lp1618
S"<Values at 0x374e208: {'verbose': False, 'ip': '127.0.0.1', 'shutdown_timeout': 5, 'taskbar': False, 'nocron': False, 'pid_filename': 'httpserver.pid', 'maxthreads': None, 'softcron': False, 'server_name': 'Jorge-PC', 'bpython': False, 'nogui': False, 'port': 8000, 'extcron': False, 'debuglevel': 30, 'test': None, 'folder': 'c:\\\\Users\\\\Jorge\\\\Downloads\\\\web2py_src\\\\web2py', 'config': '', 'import_models': False, 'winservice': '', 'shell': None, 'run': '', 'log_filename': 'httpserver.log', 'args': [''], 'socket_timeout': 5, 'ssl_ca_certificate': None, 'scheduler': None, 'profiler_filename': None, 'ssl_private_key': '', 'password': '<ask>', 'request_queue_size': 5, 'ssl_certificate': '', 'cronjob': False, 'numthreads': None, 'quiet': False, 'interfaces': None, 'minthreads': None, 'timeout': 10, 'plain': False, 'nobanner': False}>"
p1619
asbasbasbag57
(g73
g59
NtRp1620
(dp1621
g62
(dp1622
sg71
g1530
sg64
(lp1623
g57
(g78
g59
NtRp1624
(dp1625
g62
(dp1626
g82
g83
ssg71
g1620
sg64
(lp1627
g594
asbag57
(g78
g59
NtRp1628
(dp1629
g62
(dp1630
g89
g90
ssg71
g1620
sg64
(lp1631
S':'
asbag57
(g78
g59
NtRp1632
(dp1633
g62
(dp1634
sg71
g1620
sg64
(lp1635
g57
(g58
g59
NtRp1636
(dp1637
g62
(dp1638
g70
I4
ssg71
g1632
sg64
(lp1639
S'set([])'
p1640
asbasbasbag57
(g73
g59
NtRp1641
(dp1642
g62
(dp1643
sg71
g1530
sg64
(lp1644
g57
(g78
g59
NtRp1645
(dp1646
g62
(dp1647
g82
g83
ssg71
g1641
sg64
(lp1648
g616
asbag57
(g78
g59
NtRp1649
(dp1650
g62
(dp1651
g89
g90
ssg71
g1641
sg64
(lp1652
S':'
asbag57
(g78
g59
NtRp1653
(dp1654
g62
(dp1655
sg71
g1641
sg64
(lp1656
g57
(g58
g59
NtRp1657
(dp1658
g62
(dp1659
g70
I4
ssg71
g1653
sg64
(lp1660
g100
asbasbasbag57
(g73
g59
NtRp1661
(dp1662
g62
(dp1663
sg71
g1530
sg64
(lp1664
g57
(g78
g59
NtRp1665
(dp1666
g62
(dp1667
g82
g83
ssg71
g1661
sg64
(lp1668
g637
asbag57
(g78
g59
NtRp1669
(dp1670
g62
(dp1671
g89
g90
ssg71
g1661
sg64
(lp1672
S':'
asbag57
(g78
g59
NtRp1673
(dp1674
g62
(dp1675
sg71
g1661
sg64
(lp1676
g57
(g58
g59
NtRp1677
(dp1678
g62
(dp1679
g70
I4
ssg71
g1673
sg64
(lp1680
g650
asbasbasbag57
(g73
g59
NtRp1681
(dp1682
g62
(dp1683
sg71
g1530
sg64
(lp1684
g57
(g78
g59
NtRp1685
(dp1686
g62
(dp1687
g82
g83
ssg71
g1681
sg64
(lp1688
g835
asbag57
(g78
g59
NtRp1689
(dp1690
g62
(dp1691
g89
g90
ssg71
g1681
sg64
(lp1692
S':'
asbag57
(g78
g59
NtRp1693
(dp1694
g62
(dp1695
sg71
g1681
sg64
(lp1696
g57
(g58
g59
NtRp1697
(dp1698
g62
(dp1699
g70
I4
ssg71
g1693
sg64
(lp1700
g100
asbasbasbag57
(g73
g59
NtRp1701
(dp1702
g62
(dp1703
sg71
g1530
sg64
(lp1704
g57
(g78
g59
NtRp1705
(dp1706
g62
(dp1707
g82
g83
ssg71
g1701
sg64
(lp1708
g856
asbag57
(g78
g59
NtRp1709
(dp1710
g62
(dp1711
g89
g90
ssg71
g1701
sg64
(lp1712
S':'
asbag57
(g78
g59
NtRp1713
(dp1714
g62
(dp1715
sg71
g1701
sg64
(lp1716
g57
(g58
g59
NtRp1717
(dp1718
g62
(dp1719
g70
I4
ssg71
g1713
sg64
(lp1720
g100
asbasbasbag57
(g73
g59
NtRp1721
(dp1722
g62
(dp1723
sg71
g1530
sg64
(lp1724
g57
(g78
g59
NtRp1725
(dp1726
g62
(dp1727
g82
g83
ssg71
g1721
sg64
(lp1728
g1094
asbag57
(g78
g59
NtRp1729
(dp1730
g62
(dp1731
g89
g90
ssg71
g1721
sg64
(lp1732
S':'
asbag57
(g78
g59
NtRp1733
(dp1734
g62
(dp1735
sg71
g1721
sg64
(lp1736
g57
(g58
g59
NtRp1737
(dp1738
g62
(dp1739
g70
I4
ssg71
g1733
sg64
(lp1740
g1107
asbasbasbag57
(g73
g59
NtRp1741
(dp1742
g62
(dp1743
sg71
g1530
sg64
(lp1744
g57
(g78
g59
NtRp1745
(dp1746
g62
(dp1747
g82
g83
ssg71
g1741
sg64
(lp1748
g1137
asbag57
(g78
g59
NtRp1749
(dp1750
g62
(dp1751
g89
g90
ssg71
g1741
sg64
(lp1752
S':'
asbag57
(g78
g59
NtRp1753
(dp1754
g62
(dp1755
sg71
g1741
sg64
(lp1756
g57
(g58
g59
NtRp1757
(dp1758
g62
(dp1759
g70
I4
ssg71
g1753
sg64
(lp1760
g57
(g66
g59
NtRp1761
(dp1762
g62
(dp1763
g70
I3
ssg71
Nsg64
(lp1764
g57
(g73
g59
NtRp1765
(dp1766
g62
(dp1767
sg71
g1761
sg64
(lp1768
g57
(g78
g59
NtRp1769
(dp1770
g62
(dp1771
sg71
g1765
sg64
(lp1772
g57
(g58
g59
NtRp1773
(dp1774
g62
(dp1775
g70
I3
ssg71
g1769
sg64
(lp1776
S'1'
asbasbasbag57
(g73
g59
NtRp1777
(dp1778
g62
(dp1779
sg71
g1761
sg64
(lp1780
g57
(g78
g59
NtRp1781
(dp1782
g62
(dp1783
sg71
g1777
sg64
(lp1784
g57
(g58
g59
NtRp1785
(dp1786
g62
(dp1787
g70
I3
ssg71
g1781
sg64
(lp1788
S'99'
p1789
asbasbasbag57
(g73
g59
NtRp1790
(dp1791
g62
(dp1792
sg71
g1761
sg64
(lp1793
g57
(g78
g59
NtRp1794
(dp1795
g62
(dp1796
sg71
g1790
sg64
(lp1797
g57
(g58
g59
NtRp1798
(dp1799
g62
(dp1800
g70
I3
ssg71
g1794
sg64
(lp1801
S'7'
asbasbasbag57
(g73
g59
NtRp1802
(dp1803
g62
(dp1804
sg71
g1761
sg64
(lp1805
g57
(g78
g59
NtRp1806
(dp1807
g62
(dp1808
sg71
g1802
sg64
(lp1809
g57
(g58
g59
NtRp1810
(dp1811
g62
(dp1812
g70
I3
ssg71
g1806
sg64
(lp1813
S'datetime.datetime(2012, 3, 4, 22, 12, 8)'
p1814
asbasbasbag57
(g73
g59
NtRp1815
(dp1816
g62
(dp1817
sg71
g1761
sg64
(lp1818
g57
(g78
g59
NtRp1819
(dp1820
g62
(dp1821
sg71
g1815
sg64
(lp1822
g57
(g58
g59
NtRp1823
(dp1824
g62
(dp1825
g70
I3
ssg71
g1819
sg64
(lp1826
g1216
asbasbasbasbasbasbasbasbasbasbasbag57
(g73
g59
NtRp1827
(dp1828
g62
(dp1829
sg71
g67
sg64
(lp1830
g57
(g78
g59
NtRp1831
(dp1832
g62
(dp1833
g82
g83
ssg71
g1827
sg64
(lp1834
S'is_https'
p1835
asbag57
(g78
g59
NtRp1836
(dp1837
g62
(dp1838
g89
g90
ssg71
g1827
sg64
(lp1839
S':'
asbag57
(g78
g59
NtRp1840
(dp1841
g62
(dp1842
sg71
g1827
sg64
(lp1843
g57
(g58
g59
NtRp1844
(dp1845
g62
(dp1846
g70
I5
ssg71
g1840
sg64
(lp1847
g100
asbasbasbag57
(g73
g59
NtRp1848
(dp1849
g62
(dp1850
sg71
g67
sg64
(lp1851
g57
(g78
g59
NtRp1852
(dp1853
g62
(dp1854
g82
g83
ssg71
g1848
sg64
(lp1855
S'is_local'
p1856
asbag57
(g78
g59
NtRp1857
(dp1858
g62
(dp1859
g89
g90
ssg71
g1848
sg64
(lp1860
S':'
asbag57
(g78
g59
NtRp1861
(dp1862
g62
(dp1863
sg71
g1848
sg64
(lp1864
g57
(g58
g59
NtRp1865
(dp1866
g62
(dp1867
g70
I5
ssg71
g1861
sg64
(lp1868
g1325
asbasbasbag57
(g73
g59
NtRp1869
(dp1870
g62
(dp1871
sg71
g67
sg64
(lp1872
g57
(g78
g59
NtRp1873
(dp1874
g62
(dp1875
g82
g83
ssg71
g1869
sg64
(lp1876
S'is_restful'
p1877
asbag57
(g78
g59
NtRp1878
(dp1879
g62
(dp1880
g89
g90
ssg71
g1869
sg64
(lp1881
S':'
asbag57
(g78
g59
NtRp1882
(dp1883
g62
(dp1884
sg71
g1869
sg64
(lp1885
g57
(g58
g59
NtRp1886
(dp1887
g62
(dp1888
g70
I5
ssg71
g1882
sg64
(lp1889
g100
asbasbasbag57
(g73
g59
NtRp1890
(dp1891
g62
(dp1892
sg71
g67
sg64
(lp1893
g57
(g78
g59
NtRp1894
(dp1895
g62
(dp1896
g82
g83
ssg71
g1890
sg64
(lp1897
S'now'
p1898
asbag57
(g78
g59
NtRp1899
(dp1900
g62
(dp1901
g89
g90
ssg71
g1890
sg64
(lp1902
S':'
asbag57
(g78
g59
NtRp1903
(dp1904
g62
(dp1905
sg71
g1890
sg64
(lp1906
g57
(g58
g59
NtRp1907
(dp1908
g62
(dp1909
g70
I5
ssg71
g1903
sg64
(lp1910
S'datetime.datetime(2012, 4, 30, 22, 11, 0, 943000)'
p1911
asbasbasbag57
(g73
g59
NtRp1912
(dp1913
g62
(dp1914
sg71
g67
sg64
(lp1915
g57
(g78
g59
NtRp1916
(dp1917
g62
(dp1918
g82
g83
ssg71
g1912
sg64
(lp1919
S'post_vars'
p1920
asbag57
(g78
g59
NtRp1921
(dp1922
g62
(dp1923
g89
g90
ssg71
g1912
sg64
(lp1924
S':'
asbag57
(g78
g59
NtRp1925
(dp1926
g62
(dp1927
sg71
g1912
sg64
(lp1928
g57
(g58
g59
NtRp1929
(dp1930
g62
(dp1931
g70
I5
ssg71
g1925
sg64
(lp1932
g57
(g66
g59
NtRp1933
(dp1934
g62
(dp1935
g70
I4
ssg71
Nsg64
(lp1936
sbasbasbasbag57
(g73
g59
NtRp1937
(dp1938
g62
(dp1939
sg71
g67
sg64
(lp1940
g57
(g78
g59
NtRp1941
(dp1942
g62
(dp1943
g82
g83
ssg71
g1937
sg64
(lp1944
S'raw_args'
p1945
asbag57
(g78
g59
NtRp1946
(dp1947
g62
(dp1948
g89
g90
ssg71
g1937
sg64
(lp1949
S':'
asbag57
(g78
g59
NtRp1950
(dp1951
g62
(dp1952
sg71
g1937
sg64
(lp1953
g57
(g58
g59
NtRp1954
(dp1955
g62
(dp1956
g70
I5
ssg71
g1950
sg64
(lp1957
S'read/movimientos/20'
p1958
asbasbasbag57
(g73
g59
NtRp1959
(dp1960
g62
(dp1961
sg71
g67
sg64
(lp1962
g57
(g78
g59
NtRp1963
(dp1964
g62
(dp1965
g82
g83
ssg71
g1959
sg64
(lp1966
S'url'
p1967
asbag57
(g78
g59
NtRp1968
(dp1969
g62
(dp1970
g89
g90
ssg71
g1959
sg64
(lp1971
S':'
asbag57
(g78
g59
NtRp1972
(dp1973
g62
(dp1974
sg71
g1959
sg64
(lp1975
g57
(g58
g59
NtRp1976
(dp1977
g62
(dp1978
g70
I5
ssg71
g1972
sg64
(lp1979
S'/init/default/prueba/read/movimientos/20'
p1980
asbasbasbag57
(g73
g59
NtRp1981
(dp1982
g62
(dp1983
sg71
g67
sg64
(lp1984
g57
(g78
g59
NtRp1985
(dp1986
g62
(dp1987
g82
g83
ssg71
g1981
sg64
(lp1988
S'utcnow'
p1989
asbag57
(g78
g59
NtRp1990
(dp1991
g62
(dp1992
g89
g90
ssg71
g1981
sg64
(lp1993
S':'
asbag57
(g78
g59
NtRp1994
(dp1995
g62
(dp1996
sg71
g1981
sg64
(lp1997
g57
(g58
g59
NtRp1998
(dp1999
g62
(dp2000
g70
I5
ssg71
g1994
sg64
(lp2001
S'datetime.datetime(2012, 5, 1, 1, 11, 0, 943000)'
p2002
asbasbasbag57
(g73
g59
NtRp2003
(dp2004
g62
(dp2005
sg71
g67
sg64
(lp2006
g57
(g78
g59
NtRp2007
(dp2008
g62
(dp2009
g82
g83
ssg71
g2003
sg64
(lp2010
S'uuid'
p2011
asbag57
(g78
g59
NtRp2012
(dp2013
g62
(dp2014
g89
g90
ssg71
g2003
sg64
(lp2015
S':'
asbag57
(g78
g59
NtRp2016
(dp2017
g62
(dp2018
sg71
g2003
sg64
(lp2019
g57
(g58
g59
NtRp2020
(dp2021
g62
(dp2022
g70
I5
ssg71
g2016
sg64
(lp2023
S'init/127.0.0.1.2012-04-30.22-11-00.c1dd1a62-afc9-4e74-bb72-6d3939f4dd3f'
p2024
asbasbasbag57
(g73
g59
NtRp2025
(dp2026
g62
(dp2027
sg71
g67
sg64
(lp2028
g57
(g78
g59
NtRp2029
(dp2030
g62
(dp2031
g82
g83
ssg71
g2025
sg64
(lp2032
S'vars'
p2033
asbag57
(g78
g59
NtRp2034
(dp2035
g62
(dp2036
g89
g90
ssg71
g2025
sg64
(lp2037
S':'
asbag57
(g78
g59
NtRp2038
(dp2039
g62
(dp2040
sg71
g2025
sg64
(lp2041
g57
(g58
g59
NtRp2042
(dp2043
g62
(dp2044
g70
I5
ssg71
g2038
sg64
(lp2045
g57
(g66
g59
NtRp2046
(dp2047
g62
(dp2048
g70
I4
ssg71
Nsg64
(lp2049
sbasbasbasbag57
(g73
g59
NtRp2050
(dp2051
g62
(dp2052
sg71
g67
sg64
(lp2053
g57
(g78
g59
NtRp2054
(dp2055
g62
(dp2056
g82
g83
ssg71
g2050
sg64
(lp2057
S'wsgi'
p2058
asbag57
(g78
g59
NtRp2059
(dp2060
g62
(dp2061
g89
g90
ssg71
g2050
sg64
(lp2062
S':'
asbag57
(g78
g59
NtRp2063
(dp2064
g62
(dp2065
sg71
g2050
sg64
(lp2066
g57
(g58
g59
NtRp2067
(dp2068
g62
(dp2069
g70
I5
ssg71
g2063
sg64
(lp2070
g57
(g66
g59
NtRp2071
(dp2072
g62
(dp2073
g70
I4
ssg71
Nsg64
(lp2074
g57
(g73
g59
NtRp2075
(dp2076
g62
(dp2077
sg71
g2071
sg64
(lp2078
g57
(g78
g59
NtRp2079
(dp2080
g62
(dp2081
g82
g83
ssg71
g2075
sg64
(lp2082
S'environ'
p2083
asbag57
(g78
g59
NtRp2084
(dp2085
g62
(dp2086
g89
g90
ssg71
g2075
sg64
(lp2087
S':'
asbag57
(g78
g59
NtRp2088
(dp2089
g62
(dp2090
sg71
g2075
sg64
(lp2091
g57
(g58
g59
NtRp2092
(dp2093
g62
(dp2094
g70
I4
ssg71
g2088
sg64
(lp2095
g57
(g66
g59
NtRp2096
(dp2097
g62
(dp2098
g70
I3
ssg71
Nsg64
(lp2099
g57
(g73
g59
NtRp2100
(dp2101
g62
(dp2102
sg71
g2096
sg64
(lp2103
g57
(g78
g59
NtRp2104
(dp2105
g62
(dp2106
g82
g83
ssg71
g2100
sg64
(lp2107
S'HTTP_ACCEPT'
p2108
asbag57
(g78
g59
NtRp2109
(dp2110
g62
(dp2111
g89
g90
ssg71
g2100
sg64
(lp2112
S':'
asbag57
(g78
g59
NtRp2113
(dp2114
g62
(dp2115
sg71
g2100
sg64
(lp2116
g57
(g58
g59
NtRp2117
(dp2118
g62
(dp2119
g70
I3
ssg71
g2113
sg64
(lp2120
g672
asbasbasbag57
(g73
g59
NtRp2121
(dp2122
g62
(dp2123
sg71
g2096
sg64
(lp2124
g57
(g78
g59
NtRp2125
(dp2126
g62
(dp2127
g82
g83
ssg71
g2121
sg64
(lp2128
S'HTTP_ACCEPT_ENCODING'
p2129
asbag57
(g78
g59
NtRp2130
(dp2131
g62
(dp2132
g89
g90
ssg71
g2121
sg64
(lp2133
S':'
asbag57
(g78
g59
NtRp2134
(dp2135
g62
(dp2136
sg71
g2121
sg64
(lp2137
g57
(g58
g59
NtRp2138
(dp2139
g62
(dp2140
g70
I3
ssg71
g2134
sg64
(lp2141
g694
asbasbasbag57
(g73
g59
NtRp2142
(dp2143
g62
(dp2144
sg71
g2096
sg64
(lp2145
g57
(g78
g59
NtRp2146
(dp2147
g62
(dp2148
g82
g83
ssg71
g2142
sg64
(lp2149
S'HTTP_ACCEPT_LANGUAGE'
p2150
asbag57
(g78
g59
NtRp2151
(dp2152
g62
(dp2153
g89
g90
ssg71
g2142
sg64
(lp2154
S':'
asbag57
(g78
g59
NtRp2155
(dp2156
g62
(dp2157
sg71
g2142
sg64
(lp2158
g57
(g58
g59
NtRp2159
(dp2160
g62
(dp2161
g70
I3
ssg71
g2155
sg64
(lp2162
g716
asbasbasbag57
(g73
g59
NtRp2163
(dp2164
g62
(dp2165
sg71
g2096
sg64
(lp2166
g57
(g78
g59
NtRp2167
(dp2168
g62
(dp2169
g82
g83
ssg71
g2163
sg64
(lp2170
S'HTTP_CONNECTION'
p2171
asbag57
(g78
g59
NtRp2172
(dp2173
g62
(dp2174
g89
g90
ssg71
g2163
sg64
(lp2175
S':'
asbag57
(g78
g59
NtRp2176
(dp2177
g62
(dp2178
sg71
g2163
sg64
(lp2179
g57
(g58
g59
NtRp2180
(dp2181
g62
(dp2182
g70
I3
ssg71
g2176
sg64
(lp2183
g738
asbasbasbag57
(g73
g59
NtRp2184
(dp2185
g62
(dp2186
sg71
g2096
sg64
(lp2187
g57
(g78
g59
NtRp2188
(dp2189
g62
(dp2190
g82
g83
ssg71
g2184
sg64
(lp2191
S'HTTP_COOKIE'
p2192
asbag57
(g78
g59
NtRp2193
(dp2194
g62
(dp2195
g89
g90
ssg71
g2184
sg64
(lp2196
S':'
asbag57
(g78
g59
NtRp2197
(dp2198
g62
(dp2199
sg71
g2184
sg64
(lp2200
g57
(g58
g59
NtRp2201
(dp2202
g62
(dp2203
g70
I3
ssg71
g2197
sg64
(lp2204
g760
asbasbasbag57
(g73
g59
NtRp2205
(dp2206
g62
(dp2207
sg71
g2096
sg64
(lp2208
g57
(g78
g59
NtRp2209
(dp2210
g62
(dp2211
g82
g83
ssg71
g2205
sg64
(lp2212
S'HTTP_HOST'
p2213
asbag57
(g78
g59
NtRp2214
(dp2215
g62
(dp2216
g89
g90
ssg71
g2205
sg64
(lp2217
S':'
asbag57
(g78
g59
NtRp2218
(dp2219
g62
(dp2220
sg71
g2205
sg64
(lp2221
g57
(g58
g59
NtRp2222
(dp2223
g62
(dp2224
g70
I3
ssg71
g2218
sg64
(lp2225
g782
asbasbasbag57
(g73
g59
NtRp2226
(dp2227
g62
(dp2228
sg71
g2096
sg64
(lp2229
g57
(g78
g59
NtRp2230
(dp2231
g62
(dp2232
g82
g83
ssg71
g2226
sg64
(lp2233
S'HTTP_REFERER'
p2234
asbag57
(g78
g59
NtRp2235
(dp2236
g62
(dp2237
g89
g90
ssg71
g2226
sg64
(lp2238
S':'
asbag57
(g78
g59
NtRp2239
(dp2240
g62
(dp2241
sg71
g2226
sg64
(lp2242
g57
(g58
g59
NtRp2243
(dp2244
g62
(dp2245
g70
I3
ssg71
g2239
sg64
(lp2246
g804
asbasbasbag57
(g73
g59
NtRp2247
(dp2248
g62
(dp2249
sg71
g2096
sg64
(lp2250
g57
(g78
g59
NtRp2251
(dp2252
g62
(dp2253
g82
g83
ssg71
g2247
sg64
(lp2254
S'HTTP_USER_AGENT'
p2255
asbag57
(g78
g59
NtRp2256
(dp2257
g62
(dp2258
g89
g90
ssg71
g2247
sg64
(lp2259
S':'
asbag57
(g78
g59
NtRp2260
(dp2261
g62
(dp2262
sg71
g2247
sg64
(lp2263
g57
(g58
g59
NtRp2264
(dp2265
g62
(dp2266
g70
I3
ssg71
g2260
sg64
(lp2267
g826
asbasbasbag57
(g73
g59
NtRp2268
(dp2269
g62
(dp2270
sg71
g2096
sg64
(lp2271
g57
(g78
g59
NtRp2272
(dp2273
g62
(dp2274
g82
g83
ssg71
g2268
sg64
(lp2275
S'PATH_INFO'
p2276
asbag57
(g78
g59
NtRp2277
(dp2278
g62
(dp2279
g89
g90
ssg71
g2268
sg64
(lp2280
S':'
asbag57
(g78
g59
NtRp2281
(dp2282
g62
(dp2283
sg71
g2268
sg64
(lp2284
g57
(g58
g59
NtRp2285
(dp2286
g62
(dp2287
g70
I3
ssg71
g2281
sg64
(lp2288
g890
asbasbasbag57
(g73
g59
NtRp2289
(dp2290
g62
(dp2291
sg71
g2096
sg64
(lp2292
g57
(g78
g59
NtRp2293
(dp2294
g62
(dp2295
g82
g83
ssg71
g2289
sg64
(lp2296
S'QUERY_STRING'
p2297
asbag57
(g78
g59
NtRp2298
(dp2299
g62
(dp2300
g89
g90
ssg71
g2289
sg64
(lp2301
S':'
asbag57
(g78
g59
NtRp2302
(dp2303
g62
(dp2304
sg71
g2289
sg64
(lp2305
g57
(g58
g59
NtRp2306
(dp2307
g62
(dp2308
g70
I3
ssg71
g2302
sg64
(lp2309
S''
asbasbasbag57
(g73
g59
NtRp2310
(dp2311
g62
(dp2312
sg71
g2096
sg64
(lp2313
g57
(g78
g59
NtRp2314
(dp2315
g62
(dp2316
g82
g83
ssg71
g2310
sg64
(lp2317
S'REMOTE_ADDR'
p2318
asbag57
(g78
g59
NtRp2319
(dp2320
g62
(dp2321
g89
g90
ssg71
g2310
sg64
(lp2322
S':'
asbag57
(g78
g59
NtRp2323
(dp2324
g62
(dp2325
sg71
g2310
sg64
(lp2326
g57
(g58
g59
NtRp2327
(dp2328
g62
(dp2329
g70
I3
ssg71
g2323
sg64
(lp2330
g229
asbasbasbag57
(g73
g59
NtRp2331
(dp2332
g62
(dp2333
sg71
g2096
sg64
(lp2334
g57
(g78
g59
NtRp2335
(dp2336
g62
(dp2337
g82
g83
ssg71
g2331
sg64
(lp2338
S'REMOTE_PORT'
p2339
asbag57
(g78
g59
NtRp2340
(dp2341
g62
(dp2342
g89
g90
ssg71
g2331
sg64
(lp2343
S':'
asbag57
(g78
g59
NtRp2344
(dp2345
g62
(dp2346
sg71
g2331
sg64
(lp2347
g57
(g58
g59
NtRp2348
(dp2349
g62
(dp2350
g70
I3
ssg71
g2344
sg64
(lp2351
g954
asbasbasbag57
(g73
g59
NtRp2352
(dp2353
g62
(dp2354
sg71
g2096
sg64
(lp2355
g57
(g78
g59
NtRp2356
(dp2357
g62
(dp2358
g82
g83
ssg71
g2352
sg64
(lp2359
S'REQUEST_METHOD'
p2360
asbag57
(g78
g59
NtRp2361
(dp2362
g62
(dp2363
g89
g90
ssg71
g2352
sg64
(lp2364
S':'
asbag57
(g78
g59
NtRp2365
(dp2366
g62
(dp2367
sg71
g2352
sg64
(lp2368
g57
(g58
g59
NtRp2369
(dp2370
g62
(dp2371
g70
I3
ssg71
g2365
sg64
(lp2372
g976
asbasbasbag57
(g73
g59
NtRp2373
(dp2374
g62
(dp2375
sg71
g2096
sg64
(lp2376
g57
(g78
g59
NtRp2377
(dp2378
g62
(dp2379
g82
g83
ssg71
g2373
sg64
(lp2380
S'SCRIPT_NAME'
p2381
asbag57
(g78
g59
NtRp2382
(dp2383
g62
(dp2384
g89
g90
ssg71
g2373
sg64
(lp2385
S':'
asbag57
(g78
g59
NtRp2386
(dp2387
g62
(dp2388
sg71
g2373
sg64
(lp2389
g57
(g58
g59
NtRp2390
(dp2391
g62
(dp2392
g70
I3
ssg71
g2386
sg64
(lp2393
S''
asbasbasbag57
(g73
g59
NtRp2394
(dp2395
g62
(dp2396
sg71
g2096
sg64
(lp2397
g57
(g78
g59
NtRp2398
(dp2399
g62
(dp2400
g82
g83
ssg71
g2394
sg64
(lp2401
S'SERVER_NAME'
p2402
asbag57
(g78
g59
NtRp2403
(dp2404
g62
(dp2405
g89
g90
ssg71
g2394
sg64
(lp2406
S':'
asbag57
(g78
g59
NtRp2407
(dp2408
g62
(dp2409
sg71
g2394
sg64
(lp2410
g57
(g58
g59
NtRp2411
(dp2412
g62
(dp2413
g70
I3
ssg71
g2407
sg64
(lp2414
g1019
asbasbasbag57
(g73
g59
NtRp2415
(dp2416
g62
(dp2417
sg71
g2096
sg64
(lp2418
g57
(g78
g59
NtRp2419
(dp2420
g62
(dp2421
g82
g83
ssg71
g2415
sg64
(lp2422
S'SERVER_PORT'
p2423
asbag57
(g78
g59
NtRp2424
(dp2425
g62
(dp2426
g89
g90
ssg71
g2415
sg64
(lp2427
S':'
asbag57
(g78
g59
NtRp2428
(dp2429
g62
(dp2430
sg71
g2415
sg64
(lp2431
g57
(g58
g59
NtRp2432
(dp2433
g62
(dp2434
g70
I3
ssg71
g2428
sg64
(lp2435
g1041
asbasbasbag57
(g73
g59
NtRp2436
(dp2437
g62
(dp2438
sg71
g2096
sg64
(lp2439
g57
(g78
g59
NtRp2440
(dp2441
g62
(dp2442
g82
g83
ssg71
g2436
sg64
(lp2443
S'SERVER_PROTOCOL'
p2444
asbag57
(g78
g59
NtRp2445
(dp2446
g62
(dp2447
g89
g90
ssg71
g2436
sg64
(lp2448
S':'
asbag57
(g78
g59
NtRp2449
(dp2450
g62
(dp2451
sg71
g2436
sg64
(lp2452
g57
(g58
g59
NtRp2453
(dp2454
g62
(dp2455
g70
I3
ssg71
g2449
sg64
(lp2456
g1063
asbasbasbag57
(g73
g59
NtRp2457
(dp2458
g62
(dp2459
sg71
g2096
sg64
(lp2460
g57
(g78
g59
NtRp2461
(dp2462
g62
(dp2463
g82
g83
ssg71
g2457
sg64
(lp2464
S'SERVER_SOFTWARE'
p2465
asbag57
(g78
g59
NtRp2466
(dp2467
g62
(dp2468
g89
g90
ssg71
g2457
sg64
(lp2469
S':'
asbag57
(g78
g59
NtRp2470
(dp2471
g62
(dp2472
sg71
g2457
sg64
(lp2473
g57
(g58
g59
NtRp2474
(dp2475
g62
(dp2476
g70
I3
ssg71
g2470
sg64
(lp2477
g1085
asbasbasbag57
(g73
g59
NtRp2478
(dp2479
g62
(dp2480
sg71
g2096
sg64
(lp2481
g57
(g78
g59
NtRp2482
(dp2483
g62
(dp2484
g82
g83
ssg71
g2478
sg64
(lp2485
S'wsgi.errors'
p2486
asbag57
(g78
g59
NtRp2487
(dp2488
g62
(dp2489
g89
g90
ssg71
g2478
sg64
(lp2490
S':'
asbag57
(g78
g59
NtRp2491
(dp2492
g62
(dp2493
sg71
g2478
sg64
(lp2494
g57
(g58
g59
NtRp2495
(dp2496
g62
(dp2497
g70
I3
ssg71
g2491
sg64
(lp2498
S"<open file '<stderr>', mode 'w' at 0x0000000001D361E0>"
p2499
asbasbasbag57
(g73
g59
NtRp2500
(dp2501
g62
(dp2502
sg71
g2096
sg64
(lp2503
g57
(g78
g59
NtRp2504
(dp2505
g62
(dp2506
g82
g83
ssg71
g2500
sg64
(lp2507
S'wsgi.file_wrapper'
p2508
asbag57
(g78
g59
NtRp2509
(dp2510
g62
(dp2511
g89
g90
ssg71
g2500
sg64
(lp2512
S':'
asbag57
(g78
g59
NtRp2513
(dp2514
g62
(dp2515
sg71
g2500
sg64
(lp2516
g57
(g58
g59
NtRp2517
(dp2518
g62
(dp2519
g70
I3
ssg71
g2513
sg64
(lp2520
S'<class wsgiref.util.FileWrapper at 0x000000000380EC48>'
p2521
asbasbasbag57
(g73
g59
NtRp2522
(dp2523
g62
(dp2524
sg71
g2096
sg64
(lp2525
g57
(g78
g59
NtRp2526
(dp2527
g62
(dp2528
g82
g83
ssg71
g2522
sg64
(lp2529
S'wsgi.input'
p2530
asbag57
(g78
g59
NtRp2531
(dp2532
g62
(dp2533
g89
g90
ssg71
g2522
sg64
(lp2534
S':'
asbag57
(g78
g59
NtRp2535
(dp2536
g62
(dp2537
sg71
g2522
sg64
(lp2538
g57
(g58
g59
NtRp2539
(dp2540
g62
(dp2541
g70
I3
ssg71
g2535
sg64
(lp2542
S'<cStringIO.StringO object at 0x00000000094AC1B8>'
p2543
asbasbasbag57
(g73
g59
NtRp2544
(dp2545
g62
(dp2546
sg71
g2096
sg64
(lp2547
g57
(g78
g59
NtRp2548
(dp2549
g62
(dp2550
g82
g83
ssg71
g2544
sg64
(lp2551
S'wsgi.multiprocess'
p2552
asbag57
(g78
g59
NtRp2553
(dp2554
g62
(dp2555
g89
g90
ssg71
g2544
sg64
(lp2556
S':'
asbag57
(g78
g59
NtRp2557
(dp2558
g62
(dp2559
sg71
g2544
sg64
(lp2560
g57
(g58
g59
NtRp2561
(dp2562
g62
(dp2563
g70
I3
ssg71
g2557
sg64
(lp2564
g100
asbasbasbag57
(g73
g59
NtRp2565
(dp2566
g62
(dp2567
sg71
g2096
sg64
(lp2568
g57
(g78
g59
NtRp2569
(dp2570
g62
(dp2571
g82
g83
ssg71
g2565
sg64
(lp2572
S'wsgi.multithread'
p2573
asbag57
(g78
g59
NtRp2574
(dp2575
g62
(dp2576
g89
g90
ssg71
g2565
sg64
(lp2577
S':'
asbag57
(g78
g59
NtRp2578
(dp2579
g62
(dp2580
sg71
g2565
sg64
(lp2581
g57
(g58
g59
NtRp2582
(dp2583
g62
(dp2584
g70
I3
ssg71
g2578
sg64
(lp2585
g1325
asbasbasbag57
(g73
g59
NtRp2586
(dp2587
g62
(dp2588
sg71
g2096
sg64
(lp2589
g57
(g78
g59
NtRp2590
(dp2591
g62
(dp2592
g82
g83
ssg71
g2586
sg64
(lp2593
S'wsgi.run_once'
p2594
asbag57
(g78
g59
NtRp2595
(dp2596
g62
(dp2597
g89
g90
ssg71
g2586
sg64
(lp2598
S':'
asbag57
(g78
g59
NtRp2599
(dp2600
g62
(dp2601
sg71
g2586
sg64
(lp2602
g57
(g58
g59
NtRp2603
(dp2604
g62
(dp2605
g70
I3
ssg71
g2599
sg64
(lp2606
g100
asbasbasbag57
(g73
g59
NtRp2607
(dp2608
g62
(dp2609
sg71
g2096
sg64
(lp2610
g57
(g78
g59
NtRp2611
(dp2612
g62
(dp2613
g82
g83
ssg71
g2607
sg64
(lp2614
S'wsgi.url_scheme'
p2615
asbag57
(g78
g59
NtRp2616
(dp2617
g62
(dp2618
g89
g90
ssg71
g2607
sg64
(lp2619
S':'
asbag57
(g78
g59
NtRp2620
(dp2621
g62
(dp2622
sg71
g2607
sg64
(lp2623
g57
(g58
g59
NtRp2624
(dp2625
g62
(dp2626
g70
I3
ssg71
g2620
sg64
(lp2627
g1368
asbasbasbag57
(g73
g59
NtRp2628
(dp2629
g62
(dp2630
sg71
g2096
sg64
(lp2631
g57
(g78
g59
NtRp2632
(dp2633
g62
(dp2634
g82
g83
ssg71
g2628
sg64
(lp2635
S'wsgi.version'
p2636
asbag57
(g78
g59
NtRp2637
(dp2638
g62
(dp2639
g89
g90
ssg71
g2628
sg64
(lp2640
S':'
asbag57
(g78
g59
NtRp2641
(dp2642
g62
(dp2643
sg71
g2628
sg64
(lp2644
g57
(g58
g59
NtRp2645
(dp2646
g62
(dp2647
g70
I3
ssg71
g2641
sg64
(lp2648
S'1'
asbasbasbasbasbasbasbasbasbasbasbasbasbsS'frames'
p2649
(lp2650
(dp2651
S'file'
p2652
S'c:\\Users\\Jorge\\Downloads\\web2py_src\\web2py\\gluon\\restricted.py'
p2653
sS'dump'
p2654
(dp2655
S'environment'
p2656
S"{'A': <class 'gluon.html.A'>, 'Auth': <class 'gluon.tools.Auth'>, 'B': <class 'gluon.html.B'>, 'BEAUTIFY': <class 'gluon.html.BEAUTIFY'>, 'BODY': <class 'gluon.html.BODY'>, 'BR': <class 'gluon.html.BR'>, 'BUTTON': <class 'gluon.html.BUTTON'>, 'CAT': <class 'gluon.html.CAT'>, 'CENTER': <class 'gluon.html.CENTER'>, 'CLEANUP': <class 'gluon.validators.CLEANUP'>, ...}"
p2657
sS'ccode'
p2658
S'<code object <module> at 000000000951B330, file ...pplications\\init\\controllers/default.py", line 1>'
p2659
ssS'lnum'
p2660
I205
sS'lines'
p2661
(dp2662
I200
S'    try:'
p2663
sI201
S'        if type(code) == types.CodeType:'
p2664
sI202
S'            ccode = code'
p2665
sI203
S'        else:'
p2666
sI204
S'            ccode = compile2(code,layer)'
p2667
sI205
S'        exec ccode in environment'
p2668
sI206
S'    except HTTP:'
p2669
sI207
S'        raise'
p2670
sI208
S'    except RestrictedError:'
p2671
sI209
S'        # do not encapsulate (obfuscate) the original RestrictedError'
p2672
ssS'call'
p2673
S"(code='# -*- coding: utf-8 -*-\\nif 0:\\n    from gluon.glo...rm=form)\\nresponse._vars=response._caller(prueba)\\n', environment={'A': <class 'gluon.html.A'>, 'Auth': <class 'gluon.tools.Auth'>, 'B': <class 'gluon.html.B'>, 'BEAUTIFY': <class 'gluon.html.BEAUTIFY'>, 'BODY': <class 'gluon.html.BODY'>, 'BR': <class 'gluon.html.BR'>, 'BUTTON': <class 'gluon.html.BUTTON'>, 'CAT': <class 'gluon.html.CAT'>, 'CENTER': <class 'gluon.html.CENTER'>, 'CLEANUP': <class 'gluon.validators.CLEANUP'>, ...}, layer=r'c:\\Users\\Jorge\\Downloads\\web2py_src\\web2py\\applications\\init\\controllers/default.py')"
p2674
sS'func'
p2675
S'restricted'
p2676
sa(dp2677
g2652
S'c:\\Users\\Jorge\\Downloads\\web2py_src\\web2py\\applications\\init\\controllers\\default.py'
p2678
sg2654
(dp2679
sg2660
I277
sg2661
(dp2680
I267
S"    form=FORM('Your name:',"
p2681
sI268
S"              INPUT(_name='name', requires=IS_NOT_EMPTY()),"
p2682
sI269
S"              INPUT(_type='submit'))"
p2683
sI270
S'    if form.accepts(request.vars, session):'
p2684
sI271
S"        response.flash = 'form accepted '"
p2685
sI272
S'    elif form.errors:'
p2686
sI273
S"        response.flash = 'form has errors  _id'"
p2687
sI274
S'    else:'
p2688
sI275
S"        response.flash = 'please fill the form  ${id}'"
p2689
sI276
S'    return dict(form=form)'
p2690
ssg2673
S'()'
p2691
sg2675
S'<module>'
p2692
sa(dp2693
g2652
S'c:\\Users\\Jorge\\Downloads\\web2py_src\\web2py\\gluon\\globals.py'
p2694
sg2654
(dp2695
S'self'
p2696
S'undefined'
p2697
sS'f'
S'<function prueba>'
p2698
ssg2660
I173
sg2661
(dp2699
I168
S'        self.menu = []             # used by the default view layout'
p2700
sI169
S'        self.files = []            # used by web2py_ajax.html'
p2701
sI170
S'        self.generic_patterns = [] # patterns to allow generic views'
p2702
sI171
S"        self.delimiters = ('{{','}}')"
p2703
sI172
S'        self._vars = None'
p2704
sI173
S'        self._caller = lambda f: f()'
p2705
sI174
S'        self._view_environment = None'
p2706
sI175
S'        self._custom_commit = None'
p2707
sI176
S'        self._custom_rollback = None'
p2708
sI177
S''
ssg2673
S'(f=<function prueba>)'
p2709
sg2675
S'<lambda>'
p2710
sa(dp2711
g2652
S'c:\\Users\\Jorge\\Downloads\\web2py_src\\web2py\\applications\\init\\controllers\\default.py'
p2712
sg2654
(dp2713
S'_type'
p2714
g2697
sS'form'
p2715
g2697
sS'global IS_NOT_EMPTY'
p2716
S"<class 'gluon.validators.IS_NOT_EMPTY'>"
p2717
sS'_name'
p2718
g2697
sS'global INPUT'
p2719
S"<class 'gluon.html.INPUT'>"
p2720
sS'global FORM'
p2721
S"<class 'gluon.html.FORM'>"
p2722
sS'requires'
p2723
g2697
ssg2660
I266
sg2661
(dp2724
I261
S'        form.step_validation()'
p2725
sI262
S'        response.flash = "error en los datos"'
p2726
sI263
S'    return dict(form=form)'
p2727
sI264
S''
sI265
S'def prueba():'
p2728
sI266
S'    indice = _id'
p2729
sI267
S"    form=FORM('Your name:',"
p2730
sI268
S"              INPUT(_name='name', requires=IS_NOT_EMPTY()),"
p2731
sI269
S"              INPUT(_type='submit'))"
p2732
sI270
S'    if form.accepts(request.vars, session):'
p2733
ssg2673
S'()'
p2734
sg2675
S'prueba'
p2735
sasS'pyver'
p2736
S'Python 2.7.2: C:\\Python27\\python.exe'
p2737
sS'session'
p2738
g57
(g58
g59
NtRp2739
(dp2740
g62
(dp2741
sg64
(lp2742
g57
(g66
g59
NtRp2743
(dp2744
g62
(dp2745
g70
I5
ssg71
Nsg64
(lp2746
g57
(g73
g59
NtRp2747
(dp2748
g62
(dp2749
sg71
g2743
sg64
(lp2750
g57
(g78
g59
NtRp2751
(dp2752
g62
(dp2753
g82
g83
ssg71
g2747
sg64
(lp2754
S'auth'
p2755
asbag57
(g78
g59
NtRp2756
(dp2757
g62
(dp2758
g89
g90
ssg71
g2747
sg64
(lp2759
S':'
asbag57
(g78
g59
NtRp2760
(dp2761
g62
(dp2762
sg71
g2747
sg64
(lp2763
g57
(g58
g59
NtRp2764
(dp2765
g62
(dp2766
g70
I5
ssg71
g2760
sg64
(lp2767
g57
(g66
g59
NtRp2768
(dp2769
g62
(dp2770
g70
I4
ssg71
Nsg64
(lp2771
g57
(g73
g59
NtRp2772
(dp2773
g62
(dp2774
sg71
g2768
sg64
(lp2775
g57
(g78
g59
NtRp2776
(dp2777
g62
(dp2778
g82
g83
ssg71
g2772
sg64
(lp2779
S'expiration'
p2780
asbag57
(g78
g59
NtRp2781
(dp2782
g62
(dp2783
g89
g90
ssg71
g2772
sg64
(lp2784
S':'
asbag57
(g78
g59
NtRp2785
(dp2786
g62
(dp2787
sg71
g2772
sg64
(lp2788
g57
(g58
g59
NtRp2789
(dp2790
g62
(dp2791
g70
I4
ssg71
g2785
sg64
(lp2792
S'3600'
p2793
asbasbasbag57
(g73
g59
NtRp2794
(dp2795
g62
(dp2796
sg71
g2768
sg64
(lp2797
g57
(g78
g59
NtRp2798
(dp2799
g62
(dp2800
g82
g83
ssg71
g2794
sg64
(lp2801
S'hmac_key'
p2802
asbag57
(g78
g59
NtRp2803
(dp2804
g62
(dp2805
g89
g90
ssg71
g2794
sg64
(lp2806
S':'
asbag57
(g78
g59
NtRp2807
(dp2808
g62
(dp2809
sg71
g2794
sg64
(lp2810
g57
(g58
g59
NtRp2811
(dp2812
g62
(dp2813
g70
I4
ssg71
g2807
sg64
(lp2814
S'df6450f8-dea7-4055-8229-826d84195553'
p2815
asbasbasbag57
(g73
g59
NtRp2816
(dp2817
g62
(dp2818
sg71
g2768
sg64
(lp2819
g57
(g78
g59
NtRp2820
(dp2821
g62
(dp2822
g82
g83
ssg71
g2816
sg64
(lp2823
S'last_visit'
p2824
asbag57
(g78
g59
NtRp2825
(dp2826
g62
(dp2827
g89
g90
ssg71
g2816
sg64
(lp2828
S':'
asbag57
(g78
g59
NtRp2829
(dp2830
g62
(dp2831
sg71
g2816
sg64
(lp2832
g57
(g58
g59
NtRp2833
(dp2834
g62
(dp2835
g70
I4
ssg71
g2829
sg64
(lp2836
S'datetime.datetime(2012, 4, 30, 22, 9, 19, 212000)'
p2837
asbasbasbag57
(g73
g59
NtRp2838
(dp2839
g62
(dp2840
sg71
g2768
sg64
(lp2841
g57
(g78
g59
NtRp2842
(dp2843
g62
(dp2844
g82
g83
ssg71
g2838
sg64
(lp2845
S'remember'
p2846
asbag57
(g78
g59
NtRp2847
(dp2848
g62
(dp2849
g89
g90
ssg71
g2838
sg64
(lp2850
S':'
asbag57
(g78
g59
NtRp2851
(dp2852
g62
(dp2853
sg71
g2838
sg64
(lp2854
g57
(g58
g59
NtRp2855
(dp2856
g62
(dp2857
g70
I4
ssg71
g2851
sg64
(lp2858
g100
asbasbasbag57
(g73
g59
NtRp2859
(dp2860
g62
(dp2861
sg71
g2768
sg64
(lp2862
g57
(g78
g59
NtRp2863
(dp2864
g62
(dp2865
g82
g83
ssg71
g2859
sg64
(lp2866
S'user'
p2867
asbag57
(g78
g59
NtRp2868
(dp2869
g62
(dp2870
g89
g90
ssg71
g2859
sg64
(lp2871
S':'
asbag57
(g78
g59
NtRp2872
(dp2873
g62
(dp2874
sg71
g2859
sg64
(lp2875
g57
(g58
g59
NtRp2876
(dp2877
g62
(dp2878
g70
I4
ssg71
g2872
sg64
(lp2879
g57
(g66
g59
NtRp2880
(dp2881
g62
(dp2882
g70
I3
ssg71
Nsg64
(lp2883
g57
(g73
g59
NtRp2884
(dp2885
g62
(dp2886
sg71
g2880
sg64
(lp2887
g57
(g78
g59
NtRp2888
(dp2889
g62
(dp2890
g82
g83
ssg71
g2884
sg64
(lp2891
S'created_on'
p2892
asbag57
(g78
g59
NtRp2893
(dp2894
g62
(dp2895
g89
g90
ssg71
g2884
sg64
(lp2896
S':'
asbag57
(g78
g59
NtRp2897
(dp2898
g62
(dp2899
sg71
g2884
sg64
(lp2900
g57
(g58
g59
NtRp2901
(dp2902
g62
(dp2903
g70
I3
ssg71
g2897
sg64
(lp2904
S'datetime.datetime(2012, 4, 14, 20, 20, 15)'
p2905
asbasbasbag57
(g73
g59
NtRp2906
(dp2907
g62
(dp2908
sg71
g2880
sg64
(lp2909
g57
(g78
g59
NtRp2910
(dp2911
g62
(dp2912
g82
g83
ssg71
g2906
sg64
(lp2913
S'email'
p2914
asbag57
(g78
g59
NtRp2915
(dp2916
g62
(dp2917
g89
g90
ssg71
g2906
sg64
(lp2918
S':'
asbag57
(g78
g59
NtRp2919
(dp2920
g62
(dp2921
sg71
g2906
sg64
(lp2922
g57
(g58
g59
NtRp2923
(dp2924
g62
(dp2925
g70
I3
ssg71
g2919
sg64
(lp2926
S'maximiliano.alcaraz@aeg.com.ar'
p2927
asbasbasbag57
(g73
g59
NtRp2928
(dp2929
g62
(dp2930
sg71
g2880
sg64
(lp2931
g57
(g78
g59
NtRp2932
(dp2933
g62
(dp2934
g82
g83
ssg71
g2928
sg64
(lp2935
S'first_name'
p2936
asbag57
(g78
g59
NtRp2937
(dp2938
g62
(dp2939
g89
g90
ssg71
g2928
sg64
(lp2940
S':'
asbag57
(g78
g59
NtRp2941
(dp2942
g62
(dp2943
sg71
g2928
sg64
(lp2944
g57
(g58
g59
NtRp2945
(dp2946
g62
(dp2947
g70
I3
ssg71
g2941
sg64
(lp2948
S'Maximiliano'
p2949
asbasbasbag57
(g73
g59
NtRp2950
(dp2951
g62
(dp2952
sg71
g2880
sg64
(lp2953
g57
(g78
g59
NtRp2954
(dp2955
g62
(dp2956
g82
g83
ssg71
g2950
sg64
(lp2957
S'id'
p2958
asbag57
(g78
g59
NtRp2959
(dp2960
g62
(dp2961
g89
g90
ssg71
g2950
sg64
(lp2962
S':'
asbag57
(g78
g59
NtRp2963
(dp2964
g62
(dp2965
sg71
g2950
sg64
(lp2966
g57
(g58
g59
NtRp2967
(dp2968
g62
(dp2969
g70
I3
ssg71
g2963
sg64
(lp2970
S'15'
p2971
asbasbasbag57
(g73
g59
NtRp2972
(dp2973
g62
(dp2974
sg71
g2880
sg64
(lp2975
g57
(g78
g59
NtRp2976
(dp2977
g62
(dp2978
g82
g83
ssg71
g2972
sg64
(lp2979
S'last_name'
p2980
asbag57
(g78
g59
NtRp2981
(dp2982
g62
(dp2983
g89
g90
ssg71
g2972
sg64
(lp2984
S':'
asbag57
(g78
g59
NtRp2985
(dp2986
g62
(dp2987
sg71
g2972
sg64
(lp2988
g57
(g58
g59
NtRp2989
(dp2990
g62
(dp2991
g70
I3
ssg71
g2985
sg64
(lp2992
S'Alcaraz'
p2993
asbasbasbag57
(g73
g59
NtRp2994
(dp2995
g62
(dp2996
sg71
g2880
sg64
(lp2997
g57
(g78
g59
NtRp2998
(dp2999
g62
(dp3000
g82
g83
ssg71
g2994
sg64
(lp3001
S'modified_on'
p3002
asbag57
(g78
g59
NtRp3003
(dp3004
g62
(dp3005
g89
g90
ssg71
g2994
sg64
(lp3006
S':'
asbag57
(g78
g59
NtRp3007
(dp3008
g62
(dp3009
sg71
g2994
sg64
(lp3010
g57
(g58
g59
NtRp3011
(dp3012
g62
(dp3013
g70
I3
ssg71
g3007
sg64
(lp3014
S'datetime.datetime(2012, 4, 14, 20, 20, 15)'
p3015
asbasbasbag57
(g73
g59
NtRp3016
(dp3017
g62
(dp3018
sg71
g2880
sg64
(lp3019
g57
(g78
g59
NtRp3020
(dp3021
g62
(dp3022
g82
g83
ssg71
g3016
sg64
(lp3023
S'password'
p3024
asbag57
(g78
g59
NtRp3025
(dp3026
g62
(dp3027
g89
g90
ssg71
g3016
sg64
(lp3028
S':'
asbag57
(g78
g59
NtRp3029
(dp3030
g62
(dp3031
sg71
g3016
sg64
(lp3032
g57
(g58
g59
NtRp3033
(dp3034
g62
(dp3035
g70
I3
ssg71
g3029
sg64
(lp3036
S'3b00954a2acd03e4a32d91f4bdebb4b7'
p3037
asbasbasbag57
(g73
g59
NtRp3038
(dp3039
g62
(dp3040
sg71
g2880
sg64
(lp3041
g57
(g78
g59
NtRp3042
(dp3043
g62
(dp3044
g82
g83
ssg71
g3038
sg64
(lp3045
S'registration_id'
p3046
asbag57
(g78
g59
NtRp3047
(dp3048
g62
(dp3049
g89
g90
ssg71
g3038
sg64
(lp3050
S':'
asbag57
(g78
g59
NtRp3051
(dp3052
g62
(dp3053
sg71
g3038
sg64
(lp3054
g57
(g58
g59
NtRp3055
(dp3056
g62
(dp3057
g70
I3
ssg71
g3051
sg64
(lp3058
S''
asbasbasbag57
(g73
g59
NtRp3059
(dp3060
g62
(dp3061
sg71
g2880
sg64
(lp3062
g57
(g78
g59
NtRp3063
(dp3064
g62
(dp3065
g82
g83
ssg71
g3059
sg64
(lp3066
S'registration_key'
p3067
asbag57
(g78
g59
NtRp3068
(dp3069
g62
(dp3070
g89
g90
ssg71
g3059
sg64
(lp3071
S':'
asbag57
(g78
g59
NtRp3072
(dp3073
g62
(dp3074
sg71
g3059
sg64
(lp3075
g57
(g58
g59
NtRp3076
(dp3077
g62
(dp3078
g70
I3
ssg71
g3072
sg64
(lp3079
S''
asbasbasbag57
(g73
g59
NtRp3080
(dp3081
g62
(dp3082
sg71
g2880
sg64
(lp3083
g57
(g78
g59
NtRp3084
(dp3085
g62
(dp3086
g82
g83
ssg71
g3080
sg64
(lp3087
S'reset_password_key'
p3088
asbag57
(g78
g59
NtRp3089
(dp3090
g62
(dp3091
g89
g90
ssg71
g3080
sg64
(lp3092
S':'
asbag57
(g78
g59
NtRp3093
(dp3094
g62
(dp3095
sg71
g3080
sg64
(lp3096
g57
(g58
g59
NtRp3097
(dp3098
g62
(dp3099
g70
I3
ssg71
g3093
sg64
(lp3100
S''
asbasbasbag57
(g73
g59
NtRp3101
(dp3102
g62
(dp3103
sg71
g2880
sg64
(lp3104
g57
(g78
g59
NtRp3105
(dp3106
g62
(dp3107
g82
g83
ssg71
g3101
sg64
(lp3108
S'username'
p3109
asbag57
(g78
g59
NtRp3110
(dp3111
g62
(dp3112
g89
g90
ssg71
g3101
sg64
(lp3113
S':'
asbag57
(g78
g59
NtRp3114
(dp3115
g62
(dp3116
sg71
g3101
sg64
(lp3117
g57
(g58
g59
NtRp3118
(dp3119
g62
(dp3120
g70
I3
ssg71
g3114
sg64
(lp3121
S'maxi'
p3122
asbasbasbasbasbasbasbag57
(g73
g59
NtRp3123
(dp3124
g62
(dp3125
sg71
g2768
sg64
(lp3126
g57
(g78
g59
NtRp3127
(dp3128
g62
(dp3129
g82
g83
ssg71
g3123
sg64
(lp3130
S'user_groups'
p3131
asbag57
(g78
g59
NtRp3132
(dp3133
g62
(dp3134
g89
g90
ssg71
g3123
sg64
(lp3135
S':'
asbag57
(g78
g59
NtRp3136
(dp3137
g62
(dp3138
sg71
g3123
sg64
(lp3139
g57
(g58
g59
NtRp3140
(dp3141
g62
(dp3142
g70
I4
ssg71
g3136
sg64
(lp3143
g57
(g66
g59
NtRp3144
(dp3145
g62
(dp3146
g70
I3
ssg71
Nsg64
(lp3147
g57
(g73
g59
NtRp3148
(dp3149
g62
(dp3150
sg71
g3144
sg64
(lp3151
g57
(g78
g59
NtRp3152
(dp3153
g62
(dp3154
g82
g83
ssg71
g3148
sg64
(lp3155
S'5'
asbag57
(g78
g59
NtRp3156
(dp3157
g62
(dp3158
g89
g90
ssg71
g3148
sg64
(lp3159
S':'
asbag57
(g78
g59
NtRp3160
(dp3161
g62
(dp3162
sg71
g3148
sg64
(lp3163
g57
(g58
g59
NtRp3164
(dp3165
g62
(dp3166
g70
I3
ssg71
g3160
sg64
(lp3167
S'Admin'
p3168
asbasbasbasbasbasbasbasbasbasbasbasbasbsS'etype'
p3169
S"<type 'exceptions.NameError'>"
p3170
sS'date'
p3171
S'Mon Apr 30 22:11:01 2012'
p3172
sS'response'
p3173
g57
(g58
g59
NtRp3174
(dp3175
g62
(dp3176
sg64
(lp3177
g57
(g66
g59
NtRp3178
(dp3179
g62
(dp3180
g70
I5
ssg71
Nsg64
(lp3181
g57
(g73
g59
NtRp3182
(dp3183
g62
(dp3184
sg71
g3178
sg64
(lp3185
g57
(g78
g59
NtRp3186
(dp3187
g62
(dp3188
g82
g83
ssg71
g3182
sg64
(lp3189
g194
asbag57
(g78
g59
NtRp3190
(dp3191
g62
(dp3192
g89
g90
ssg71
g3182
sg64
(lp3193
S':'
asbag57
(g78
g59
NtRp3194
(dp3195
g62
(dp3196
sg71
g3182
sg64
(lp3197
g57
(g58
g59
NtRp3198
(dp3199
g62
(dp3200
g70
I5
ssg71
g3194
sg64
(lp3201
S'<cStringIO.StringO object at 0x00000000092C27A0>'
p3202
asbasbasbag57
(g73
g59
NtRp3203
(dp3204
g62
(dp3205
sg71
g3178
sg64
(lp3206
g57
(g78
g59
NtRp3207
(dp3208
g62
(dp3209
g82
g83
ssg71
g3203
sg64
(lp3210
g260
asbag57
(g78
g59
NtRp3211
(dp3212
g62
(dp3213
g89
g90
ssg71
g3203
sg64
(lp3214
S':'
asbag57
(g78
g59
NtRp3215
(dp3216
g62
(dp3217
sg71
g3203
sg64
(lp3218
g57
(g58
g59
NtRp3219
(dp3220
g62
(dp3221
g70
I5
ssg71
g3215
sg64
(lp3222
g57
(g66
g59
NtRp3223
(dp3224
g62
(dp3225
g70
I4
ssg71
Nsg64
(lp3226
g57
(g73
g59
NtRp3227
(dp3228
g62
(dp3229
sg71
g3223
sg64
(lp3230
g57
(g78
g59
NtRp3231
(dp3232
g62
(dp3233
g82
g83
ssg71
g3227
sg64
(lp3234
S'session_id_init'
p3235
asbag57
(g78
g59
NtRp3236
(dp3237
g62
(dp3238
g89
g90
ssg71
g3227
sg64
(lp3239
S':'
asbag57
(g78
g59
NtRp3240
(dp3241
g62
(dp3242
sg71
g3227
sg64
(lp3243
g57
(g58
g59
NtRp3244
(dp3245
g62
(dp3246
g70
I4
ssg71
g3240
sg64
(lp3247
g57
(g66
g59
NtRp3248
(dp3249
g62
(dp3250
g70
I3
ssg71
Nsg64
(lp3251
g57
(g73
g59
NtRp3252
(dp3253
g62
(dp3254
sg71
g3248
sg64
(lp3255
g57
(g78
g59
NtRp3256
(dp3257
g62
(dp3258
g82
g83
ssg71
g3252
sg64
(lp3259
g310
asbag57
(g78
g59
NtRp3260
(dp3261
g62
(dp3262
g89
g90
ssg71
g3252
sg64
(lp3263
S':'
asbag57
(g78
g59
NtRp3264
(dp3265
g62
(dp3266
sg71
g3252
sg64
(lp3267
g57
(g58
g59
NtRp3268
(dp3269
g62
(dp3270
g70
I3
ssg71
g3264
sg64
(lp3271
S''
asbasbasbag57
(g73
g59
NtRp3272
(dp3273
g62
(dp3274
sg71
g3248
sg64
(lp3275
g57
(g78
g59
NtRp3276
(dp3277
g62
(dp3278
g82
g83
ssg71
g3272
sg64
(lp3279
g331
asbag57
(g78
g59
NtRp3280
(dp3281
g62
(dp3282
g89
g90
ssg71
g3272
sg64
(lp3283
S':'
asbag57
(g78
g59
NtRp3284
(dp3285
g62
(dp3286
sg71
g3272
sg64
(lp3287
g57
(g58
g59
NtRp3288
(dp3289
g62
(dp3290
g70
I3
ssg71
g3284
sg64
(lp3291
S''
asbasbasbag57
(g73
g59
NtRp3292
(dp3293
g62
(dp3294
sg71
g3248
sg64
(lp3295
g57
(g78
g59
NtRp3296
(dp3297
g62
(dp3298
g82
g83
ssg71
g3292
sg64
(lp3299
g352
asbag57
(g78
g59
NtRp3300
(dp3301
g62
(dp3302
g89
g90
ssg71
g3292
sg64
(lp3303
S':'
asbag57
(g78
g59
NtRp3304
(dp3305
g62
(dp3306
sg71
g3292
sg64
(lp3307
g57
(g58
g59
NtRp3308
(dp3309
g62
(dp3310
g70
I3
ssg71
g3304
sg64
(lp3311
S''
asbasbasbag57
(g73
g59
NtRp3312
(dp3313
g62
(dp3314
sg71
g3248
sg64
(lp3315
g57
(g78
g59
NtRp3316
(dp3317
g62
(dp3318
g82
g83
ssg71
g3312
sg64
(lp3319
g373
asbag57
(g78
g59
NtRp3320
(dp3321
g62
(dp3322
g89
g90
ssg71
g3312
sg64
(lp3323
S':'
asbag57
(g78
g59
NtRp3324
(dp3325
g62
(dp3326
sg71
g3312
sg64
(lp3327
g57
(g58
g59
NtRp3328
(dp3329
g62
(dp3330
g70
I3
ssg71
g3324
sg64
(lp3331
S''
asbasbasbag57
(g73
g59
NtRp3332
(dp3333
g62
(dp3334
sg71
g3248
sg64
(lp3335
g57
(g78
g59
NtRp3336
(dp3337
g62
(dp3338
g82
g83
ssg71
g3332
sg64
(lp3339
g394
asbag57
(g78
g59
NtRp3340
(dp3341
g62
(dp3342
g89
g90
ssg71
g3332
sg64
(lp3343
S':'
asbag57
(g78
g59
NtRp3344
(dp3345
g62
(dp3346
sg71
g3332
sg64
(lp3347
g57
(g58
g59
NtRp3348
(dp3349
g62
(dp3350
g70
I3
ssg71
g3344
sg64
(lp3351
S''
asbasbasbag57
(g73
g59
NtRp3352
(dp3353
g62
(dp3354
sg71
g3248
sg64
(lp3355
g57
(g78
g59
NtRp3356
(dp3357
g62
(dp3358
g82
g83
ssg71
g3352
sg64
(lp3359
g415
asbag57
(g78
g59
NtRp3360
(dp3361
g62
(dp3362
g89
g90
ssg71
g3352
sg64
(lp3363
S':'
asbag57
(g78
g59
NtRp3364
(dp3365
g62
(dp3366
sg71
g3352
sg64
(lp3367
g57
(g58
g59
NtRp3368
(dp3369
g62
(dp3370
g70
I3
ssg71
g3364
sg64
(lp3371
S'/'
asbasbasbag57
(g73
g59
NtRp3372
(dp3373
g62
(dp3374
sg71
g3248
sg64
(lp3375
g57
(g78
g59
NtRp3376
(dp3377
g62
(dp3378
g82
g83
ssg71
g3372
sg64
(lp3379
g436
asbag57
(g78
g59
NtRp3380
(dp3381
g62
(dp3382
g89
g90
ssg71
g3372
sg64
(lp3383
S':'
asbag57
(g78
g59
NtRp3384
(dp3385
g62
(dp3386
sg71
g3372
sg64
(lp3387
g57
(g58
g59
NtRp3388
(dp3389
g62
(dp3390
g70
I3
ssg71
g3384
sg64
(lp3391
S''
asbasbasbag57
(g73
g59
NtRp3392
(dp3393
g62
(dp3394
sg71
g3248
sg64
(lp3395
g57
(g78
g59
NtRp3396
(dp3397
g62
(dp3398
g82
g83
ssg71
g3392
sg64
(lp3399
g457
asbag57
(g78
g59
NtRp3400
(dp3401
g62
(dp3402
g89
g90
ssg71
g3392
sg64
(lp3403
S':'
asbag57
(g78
g59
NtRp3404
(dp3405
g62
(dp3406
sg71
g3392
sg64
(lp3407
g57
(g58
g59
NtRp3408
(dp3409
g62
(dp3410
g70
I3
ssg71
g3404
sg64
(lp3411
S''
asbasbasbasbasbasbasbasbasbasbasbag57
(g73
g59
NtRp3412
(dp3413
g62
(dp3414
sg71
g3178
sg64
(lp3415
g57
(g78
g59
NtRp3416
(dp3417
g62
(dp3418
g82
g83
ssg71
g3412
sg64
(lp3419
S'delimiters'
p3420
asbag57
(g78
g59
NtRp3421
(dp3422
g62
(dp3423
g89
g90
ssg71
g3412
sg64
(lp3424
S':'
asbag57
(g78
g59
NtRp3425
(dp3426
g62
(dp3427
sg71
g3412
sg64
(lp3428
g57
(g58
g59
NtRp3429
(dp3430
g62
(dp3431
g70
I5
ssg71
g3425
sg64
(lp3432
g57
(g66
g59
NtRp3433
(dp3434
g62
(dp3435
g70
I4
ssg71
Nsg64
(lp3436
g57
(g73
g59
NtRp3437
(dp3438
g62
(dp3439
sg71
g3433
sg64
(lp3440
g57
(g78
g59
NtRp3441
(dp3442
g62
(dp3443
sg71
g3437
sg64
(lp3444
g57
(g58
g59
NtRp3445
(dp3446
g62
(dp3447
g70
I4
ssg71
g3441
sg64
(lp3448
S'{{'
p3449
asbasbasbag57
(g73
g59
NtRp3450
(dp3451
g62
(dp3452
sg71
g3433
sg64
(lp3453
g57
(g78
g59
NtRp3454
(dp3455
g62
(dp3456
sg71
g3450
sg64
(lp3457
g57
(g58
g59
NtRp3458
(dp3459
g62
(dp3460
g70
I4
ssg71
g3454
sg64
(lp3461
S'}}'
p3462
asbasbasbasbasbasbasbag57
(g73
g59
NtRp3463
(dp3464
g62
(dp3465
sg71
g3178
sg64
(lp3466
g57
(g78
g59
NtRp3467
(dp3468
g62
(dp3469
g82
g83
ssg71
g3463
sg64
(lp3470
S'files'
p3471
asbag57
(g78
g59
NtRp3472
(dp3473
g62
(dp3474
g89
g90
ssg71
g3463
sg64
(lp3475
S':'
asbag57
(g78
g59
NtRp3476
(dp3477
g62
(dp3478
sg71
g3463
sg64
(lp3479
g57
(g58
g59
NtRp3480
(dp3481
g62
(dp3482
g70
I5
ssg71
g3476
sg64
(lp3483
g57
(g66
g59
NtRp3484
(dp3485
g62
(dp3486
g70
I4
ssg71
Nsg64
(lp3487
sbasbasbasbag57
(g73
g59
NtRp3488
(dp3489
g62
(dp3490
sg71
g3178
sg64
(lp3491
g57
(g78
g59
NtRp3492
(dp3493
g62
(dp3494
g82
g83
ssg71
g3488
sg64
(lp3495
S'flash'
p3496
asbag57
(g78
g59
NtRp3497
(dp3498
g62
(dp3499
g89
g90
ssg71
g3488
sg64
(lp3500
S':'
asbag57
(g78
g59
NtRp3501
(dp3502
g62
(dp3503
sg71
g3488
sg64
(lp3504
g57
(g58
g59
NtRp3505
(dp3506
g62
(dp3507
g70
I5
ssg71
g3501
sg64
(lp3508
S''
asbasbasbag57
(g73
g59
NtRp3509
(dp3510
g62
(dp3511
sg71
g3178
sg64
(lp3512
g57
(g78
g59
NtRp3513
(dp3514
g62
(dp3515
g82
g83
ssg71
g3509
sg64
(lp3516
S'generic_patterns'
p3517
asbag57
(g78
g59
NtRp3518
(dp3519
g62
(dp3520
g89
g90
ssg71
g3509
sg64
(lp3521
S':'
asbag57
(g78
g59
NtRp3522
(dp3523
g62
(dp3524
sg71
g3509
sg64
(lp3525
g57
(g58
g59
NtRp3526
(dp3527
g62
(dp3528
g70
I5
ssg71
g3522
sg64
(lp3529
g57
(g66
g59
NtRp3530
(dp3531
g62
(dp3532
g70
I4
ssg71
Nsg64
(lp3533
g57
(g73
g59
NtRp3534
(dp3535
g62
(dp3536
sg71
g3530
sg64
(lp3537
g57
(g78
g59
NtRp3538
(dp3539
g62
(dp3540
sg71
g3534
sg64
(lp3541
g57
(g58
g59
NtRp3542
(dp3543
g62
(dp3544
g70
I4
ssg71
g3538
sg64
(lp3545
S'*'
asbasbasbasbasbasbasbag57
(g73
g59
NtRp3546
(dp3547
g62
(dp3548
sg71
g3178
sg64
(lp3549
g57
(g78
g59
NtRp3550
(dp3551
g62
(dp3552
g82
g83
ssg71
g3546
sg64
(lp3553
S'headers'
p3554
asbag57
(g78
g59
NtRp3555
(dp3556
g62
(dp3557
g89
g90
ssg71
g3546
sg64
(lp3558
S':'
asbag57
(g78
g59
NtRp3559
(dp3560
g62
(dp3561
sg71
g3546
sg64
(lp3562
g57
(g58
g59
NtRp3563
(dp3564
g62
(dp3565
g70
I5
ssg71
g3559
sg64
(lp3566
g57
(g66
g59
NtRp3567
(dp3568
g62
(dp3569
g70
I4
ssg71
Nsg64
(lp3570
g57
(g73
g59
NtRp3571
(dp3572
g62
(dp3573
sg71
g3567
sg64
(lp3574
g57
(g78
g59
NtRp3575
(dp3576
g62
(dp3577
g82
g83
ssg71
g3571
sg64
(lp3578
S'Cache-Control'
p3579
asbag57
(g78
g59
NtRp3580
(dp3581
g62
(dp3582
g89
g90
ssg71
g3571
sg64
(lp3583
S':'
asbag57
(g78
g59
NtRp3584
(dp3585
g62
(dp3586
sg71
g3571
sg64
(lp3587
g57
(g58
g59
NtRp3588
(dp3589
g62
(dp3590
g70
I4
ssg71
g3584
sg64
(lp3591
S'no-store, no-cache, must-revalidate, post-check=0, pre-check=0'
p3592
asbasbasbag57
(g73
g59
NtRp3593
(dp3594
g62
(dp3595
sg71
g3567
sg64
(lp3596
g57
(g78
g59
NtRp3597
(dp3598
g62
(dp3599
g82
g83
ssg71
g3593
sg64
(lp3600
S'Content-Type'
p3601
asbag57
(g78
g59
NtRp3602
(dp3603
g62
(dp3604
g89
g90
ssg71
g3593
sg64
(lp3605
S':'
asbag57
(g78
g59
NtRp3606
(dp3607
g62
(dp3608
sg71
g3593
sg64
(lp3609
g57
(g58
g59
NtRp3610
(dp3611
g62
(dp3612
g70
I4
ssg71
g3606
sg64
(lp3613
S'text/html; charset=utf-8'
p3614
asbasbasbag57
(g73
g59
NtRp3615
(dp3616
g62
(dp3617
sg71
g3567
sg64
(lp3618
g57
(g78
g59
NtRp3619
(dp3620
g62
(dp3621
g82
g83
ssg71
g3615
sg64
(lp3622
S'Expires'
p3623
asbag57
(g78
g59
NtRp3624
(dp3625
g62
(dp3626
g89
g90
ssg71
g3615
sg64
(lp3627
S':'
asbag57
(g78
g59
NtRp3628
(dp3629
g62
(dp3630
sg71
g3615
sg64
(lp3631
g57
(g58
g59
NtRp3632
(dp3633
g62
(dp3634
g70
I4
ssg71
g3628
sg64
(lp3635
S'Tue, 01 May 2012 01:11:00 GMT'
p3636
asbasbasbag57
(g73
g59
NtRp3637
(dp3638
g62
(dp3639
sg71
g3567
sg64
(lp3640
g57
(g78
g59
NtRp3641
(dp3642
g62
(dp3643
g82
g83
ssg71
g3637
sg64
(lp3644
S'Pragma'
p3645
asbag57
(g78
g59
NtRp3646
(dp3647
g62
(dp3648
g89
g90
ssg71
g3637
sg64
(lp3649
S':'
asbag57
(g78
g59
NtRp3650
(dp3651
g62
(dp3652
sg71
g3637
sg64
(lp3653
g57
(g58
g59
NtRp3654
(dp3655
g62
(dp3656
g70
I4
ssg71
g3650
sg64
(lp3657
S'no-cache'
p3658
asbasbasbag57
(g73
g59
NtRp3659
(dp3660
g62
(dp3661
sg71
g3567
sg64
(lp3662
g57
(g78
g59
NtRp3663
(dp3664
g62
(dp3665
g82
g83
ssg71
g3659
sg64
(lp3666
S'X-Powered-By'
p3667
asbag57
(g78
g59
NtRp3668
(dp3669
g62
(dp3670
g89
g90
ssg71
g3659
sg64
(lp3671
S':'
asbag57
(g78
g59
NtRp3672
(dp3673
g62
(dp3674
sg71
g3659
sg64
(lp3675
g57
(g58
g59
NtRp3676
(dp3677
g62
(dp3678
g70
I4
ssg71
g3672
sg64
(lp3679
S'web2py'
p3680
asbasbasbasbasbasbasbag57
(g73
g59
NtRp3681
(dp3682
g62
(dp3683
sg71
g3178
sg64
(lp3684
g57
(g78
g59
NtRp3685
(dp3686
g62
(dp3687
g82
g83
ssg71
g3681
sg64
(lp3688
S'menu'
p3689
asbag57
(g78
g59
NtRp3690
(dp3691
g62
(dp3692
g89
g90
ssg71
g3681
sg64
(lp3693
S':'
asbag57
(g78
g59
NtRp3694
(dp3695
g62
(dp3696
sg71
g3681
sg64
(lp3697
g57
(g58
g59
NtRp3698
(dp3699
g62
(dp3700
g70
I5
ssg71
g3694
sg64
(lp3701
g57
(g66
g59
NtRp3702
(dp3703
g62
(dp3704
g70
I4
ssg71
Nsg64
(lp3705
g57
(g73
g59
NtRp3706
(dp3707
g62
(dp3708
sg71
g3702
sg64
(lp3709
g57
(g78
g59
NtRp3710
(dp3711
g62
(dp3712
sg71
g3706
sg64
(lp3713
g57
(g58
g59
NtRp3714
(dp3715
g62
(dp3716
g70
I4
ssg71
g3710
sg64
(lp3717
g57
(g66
g59
NtRp3718
(dp3719
g62
(dp3720
g70
I3
ssg71
Nsg64
(lp3721
g57
(g73
g59
NtRp3722
(dp3723
g62
(dp3724
sg71
g3718
sg64
(lp3725
g57
(g78
g59
NtRp3726
(dp3727
g62
(dp3728
sg71
g3722
sg64
(lp3729
g57
(g58
g59
NtRp3730
(dp3731
g62
(dp3732
g70
I3
ssg71
g3726
sg64
(lp3733
cgluon.languages
lazyT_unpickle
p3734
(S't\x06\x00\x00\x00Inicio'
tRp3735
asbasbasbag57
(g73
g59
NtRp3736
(dp3737
g62
(dp3738
sg71
g3718
sg64
(lp3739
g57
(g78
g59
NtRp3740
(dp3741
g62
(dp3742
sg71
g3736
sg64
(lp3743
g57
(g58
g59
NtRp3744
(dp3745
g62
(dp3746
g70
I3
ssg71
g3740
sg64
(lp3747
g100
asbasbasbag57
(g73
g59
NtRp3748
(dp3749
g62
(dp3750
sg71
g3718
sg64
(lp3751
g57
(g78
g59
NtRp3752
(dp3753
g62
(dp3754
sg71
g3748
sg64
(lp3755
g57
(g58
g59
NtRp3756
(dp3757
g62
(dp3758
g70
I3
ssg71
g3752
sg64
(lp3759
S'/init/default/index'
p3760
asbasbasbag57
(g73
g59
NtRp3761
(dp3762
g62
(dp3763
sg71
g3718
sg64
(lp3764
g57
(g78
g59
NtRp3765
(dp3766
g62
(dp3767
sg71
g3761
sg64
(lp3768
g57
(g58
g59
NtRp3769
(dp3770
g62
(dp3771
g70
I3
ssg71
g3765
sg64
(lp3772
g57
(g66
g59
NtRp3773
(dp3774
g62
(dp3775
g70
I2
ssg71
Nsg64
(lp3776
sbasbasbasbasbasbasbasbag57
(g73
g59
NtRp3777
(dp3778
g62
(dp3779
sg71
g3702
sg64
(lp3780
g57
(g78
g59
NtRp3781
(dp3782
g62
(dp3783
sg71
g3777
sg64
(lp3784
g57
(g58
g59
NtRp3785
(dp3786
g62
(dp3787
g70
I4
ssg71
g3781
sg64
(lp3788
g57
(g66
g59
NtRp3789
(dp3790
g62
(dp3791
g70
I3
ssg71
Nsg64
(lp3792
g57
(g73
g59
NtRp3793
(dp3794
g62
(dp3795
sg71
g3789
sg64
(lp3796
g57
(g78
g59
NtRp3797
(dp3798
g62
(dp3799
sg71
g3793
sg64
(lp3800
g57
(g58
g59
NtRp3801
(dp3802
g62
(dp3803
g70
I3
ssg71
g3797
sg64
(lp3804
g3734
(S't\x07\x00\x00\x00cliente'
tRp3805
asbasbasbag57
(g73
g59
NtRp3806
(dp3807
g62
(dp3808
sg71
g3789
sg64
(lp3809
g57
(g78
g59
NtRp3810
(dp3811
g62
(dp3812
sg71
g3806
sg64
(lp3813
g57
(g58
g59
NtRp3814
(dp3815
g62
(dp3816
g70
I3
ssg71
g3810
sg64
(lp3817
g100
asbasbasbag57
(g73
g59
NtRp3818
(dp3819
g62
(dp3820
sg71
g3789
sg64
(lp3821
g57
(g78
g59
NtRp3822
(dp3823
g62
(dp3824
sg71
g3818
sg64
(lp3825
g57
(g58
g59
NtRp3826
(dp3827
g62
(dp3828
g70
I3
ssg71
g3822
sg64
(lp3829
S'/init/default/cliente'
p3830
asbasbasbag57
(g73
g59
NtRp3831
(dp3832
g62
(dp3833
sg71
g3789
sg64
(lp3834
g57
(g78
g59
NtRp3835
(dp3836
g62
(dp3837
sg71
g3831
sg64
(lp3838
g57
(g58
g59
NtRp3839
(dp3840
g62
(dp3841
g70
I3
ssg71
g3835
sg64
(lp3842
g57
(g66
g59
NtRp3843
(dp3844
g62
(dp3845
g70
I2
ssg71
Nsg64
(lp3846
sbasbasbasbasbasbasbasbag57
(g73
g59
NtRp3847
(dp3848
g62
(dp3849
sg71
g3702
sg64
(lp3850
g57
(g78
g59
NtRp3851
(dp3852
g62
(dp3853
sg71
g3847
sg64
(lp3854
g57
(g58
g59
NtRp3855
(dp3856
g62
(dp3857
g70
I4
ssg71
g3851
sg64
(lp3858
g57
(g66
g59
NtRp3859
(dp3860
g62
(dp3861
g70
I3
ssg71
Nsg64
(lp3862
g57
(g73
g59
NtRp3863
(dp3864
g62
(dp3865
sg71
g3859
sg64
(lp3866
g57
(g78
g59
NtRp3867
(dp3868
g62
(dp3869
sg71
g3863
sg64
(lp3870
g57
(g58
g59
NtRp3871
(dp3872
g62
(dp3873
g70
I3
ssg71
g3867
sg64
(lp3874
g3734
(S't\t\x00\x00\x00categoria'
tRp3875
asbasbasbag57
(g73
g59
NtRp3876
(dp3877
g62
(dp3878
sg71
g3859
sg64
(lp3879
g57
(g78
g59
NtRp3880
(dp3881
g62
(dp3882
sg71
g3876
sg64
(lp3883
g57
(g58
g59
NtRp3884
(dp3885
g62
(dp3886
g70
I3
ssg71
g3880
sg64
(lp3887
g100
asbasbasbag57
(g73
g59
NtRp3888
(dp3889
g62
(dp3890
sg71
g3859
sg64
(lp3891
g57
(g78
g59
NtRp3892
(dp3893
g62
(dp3894
sg71
g3888
sg64
(lp3895
g57
(g58
g59
NtRp3896
(dp3897
g62
(dp3898
g70
I3
ssg71
g3892
sg64
(lp3899
S'/init/default/categoria'
p3900
asbasbasbag57
(g73
g59
NtRp3901
(dp3902
g62
(dp3903
sg71
g3859
sg64
(lp3904
g57
(g78
g59
NtRp3905
(dp3906
g62
(dp3907
sg71
g3901
sg64
(lp3908
g57
(g58
g59
NtRp3909
(dp3910
g62
(dp3911
g70
I3
ssg71
g3905
sg64
(lp3912
g57
(g66
g59
NtRp3913
(dp3914
g62
(dp3915
g70
I2
ssg71
Nsg64
(lp3916
sbasbasbasbasbasbasbasbag57
(g73
g59
NtRp3917
(dp3918
g62
(dp3919
sg71
g3702
sg64
(lp3920
g57
(g78
g59
NtRp3921
(dp3922
g62
(dp3923
sg71
g3917
sg64
(lp3924
g57
(g58
g59
NtRp3925
(dp3926
g62
(dp3927
g70
I4
ssg71
g3921
sg64
(lp3928
g57
(g66
g59
NtRp3929
(dp3930
g62
(dp3931
g70
I3
ssg71
Nsg64
(lp3932
g57
(g73
g59
NtRp3933
(dp3934
g62
(dp3935
sg71
g3929
sg64
(lp3936
g57
(g78
g59
NtRp3937
(dp3938
g62
(dp3939
sg71
g3933
sg64
(lp3940
g57
(g58
g59
NtRp3941
(dp3942
g62
(dp3943
g70
I3
ssg71
g3937
sg64
(lp3944
g3734
(S't\t\x00\x00\x00articulos'
tRp3945
asbasbasbag57
(g73
g59
NtRp3946
(dp3947
g62
(dp3948
sg71
g3929
sg64
(lp3949
g57
(g78
g59
NtRp3950
(dp3951
g62
(dp3952
sg71
g3946
sg64
(lp3953
g57
(g58
g59
NtRp3954
(dp3955
g62
(dp3956
g70
I3
ssg71
g3950
sg64
(lp3957
g100
asbasbasbag57
(g73
g59
NtRp3958
(dp3959
g62
(dp3960
sg71
g3929
sg64
(lp3961
g57
(g78
g59
NtRp3962
(dp3963
g62
(dp3964
sg71
g3958
sg64
(lp3965
g57
(g58
g59
NtRp3966
(dp3967
g62
(dp3968
g70
I3
ssg71
g3962
sg64
(lp3969
S'/init/default/articulo'
p3970
asbasbasbag57
(g73
g59
NtRp3971
(dp3972
g62
(dp3973
sg71
g3929
sg64
(lp3974
g57
(g78
g59
NtRp3975
(dp3976
g62
(dp3977
sg71
g3971
sg64
(lp3978
g57
(g58
g59
NtRp3979
(dp3980
g62
(dp3981
g70
I3
ssg71
g3975
sg64
(lp3982
g57
(g66
g59
NtRp3983
(dp3984
g62
(dp3985
g70
I2
ssg71
Nsg64
(lp3986
sbasbasbasbasbasbasbasbag57
(g73
g59
NtRp3987
(dp3988
g62
(dp3989
sg71
g3702
sg64
(lp3990
g57
(g78
g59
NtRp3991
(dp3992
g62
(dp3993
sg71
g3987
sg64
(lp3994
g57
(g58
g59
NtRp3995
(dp3996
g62
(dp3997
g70
I4
ssg71
g3991
sg64
(lp3998
g57
(g66
g59
NtRp3999
(dp4000
g62
(dp4001
g70
I3
ssg71
Nsg64
(lp4002
g57
(g73
g59
NtRp4003
(dp4004
g62
(dp4005
sg71
g3999
sg64
(lp4006
g57
(g78
g59
NtRp4007
(dp4008
g62
(dp4009
sg71
g4003
sg64
(lp4010
g57
(g58
g59
NtRp4011
(dp4012
g62
(dp4013
g70
I3
ssg71
g4007
sg64
(lp4014
g3734
(S's\x13\x00\x00\x00Lista de Pendientes'
tRp4015
asbasbasbag57
(g73
g59
NtRp4016
(dp4017
g62
(dp4018
sg71
g3999
sg64
(lp4019
g57
(g78
g59
NtRp4020
(dp4021
g62
(dp4022
sg71
g4016
sg64
(lp4023
g57
(g58
g59
NtRp4024
(dp4025
g62
(dp4026
g70
I3
ssg71
g4020
sg64
(lp4027
g100
asbasbasbag57
(g73
g59
NtRp4028
(dp4029
g62
(dp4030
sg71
g3999
sg64
(lp4031
g57
(g78
g59
NtRp4032
(dp4033
g62
(dp4034
sg71
g4028
sg64
(lp4035
g57
(g58
g59
NtRp4036
(dp4037
g62
(dp4038
g70
I3
ssg71
g4032
sg64
(lp4039
S'/init/default/presupuestos2'
p4040
asbasbasbag57
(g73
g59
NtRp4041
(dp4042
g62
(dp4043
sg71
g3999
sg64
(lp4044
g57
(g78
g59
NtRp4045
(dp4046
g62
(dp4047
sg71
g4041
sg64
(lp4048
g57
(g58
g59
NtRp4049
(dp4050
g62
(dp4051
g70
I3
ssg71
g4045
sg64
(lp4052
g57
(g66
g59
NtRp4053
(dp4054
g62
(dp4055
g70
I2
ssg71
Nsg64
(lp4056
sbasbasbasbasbasbasbasbag57
(g73
g59
NtRp4057
(dp4058
g62
(dp4059
sg71
g3702
sg64
(lp4060
g57
(g78
g59
NtRp4061
(dp4062
g62
(dp4063
sg71
g4057
sg64
(lp4064
g57
(g58
g59
NtRp4065
(dp4066
g62
(dp4067
g70
I4
ssg71
g4061
sg64
(lp4068
g57
(g66
g59
NtRp4069
(dp4070
g62
(dp4071
g70
I3
ssg71
Nsg64
(lp4072
g57
(g73
g59
NtRp4073
(dp4074
g62
(dp4075
sg71
g4069
sg64
(lp4076
g57
(g78
g59
NtRp4077
(dp4078
g62
(dp4079
sg71
g4073
sg64
(lp4080
g57
(g58
g59
NtRp4081
(dp4082
g62
(dp4083
g70
I3
ssg71
g4077
sg64
(lp4084
g3734
(S't\x0c\x00\x00\x00Modificacion'
tRp4085
asbasbasbag57
(g73
g59
NtRp4086
(dp4087
g62
(dp4088
sg71
g4069
sg64
(lp4089
g57
(g78
g59
NtRp4090
(dp4091
g62
(dp4092
sg71
g4086
sg64
(lp4093
g57
(g58
g59
NtRp4094
(dp4095
g62
(dp4096
g70
I3
ssg71
g4090
sg64
(lp4097
g100
asbasbasbag57
(g73
g59
NtRp4098
(dp4099
g62
(dp4100
sg71
g4069
sg64
(lp4101
g57
(g78
g59
NtRp4102
(dp4103
g62
(dp4104
sg71
g4098
sg64
(lp4105
g57
(g58
g59
NtRp4106
(dp4107
g62
(dp4108
g70
I3
ssg71
g4102
sg64
(lp4109
S'/init/default/presupuestos'
p4110
asbasbasbag57
(g73
g59
NtRp4111
(dp4112
g62
(dp4113
sg71
g4069
sg64
(lp4114
g57
(g78
g59
NtRp4115
(dp4116
g62
(dp4117
sg71
g4111
sg64
(lp4118
g57
(g58
g59
NtRp4119
(dp4120
g62
(dp4121
g70
I3
ssg71
g4115
sg64
(lp4122
g57
(g66
g59
NtRp4123
(dp4124
g62
(dp4125
g70
I2
ssg71
Nsg64
(lp4126
sbasbasbasbasbasbasbasbag57
(g73
g59
NtRp4127
(dp4128
g62
(dp4129
sg71
g3702
sg64
(lp4130
g57
(g78
g59
NtRp4131
(dp4132
g62
(dp4133
sg71
g4127
sg64
(lp4134
g57
(g58
g59
NtRp4135
(dp4136
g62
(dp4137
g70
I4
ssg71
g4131
sg64
(lp4138
g57
(g66
g59
NtRp4139
(dp4140
g62
(dp4141
g70
I3
ssg71
Nsg64
(lp4142
g57
(g73
g59
NtRp4143
(dp4144
g62
(dp4145
sg71
g4139
sg64
(lp4146
g57
(g78
g59
NtRp4147
(dp4148
g62
(dp4149
sg71
g4143
sg64
(lp4150
g57
(g58
g59
NtRp4151
(dp4152
g62
(dp4153
g70
I3
ssg71
g4147
sg64
(lp4154
g3734
(S's\x0c\x00\x00\x00Nueva Salida'
tRp4155
asbasbasbag57
(g73
g59
NtRp4156
(dp4157
g62
(dp4158
sg71
g4139
sg64
(lp4159
g57
(g78
g59
NtRp4160
(dp4161
g62
(dp4162
sg71
g4156
sg64
(lp4163
g57
(g58
g59
NtRp4164
(dp4165
g62
(dp4166
g70
I3
ssg71
g4160
sg64
(lp4167
g100
asbasbasbag57
(g73
g59
NtRp4168
(dp4169
g62
(dp4170
sg71
g4139
sg64
(lp4171
g57
(g78
g59
NtRp4172
(dp4173
g62
(dp4174
sg71
g4168
sg64
(lp4175
g57
(g58
g59
NtRp4176
(dp4177
g62
(dp4178
g70
I3
ssg71
g4172
sg64
(lp4179
S'/init/default/movimientos'
p4180
asbasbasbag57
(g73
g59
NtRp4181
(dp4182
g62
(dp4183
sg71
g4139
sg64
(lp4184
g57
(g78
g59
NtRp4185
(dp4186
g62
(dp4187
sg71
g4181
sg64
(lp4188
g57
(g58
g59
NtRp4189
(dp4190
g62
(dp4191
g70
I3
ssg71
g4185
sg64
(lp4192
g57
(g66
g59
NtRp4193
(dp4194
g62
(dp4195
g70
I2
ssg71
Nsg64
(lp4196
sbasbasbasbasbasbasbasbasbasbasbasbag57
(g73
g59
NtRp4197
(dp4198
g62
(dp4199
sg71
g3178
sg64
(lp4200
g57
(g78
g59
NtRp4201
(dp4202
g62
(dp4203
g82
g83
ssg71
g4197
sg64
(lp4204
S'meta'
p4205
asbag57
(g78
g59
NtRp4206
(dp4207
g62
(dp4208
g89
g90
ssg71
g4197
sg64
(lp4209
S':'
asbag57
(g78
g59
NtRp4210
(dp4211
g62
(dp4212
sg71
g4197
sg64
(lp4213
g57
(g58
g59
NtRp4214
(dp4215
g62
(dp4216
g70
I5
ssg71
g4210
sg64
(lp4217
g57
(g66
g59
NtRp4218
(dp4219
g62
(dp4220
g70
I4
ssg71
Nsg64
(lp4221
g57
(g73
g59
NtRp4222
(dp4223
g62
(dp4224
sg71
g4218
sg64
(lp4225
g57
(g78
g59
NtRp4226
(dp4227
g62
(dp4228
g82
g83
ssg71
g4222
sg64
(lp4229
S'author'
p4230
asbag57
(g78
g59
NtRp4231
(dp4232
g62
(dp4233
g89
g90
ssg71
g4222
sg64
(lp4234
S':'
asbag57
(g78
g59
NtRp4235
(dp4236
g62
(dp4237
sg71
g4222
sg64
(lp4238
g57
(g58
g59
NtRp4239
(dp4240
g62
(dp4241
g70
I4
ssg71
g4235
sg64
(lp4242
S'jorge a <jorge.agua@gmail.com>'
p4243
asbasbasbag57
(g73
g59
NtRp4244
(dp4245
g62
(dp4246
sg71
g4218
sg64
(lp4247
g57
(g78
g59
NtRp4248
(dp4249
g62
(dp4250
g82
g83
ssg71
g4244
sg64
(lp4251
S'description'
p4252
asbag57
(g78
g59
NtRp4253
(dp4254
g62
(dp4255
g89
g90
ssg71
g4244
sg64
(lp4256
S':'
asbag57
(g78
g59
NtRp4257
(dp4258
g62
(dp4259
sg71
g4244
sg64
(lp4260
g57
(g58
g59
NtRp4261
(dp4262
g62
(dp4263
g70
I4
ssg71
g4257
sg64
(lp4264
S''
asbasbasbag57
(g73
g59
NtRp4265
(dp4266
g62
(dp4267
sg71
g4218
sg64
(lp4268
g57
(g78
g59
NtRp4269
(dp4270
g62
(dp4271
g82
g83
ssg71
g4265
sg64
(lp4272
S'keywords'
p4273
asbag57
(g78
g59
NtRp4274
(dp4275
g62
(dp4276
g89
g90
ssg71
g4265
sg64
(lp4277
S':'
asbag57
(g78
g59
NtRp4278
(dp4279
g62
(dp4280
sg71
g4265
sg64
(lp4281
g57
(g58
g59
NtRp4282
(dp4283
g62
(dp4284
g70
I4
ssg71
g4278
sg64
(lp4285
S''
asbasbasbasbasbasbasbag57
(g73
g59
NtRp4286
(dp4287
g62
(dp4288
sg71
g3178
sg64
(lp4289
g57
(g78
g59
NtRp4290
(dp4291
g62
(dp4292
g82
g83
ssg71
g4286
sg64
(lp4293
S'postprocessing'
p4294
asbag57
(g78
g59
NtRp4295
(dp4296
g62
(dp4297
g89
g90
ssg71
g4286
sg64
(lp4298
S':'
asbag57
(g78
g59
NtRp4299
(dp4300
g62
(dp4301
sg71
g4286
sg64
(lp4302
g57
(g58
g59
NtRp4303
(dp4304
g62
(dp4305
g70
I5
ssg71
g4299
sg64
(lp4306
g57
(g66
g59
NtRp4307
(dp4308
g62
(dp4309
g70
I4
ssg71
Nsg64
(lp4310
sbasbasbasbag57
(g73
g59
NtRp4311
(dp4312
g62
(dp4313
sg71
g3178
sg64
(lp4314
g57
(g78
g59
NtRp4315
(dp4316
g62
(dp4317
g82
g83
ssg71
g4311
sg64
(lp4318
S'session_file'
p4319
asbag57
(g78
g59
NtRp4320
(dp4321
g62
(dp4322
g89
g90
ssg71
g4311
sg64
(lp4323
S':'
asbag57
(g78
g59
NtRp4324
(dp4325
g62
(dp4326
sg71
g4311
sg64
(lp4327
g57
(g58
g59
NtRp4328
(dp4329
g62
(dp4330
g70
I5
ssg71
g4324
sg64
(lp4331
S"<open file 'c:\\Users\\Jorge\\Downloads\\web2py_src\\web2py\\applications\\init\\sessions\\127.0.0.1-db1a5172-e0eb-4779-bead-3eff2ec2fe17', mode 'rb+' at 0x000000000929DAE0>"
p4332
asbasbasbag57
(g73
g59
NtRp4333
(dp4334
g62
(dp4335
sg71
g3178
sg64
(lp4336
g57
(g78
g59
NtRp4337
(dp4338
g62
(dp4339
g82
g83
ssg71
g4333
sg64
(lp4340
S'session_filename'
p4341
asbag57
(g78
g59
NtRp4342
(dp4343
g62
(dp4344
g89
g90
ssg71
g4333
sg64
(lp4345
S':'
asbag57
(g78
g59
NtRp4346
(dp4347
g62
(dp4348
sg71
g4333
sg64
(lp4349
g57
(g58
g59
NtRp4350
(dp4351
g62
(dp4352
g70
I5
ssg71
g4346
sg64
(lp4353
S'c:\\Users\\Jorge\\Downloads\\web2py_src\\web2py\\applications\\init\\sessions\\127.0.0.1-db1a5172-e0eb-4779-bead-3eff2ec2fe17'
p4354
asbasbasbag57
(g73
g59
NtRp4355
(dp4356
g62
(dp4357
sg71
g3178
sg64
(lp4358
g57
(g78
g59
NtRp4359
(dp4360
g62
(dp4361
g82
g83
ssg71
g4355
sg64
(lp4362
S'session_id'
p4363
asbag57
(g78
g59
NtRp4364
(dp4365
g62
(dp4366
g89
g90
ssg71
g4355
sg64
(lp4367
S':'
asbag57
(g78
g59
NtRp4368
(dp4369
g62
(dp4370
sg71
g4355
sg64
(lp4371
g57
(g58
g59
NtRp4372
(dp4373
g62
(dp4374
g70
I5
ssg71
g4368
sg64
(lp4375
S'127.0.0.1-db1a5172-e0eb-4779-bead-3eff2ec2fe17'
p4376
asbasbasbag57
(g73
g59
NtRp4377
(dp4378
g62
(dp4379
sg71
g3178
sg64
(lp4380
g57
(g78
g59
NtRp4381
(dp4382
g62
(dp4383
g82
g83
ssg71
g4377
sg64
(lp4384
S'session_id_name'
p4385
asbag57
(g78
g59
NtRp4386
(dp4387
g62
(dp4388
g89
g90
ssg71
g4377
sg64
(lp4389
S':'
asbag57
(g78
g59
NtRp4390
(dp4391
g62
(dp4392
sg71
g4377
sg64
(lp4393
g57
(g58
g59
NtRp4394
(dp4395
g62
(dp4396
g70
I5
ssg71
g4390
sg64
(lp4397
g3235
asbasbasbag57
(g73
g59
NtRp4398
(dp4399
g62
(dp4400
sg71
g3178
sg64
(lp4401
g57
(g78
g59
NtRp4402
(dp4403
g62
(dp4404
g82
g83
ssg71
g4398
sg64
(lp4405
S'session_locked'
p4406
asbag57
(g78
g59
NtRp4407
(dp4408
g62
(dp4409
g89
g90
ssg71
g4398
sg64
(lp4410
S':'
asbag57
(g78
g59
NtRp4411
(dp4412
g62
(dp4413
sg71
g4398
sg64
(lp4414
g57
(g58
g59
NtRp4415
(dp4416
g62
(dp4417
g70
I5
ssg71
g4411
sg64
(lp4418
g1325
asbasbasbag57
(g73
g59
NtRp4419
(dp4420
g62
(dp4421
sg71
g3178
sg64
(lp4422
g57
(g78
g59
NtRp4423
(dp4424
g62
(dp4425
g82
g83
ssg71
g4419
sg64
(lp4426
S'session_new'
p4427
asbag57
(g78
g59
NtRp4428
(dp4429
g62
(dp4430
g89
g90
ssg71
g4419
sg64
(lp4431
S':'
asbag57
(g78
g59
NtRp4432
(dp4433
g62
(dp4434
sg71
g4419
sg64
(lp4435
g57
(g58
g59
NtRp4436
(dp4437
g62
(dp4438
g70
I5
ssg71
g4432
sg64
(lp4439
g100
asbasbasbag57
(g73
g59
NtRp4440
(dp4441
g62
(dp4442
sg71
g3178
sg64
(lp4443
g57
(g78
g59
NtRp4444
(dp4445
g62
(dp4446
g82
g83
ssg71
g4440
sg64
(lp4447
S'status'
p4448
asbag57
(g78
g59
NtRp4449
(dp4450
g62
(dp4451
g89
g90
ssg71
g4440
sg64
(lp4452
S':'
asbag57
(g78
g59
NtRp4453
(dp4454
g62
(dp4455
sg71
g4440
sg64
(lp4456
g57
(g58
g59
NtRp4457
(dp4458
g62
(dp4459
g70
I5
ssg71
g4453
sg64
(lp4460
S'200'
p4461
asbasbasbag57
(g73
g59
NtRp4462
(dp4463
g62
(dp4464
sg71
g3178
sg64
(lp4465
g57
(g78
g59
NtRp4466
(dp4467
g62
(dp4468
g82
g83
ssg71
g4462
sg64
(lp4469
S'subtitle'
p4470
asbag57
(g78
g59
NtRp4471
(dp4472
g62
(dp4473
g89
g90
ssg71
g4462
sg64
(lp4474
S':'
asbag57
(g78
g59
NtRp4475
(dp4476
g62
(dp4477
sg71
g4462
sg64
(lp4478
g57
(g58
g59
NtRp4479
(dp4480
g62
(dp4481
g70
I5
ssg71
g4475
sg64
(lp4482
S'powered by jorge'
p4483
asbasbasbag57
(g73
g59
NtRp4484
(dp4485
g62
(dp4486
sg71
g3178
sg64
(lp4487
g57
(g78
g59
NtRp4488
(dp4489
g62
(dp4490
g82
g83
ssg71
g4484
sg64
(lp4491
S'title'
p4492
asbag57
(g78
g59
NtRp4493
(dp4494
g62
(dp4495
g89
g90
ssg71
g4484
sg64
(lp4496
S':'
asbag57
(g78
g59
NtRp4497
(dp4498
g62
(dp4499
sg71
g4484
sg64
(lp4500
g57
(g58
g59
NtRp4501
(dp4502
g62
(dp4503
g70
I5
ssg71
g4497
sg64
(lp4504
S'mi nueva app'
p4505
asbasbasbag57
(g73
g59
NtRp4506
(dp4507
g62
(dp4508
sg71
g3178
sg64
(lp4509
g57
(g78
g59
NtRp4510
(dp4511
g62
(dp4512
g82
g83
ssg71
g4506
sg64
(lp4513
g2011
asbag57
(g78
g59
NtRp4514
(dp4515
g62
(dp4516
g89
g90
ssg71
g4506
sg64
(lp4517
S':'
asbag57
(g78
g59
NtRp4518
(dp4519
g62
(dp4520
sg71
g4506
sg64
(lp4521
g57
(g58
g59
NtRp4522
(dp4523
g62
(dp4524
g70
I5
ssg71
g4518
sg64
(lp4525
g2024
asbasbasbag57
(g73
g59
NtRp4526
(dp4527
g62
(dp4528
sg71
g3178
sg64
(lp4529
g57
(g78
g59
NtRp4530
(dp4531
g62
(dp4532
g82
g83
ssg71
g4526
sg64
(lp4533
S'view'
p4534
asbag57
(g78
g59
NtRp4535
(dp4536
g62
(dp4537
g89
g90
ssg71
g4526
sg64
(lp4538
S':'
asbag57
(g78
g59
NtRp4539
(dp4540
g62
(dp4541
sg71
g4526
sg64
(lp4542
g57
(g58
g59
NtRp4543
(dp4544
g62
(dp4545
g70
I5
ssg71
g4539
sg64
(lp4546
S'default/prueba.html'
p4547
asbasbasbasbasbsS'locals'
p4548
(dp4549
ssS'traceback'
p4550
S'Traceback (most recent call last):\n  File "c:\\Users\\Jorge\\Downloads\\web2py_src\\web2py\\gluon\\restricted.py", line 205, in restricted\n    exec ccode in environment\n  File "c:\\Users\\Jorge\\Downloads\\web2py_src\\web2py\\applications\\init\\controllers/default.py", line 277, in <module>\n  File "c:\\Users\\Jorge\\Downloads\\web2py_src\\web2py\\gluon\\globals.py", line 173, in <lambda>\n    self._caller = lambda f: f()\n  File "c:\\Users\\Jorge\\Downloads\\web2py_src\\web2py\\applications\\init\\controllers/default.py", line 266, in prueba\n    indice = _id\nNameError: global name \'_id\' is not defined\n'
p4551
s.