(dp1
S'output'
p2
S"<type 'exceptions.SyntaxError'> invalid syntax (controllers/default.py, line 162)"
p3
sS'layer'
p4
S'c:\\Users\\Jorge\\Downloads\\web2py_src\\web2py\\applications\\init\\controllers/default.py'
p5
sS'code'
p6
S'# -*- coding: utf-8 -*-\nif 0:\n    from gluon.globals import *\n    from gluon.html import *\n    from gluon.http import *\n    from gluon.tools import Auth\n    from gluon.sqlhtml import SQLFORM, SQLTABLE, form_factory\n    session = Session()\n    request = Request()\n    response = Response()\n\n### required - do no delete\ndef user(): return dict(form=auth())\ndef download(): return response.download(request,db)\ndef call(): return service()\n### end requires\n\n\n\ndef index():\n    return dict()\n\ndef error():\n    return dict()\n\n\n# lista de clientes y altas - que retiran mercaderia\n@auth.requires_login()\ndef cliente():\n    datasource = db(db.cliente.id>0).select()\n    powerTable = plugins.powerTable\n    powerTable.datasource = datasource\n    powerTable.headers = \'labels\'\n    powerTable.showkeycolumn = False\n    powerTable.dtfeatures[\'bJQueryUI\'] = request.vars.get(\'jqueryui\',True)\n    powerTable.uitheme = request.vars.get(\'theme\',\'Smoothness\')\n    powerTable.dtfeatures["sScrollY"] = "100%"\n    powerTable.dtfeatures["sScrollX"] = "100%"\n    powerTable.dtfeatures[\'sPaginationType\'] = \'full_numbers\'\n    powerTable.dtfeatures["iDisplayLength"] = 20\n    \n    #buttons=[\n          #(\'Docs\',URL(\'default\',\'presupuestos\',args=[\'read\',\'features\'])+\'/${id}\',\'_blank\',\'Docs for ${empresa}\',\'modal right button\',\'rightarrow\'),\n    #]\n    \n    \n \n    #from plugin_PowerGrid.PowerGrid import PowerGrid\n    #p = PowerGrid(\n           #callback=URL(\'default\',\'features\', extension=\'json\'),\n           #buttons=buttons,\n           #addurl=URL(\'plugin_PowerGrid\',\'data\',args=[\'create\',\'features\']), \n           #hideaddbutton=False \n           #if auth.has_membership(\'admin\') else True,\n           #headers=[[\'created_on\',\'Nombre\'], [\'email\',\'Correo\'],[\'telefono\',\'telefono\']],\n           #minH=600,minW=800,\n           #options=dict(colsWidth=[200,400],find=\'text\',rows=10)\n\n    #)\n        \n        \n        \n    mystep = [dict(title=\'NUEVO CLIENTE\',Legend=\'Ingrese los datos del nuevo cliente\',\n                   fields=[\'empresa\',\'contacto\',\'telefono\',\'correo\'])]\n    from plugin_PowerFormWizard import PowerFormWizard\n    options = {\'description\':False,\'legend\':True,\'validate\':True}\n    form = PowerFormWizard(db.cliente, steps=mystep, options=options)\n    \n    if form.accepts(request.vars, session):\n        response.flash = "registro aceptado"\n    elif form.errors:\n        form.step_validation()\n        response.flash = "error en los datos"\n    return dict( table=powerTable.create(),form=form)    \n    #return dict(p=p)\n\n# lista de categorias de articulos - altas de categorias de articulos\n@auth.requires_login()\ndef categoria():\n    datasource = db(db.categoria.id>0).select()\n    powerTable = plugins.powerTable\n    powerTable.datasource = datasource\n    powerTable.headers = \'labels\'\n    powerTable.showkeycolumn = False\n    powerTable.dtfeatures[\'bJQueryUI\'] = request.vars.get(\'jqueryui\',True)\n    powerTable.uitheme = request.vars.get(\'theme\',\'Smoothness\')\n    powerTable.dtfeatures["sScrollY"] = "100%"\n    powerTable.dtfeatures["sScrollX"] = "100%"\n    powerTable.dtfeatures[\'sPaginationType\'] = \'full_numbers\'\n    powerTable.dtfeatures["iDisplayLength"] = 30\n    \n    mystep = [dict(title=\'NUEVAS CATEGORIAS\',Legend=\'Ingrese una Categoria para Agrupar art\xc3\xadculos\',fields=[\'name\'])]\n    from plugin_PowerFormWizard import PowerFormWizard\n    options = {\'description\':False,\'legend\':True,\'validate\':True}\n    form = PowerFormWizard(db.categoria, steps=mystep, options=options)\n    \n    if form.accepts(request.vars, session):\n        response.flash = "registro aceptado"\n    elif form.errors:\n        form.step_validation()\n        response.flash = "error en los datos"\n    return dict( table=powerTable.create(),form=form)\n\n# lista de articulos y alta de articulos \n@auth.requires_login()\ndef articulo():\n    datasource = db(db.articulo.id>0).select()\n    powerTable = plugins.powerTable\n    powerTable.datasource = datasource\n    powerTable.headers = \'labels\'\n    powerTable.showkeycolumn = False\n    powerTable.dtfeatures[\'bJQueryUI\'] = request.vars.get(\'jqueryui\',True)\n    powerTable.uitheme = request.vars.get(\'theme\',\'Smoothness\')\n    powerTable.dtfeatures["sScrollY"] = "100%"\n    powerTable.dtfeatures["sScrollX"] = "100%"\n    powerTable.dtfeatures[\'sPaginationType\'] = \'full_numbers\'\n    powerTable.dtfeatures["iDisplayLength"] = 20\n        \n    mystep = [dict(title=\'NUEVOS ARTICULOS\',Legend=\'Ingrese los datos del articulo\',\n                   fields=[\'descripcion\',\'memo\',\'iva\',\'precio\',\'categoria\'])]\n    from plugin_PowerFormWizard import PowerFormWizard\n    options = {\'description\':False,\'legend\':True,\'validate\':True}\n    form = PowerFormWizard(db.articulo, steps=mystep, options=options)\n    \n    if form.accepts(request.vars, session):\n        response.flash = "registro aceptado"\n    elif form.errors:\n        form.step_validation()\n        response.flash = "error en los datos"\n    return dict( table=powerTable.create(),form=form)\n\n\ndef features():\n    from plugin_PowerGrid.CallBack import CallBack        \n    return CallBack(db.movimientos.id>0 and db.movimientos.fecha_devuelta==None)\n\n@auth.requires(auth.has_membership(role=\'Admin\'))   \ndef presupuestos():\n            \n    #datasource = db(db.movimientos.id>0).select()\n    #powerTable = plugins.powerTable\n    #powerTable.datasource = datasource\n    #powerTable.headers = \'labels\'\n    #powerTable.showkeycolumn = False\n    #powerTable.dtfeatures[\'bJQueryUI\'] = request.vars.get(\'jqueryui\',True)\n    #powerTable.uitheme = request.vars.get(\'theme\',\'Smoothness\')\n    #powerTable.dtfeatures[\'sScrollX\'] = \'100%\'\n    #powerTable.dtfeatures[\'sPaginationType\'] = request.vars.get(\'pager\',\'scrolling\')\n    #powerTable.extrajs = dict(autoresize={},\n                               #tooltip={},\n                               #)\n    #response.view = \'default/index.html\'\n    from plugin_PowerGrid.PowerGrid import PowerGrid\n    p = PowerGrid(\n                  callback=URL(\'default\',\'features\', extension=\'json\'),\n                  buttons=[\n                            #(\'details\',URL(\'plugin_PowerGrid\',\'data\',args=[\'read\',\'products\'])+\'/${id}\',\'_blank\',\'Details of Record ${id}\',\'modal positive left button\',\'magnifier\',[600,500]),\n                            (\'prueba\',URL(\'plugin_PowerGrid\',\'data\',args=\'/${id}\',\'_blank\',\'Details of Record ${id}\',\'modal positive left button\',\'magnifier\',[600,500]),\n                            (\'cargar comprobante\',URL(\'plugin_PowerGrid\',\'data\',args=[\'update\',\'movimientos\'])+\'/${id}\',\'_blank\',\'Editando Registro ${id}\',\'refreshmodal middle button\', \'pen\',[600,800]),\n                            #(\'delete\',URL(\'plugin_PowerGrid\',\'data\',args=[\'delete\',\'products\'])+\'/${id}\',\'_blank\',\'Are you sure you want to delete record ${id}\',\'confirmationmodal right negative button\', \'cross\'),\n                            #(\'google\',\'http://www.google.com/#hl=en-US&source=hp&q=${name}\',\'_blank\',\'Googling for ${name}\',\'modal right button\', \'pin\',[900,600]),\n                         ],\n                  addurl=URL(\'plugin_PowerGrid\',\'data\',args=[\'create\',\'features\']), \n                  addLabel=\'Add New Record\',   \n                  addTitle=\'You are adding a new record\',              \n                  headers=[[\'id\',\'Codigo\'],[\'entregado_x\',\'Entrega: \'], [\'retirado_x\',\'Retira\'],\n                           ],\n                  \n                  #headers=[[\'entregado_x\',\'Entrega: \'], [\'retirado_x\',\'Retira\'], [\'id_articulo\',\'Articulo\'],[\'cantidad\',\'Cantidad\'],\n                           #[\'cliente\',\'Usado en\']],\n                  #hidecontrolbuttons=True,\n                  #hiderefreshbutton=True,\n                  hideaddbutton=True,\n                  #_id="banana",\n                  #target="melancia",\n                  #searchBy=\'equal\',\n                  minH=800,\n                  options=dict(#colsWidth=[60,60,60],\n                               #width=700,\n                               #buttonBackTitle=\'Back\',\n                               #buttonMax=4,\n                               #buttonNextTitle=\'Next\',\n                               #success="""js[function(){alert(\'Executed on success\');}]js""",\n                               #before="""js[function(){alert(\'Executed before\');}]js""",\n                               #error="""js[function(){alert(\'Executed on load error\');}]js""",\n                               #buttonOption=False,\n                               #buttonsWidth=200\n                               #buttonTitle=\'oi\',\n                               #clickFx=False,\n                               #debug=True,\n                               #find=\'name\',search=\'J\',\n                               #searchOption=False,\n                               searchButtonLabel=\'Buscar\',\n                               searchButtonTitle=\'Clique para buscar\',\n                               searchFocus=True,\n                               #cache=True,\n                               #contentType=\'application/x-www-form-urlencoded; charset=utf-8\',\n                               #type=\'get\',\n                               #dataType=\'jsonp\',\n                               #jsonp=True,\n                               #jsonpCallback=\'callback\',\n                               #findsName=[[\'name\',\'name\']],\n                               #hoverFx=False,\n                               #loadingOption=True,\n                               #loadingText=\'Carregando...\',\n                               #messageOption=False,\n                               #noResultOption=False,\n                               noResultText=\'no se encontraron datos \',\n                               #page=1,\n                               #rows=3,\n                               #rowsNumber=[3,25],\n                               #params=\'&blablabla=45\',\n                               #resize=False,\n                               #resultOption=False,\n                               #resultText= \'Exibindo {from} - {to} de {total} registros\',\n                               #scroll=True,height=100,\n                               #searchText=\'Busque aqui\',\n                               #sortName=\'name\',\n                               #sortOrder=\'asc\',\n                               #template=\'template\',\n                               #templateStyle=\'blabla\',\n\n\n\n                                   ),\n                  )\n\n    return dict(p=p)\n\n        \n    \n    #return dict(table=powerTable.create())\n    \n\n@auth.requires_login()\ndef presupuestos2():\n            \n    datasource = db(db.movimientos.id>0).select()\n    powerTable = plugins.powerTable\n    powerTable.datasource = datasource\n    powerTable.headers = \'labels\'\n    powerTable.showkeycolumn = True\n    powerTable.dtfeatures[\'bJQueryUI\'] = request.vars.get(\'jqueryui\',True)\n    powerTable.uitheme = request.vars.get(\'theme\',\'Smoothness\')\n    powerTable.dtfeatures[\'sScrollX\'] = \'100%\'\n    powerTable.dtfeatures[\'sPaginationType\'] = request.vars.get(\'pager\',\'scrolling\')\n    powerTable.extrajs = dict(autoresize={},\n                               tooltip={},\n                               )\n    \n    return dict(table=powerTable.create())\n\n@auth.requires(auth.has_membership(role=\'Admin\'))  \ndef movimientos():\n    mystep = [dict(title=\'MOVIMIENTOS\',Legend=\'Ingrese los datos solicitados\',\n                   fields=[\'entregado_x\',\'retirado_x\',\'id_articulo\',\'cantidad\',\n                           \'estado\',\'Comprobante\',\n                           \'cliente\'])]\n    from plugin_PowerFormWizard import PowerFormWizard\n    options = {\'description\':False,\'legend\':True,\'validate\':True}\n    form = PowerFormWizard(db.movimientos, steps=mystep, options=options)\n    \n    if form.accepts(request.vars, session):\n        response.flash = "registro aceptado"\n        rows = db(db.movimientos.id>0).select()\n        last_row = rows.last()\n        a=db.memomovi.insert(referencia=last_row.id,entregado_x=last_row.entregado_x,\n                             retirado_x=last_row.retirado_x,id_articulo=last_row.id_articulo,\n                             cantidad=last_row.cantidad,fecha_pedido=last_row.fecha_pedido,\n                             fecha_devuelta=last_row.fecha_devuelta,estado=last_row.estado,\n                             Comprobante=last_row.Comprobante,cliente=last_row.cliente)\n        db.commit()\n    elif form.errors:\n        form.step_validation()\n        response.flash = "error en los datos"\n    return dict(form=form)\nresponse._vars=response._caller(index)\n'
p7
sS'snapshot'
p8
(dp9
S'exception'
p10
(dp11
S'__getslice__'
p12
S"<method-wrapper '__getslice__' of exceptions.SyntaxError object>"
p13
sS'text'
p14
S"'                         ],\\n'"
p15
sS'__str__'
p16
S"<method-wrapper '__str__' of exceptions.SyntaxError object>"
p17
sS'__reduce__'
p18
S'<built-in method __reduce__ of exceptions.SyntaxError object>'
p19
sS'__dict__'
p20
S'{}'
p21
sS'__sizeof__'
p22
S'<built-in method __sizeof__ of exceptions.SyntaxError object>'
p23
sS'__init__'
p24
S"<method-wrapper '__init__' of exceptions.SyntaxError object>"
p25
sS'__setattr__'
p26
S"<method-wrapper '__setattr__' of exceptions.SyntaxError object>"
p27
sS'__reduce_ex__'
p28
S'<built-in method __reduce_ex__ of exceptions.SyntaxError object>'
p29
sS'__new__'
p30
S'<built-in method __new__ of type object>'
p31
sS'__format__'
p32
S'<built-in method __format__ of exceptions.SyntaxError object>'
p33
sS'__class__'
p34
S"<type 'exceptions.SyntaxError'>"
p35
sS'filename'
p36
S"r'c:\\Users\\Jorge\\Downloads\\web2py_src\\web2py\\applications\\init\\controllers/default.py'"
p37
sS'lineno'
p38
S'162'
p39
sS'msg'
p40
S"'invalid syntax'"
p41
sS'__doc__'
p42
S"'Invalid syntax.'"
p43
sS'__getitem__'
p44
S"<method-wrapper '__getitem__' of exceptions.SyntaxError object>"
p45
sS'__setstate__'
p46
S'<built-in method __setstate__ of exceptions.SyntaxError object>'
p47
sS'__getattribute__'
p48
S"<method-wrapper '__getattribute__' of exceptions.SyntaxError object>"
p49
sS'print_file_and_line'
p50
S'None'
p51
sS'args'
p52
S"('invalid syntax', (r'c:\\Users\\Jorge\\Downloads\\web2py_src\\web2py\\applications\\init\\controllers/default.py', 162, 26, '                         ],\\n'))"
p53
sS'__subclasshook__'
p54
S'<built-in method __subclasshook__ of type object>'
p55
sS'offset'
p56
S'26'
p57
sS'__unicode__'
p58
S'<built-in method __unicode__ of exceptions.SyntaxError object>'
p59
sS'__delattr__'
p60
S"<method-wrapper '__delattr__' of exceptions.SyntaxError object>"
p61
sS'__repr__'
p62
S"<method-wrapper '__repr__' of exceptions.SyntaxError object>"
p63
sS'__hash__'
p64
S"<method-wrapper '__hash__' of exceptions.SyntaxError object>"
p65
ssS'evalue'
p66
S'invalid syntax (controllers/default.py, line 162)'
p67
sS'request'
p68
ccopy_reg
_reconstructor
p69
(cgluon.html
BEAUTIFY
p70
c__builtin__
object
p71
NtRp72
(dp73
S'attributes'
p74
(dp75
sS'components'
p76
(lp77
g69
(cgluon.html
TABLE
p78
g71
NtRp79
(dp80
g74
(dp81
S'level'
p82
I5
ssS'parent'
p83
Nsg76
(lp84
g69
(cgluon.html
TR
p85
g71
NtRp86
(dp87
g74
(dp88
sg83
g79
sg76
(lp89
g69
(cgluon.html
TD
p90
g71
NtRp91
(dp92
g74
(dp93
S'_style'
p94
S'font-weight:bold;vertical-align:top'
p95
ssg83
g86
sg76
(lp96
S'ajax'
p97
asbag69
(g90
g71
NtRp98
(dp99
g74
(dp100
S'_valign'
p101
S'top'
p102
ssg83
g86
sg76
(lp103
S':'
asbag69
(g90
g71
NtRp104
(dp105
g74
(dp106
sg83
g86
sg76
(lp107
g69
(g70
g71
NtRp108
(dp109
g74
(dp110
g82
I5
ssg83
g104
sg76
(lp111
S'False'
p112
asbasbasbag69
(g85
g71
NtRp113
(dp114
g74
(dp115
sg83
g79
sg76
(lp116
g69
(g90
g71
NtRp117
(dp118
g74
(dp119
g94
g95
ssg83
g113
sg76
(lp120
S'application'
p121
asbag69
(g90
g71
NtRp122
(dp123
g74
(dp124
g101
g102
ssg83
g113
sg76
(lp125
S':'
asbag69
(g90
g71
NtRp126
(dp127
g74
(dp128
sg83
g113
sg76
(lp129
g69
(g70
g71
NtRp130
(dp131
g74
(dp132
g82
I5
ssg83
g126
sg76
(lp133
S'init'
p134
asbasbasbag69
(g85
g71
NtRp135
(dp136
g74
(dp137
sg83
g79
sg76
(lp138
g69
(g90
g71
NtRp139
(dp140
g74
(dp141
g94
g95
ssg83
g135
sg76
(lp142
g52
asbag69
(g90
g71
NtRp143
(dp144
g74
(dp145
g101
g102
ssg83
g135
sg76
(lp146
S':'
asbag69
(g90
g71
NtRp147
(dp148
g74
(dp149
sg83
g135
sg76
(lp150
g69
(g70
g71
NtRp151
(dp152
g74
(dp153
g82
I5
ssg83
g147
sg76
(lp154
g69
(g78
g71
NtRp155
(dp156
g74
(dp157
g82
I4
ssg83
Nsg76
(lp158
sbasbasbasbag69
(g85
g71
NtRp159
(dp160
g74
(dp161
sg83
g79
sg76
(lp162
g69
(g90
g71
NtRp163
(dp164
g74
(dp165
g94
g95
ssg83
g159
sg76
(lp166
S'body'
p167
asbag69
(g90
g71
NtRp168
(dp169
g74
(dp170
g101
g102
ssg83
g159
sg76
(lp171
S':'
asbag69
(g90
g71
NtRp172
(dp173
g74
(dp174
sg83
g159
sg76
(lp175
g69
(g70
g71
NtRp176
(dp177
g74
(dp178
g82
I5
ssg83
g172
sg76
(lp179
S'<cStringIO.StringO object at 0x0000000009C5EF10>'
p180
asbasbasbag69
(g85
g71
NtRp181
(dp182
g74
(dp183
sg83
g79
sg76
(lp184
g69
(g90
g71
NtRp185
(dp186
g74
(dp187
g94
g95
ssg83
g181
sg76
(lp188
S'client'
p189
asbag69
(g90
g71
NtRp190
(dp191
g74
(dp192
g101
g102
ssg83
g181
sg76
(lp193
S':'
asbag69
(g90
g71
NtRp194
(dp195
g74
(dp196
sg83
g181
sg76
(lp197
g69
(g70
g71
NtRp198
(dp199
g74
(dp200
g82
I5
ssg83
g194
sg76
(lp201
S'127.0.0.1'
p202
asbasbasbag69
(g85
g71
NtRp203
(dp204
g74
(dp205
sg83
g79
sg76
(lp206
g69
(g90
g71
NtRp207
(dp208
g74
(dp209
g94
g95
ssg83
g203
sg76
(lp210
S'controller'
p211
asbag69
(g90
g71
NtRp212
(dp213
g74
(dp214
g101
g102
ssg83
g203
sg76
(lp215
S':'
asbag69
(g90
g71
NtRp216
(dp217
g74
(dp218
sg83
g203
sg76
(lp219
g69
(g70
g71
NtRp220
(dp221
g74
(dp222
g82
I5
ssg83
g216
sg76
(lp223
S'default'
p224
asbasbasbag69
(g85
g71
NtRp225
(dp226
g74
(dp227
sg83
g79
sg76
(lp228
g69
(g90
g71
NtRp229
(dp230
g74
(dp231
g94
g95
ssg83
g225
sg76
(lp232
S'cookies'
p233
asbag69
(g90
g71
NtRp234
(dp235
g74
(dp236
g101
g102
ssg83
g225
sg76
(lp237
S':'
asbag69
(g90
g71
NtRp238
(dp239
g74
(dp240
sg83
g225
sg76
(lp241
g69
(g70
g71
NtRp242
(dp243
g74
(dp244
g82
I5
ssg83
g238
sg76
(lp245
g69
(g78
g71
NtRp246
(dp247
g74
(dp248
g82
I4
ssg83
Nsg76
(lp249
g69
(g85
g71
NtRp250
(dp251
g74
(dp252
sg83
g246
sg76
(lp253
g69
(g90
g71
NtRp254
(dp255
g74
(dp256
g94
g95
ssg83
g250
sg76
(lp257
S'session_id_admin'
p258
asbag69
(g90
g71
NtRp259
(dp260
g74
(dp261
g101
g102
ssg83
g250
sg76
(lp262
S':'
asbag69
(g90
g71
NtRp263
(dp264
g74
(dp265
sg83
g250
sg76
(lp266
g69
(g70
g71
NtRp267
(dp268
g74
(dp269
g82
I4
ssg83
g263
sg76
(lp270
g69
(g78
g71
NtRp271
(dp272
g74
(dp273
g82
I3
ssg83
Nsg76
(lp274
g69
(g85
g71
NtRp275
(dp276
g74
(dp277
sg83
g271
sg76
(lp278
g69
(g90
g71
NtRp279
(dp280
g74
(dp281
g94
g95
ssg83
g275
sg76
(lp282
S'comment'
p283
asbag69
(g90
g71
NtRp284
(dp285
g74
(dp286
g101
g102
ssg83
g275
sg76
(lp287
S':'
asbag69
(g90
g71
NtRp288
(dp289
g74
(dp290
sg83
g275
sg76
(lp291
g69
(g70
g71
NtRp292
(dp293
g74
(dp294
g82
I3
ssg83
g288
sg76
(lp295
S''
asbasbasbag69
(g85
g71
NtRp296
(dp297
g74
(dp298
sg83
g271
sg76
(lp299
g69
(g90
g71
NtRp300
(dp301
g74
(dp302
g94
g95
ssg83
g296
sg76
(lp303
S'domain'
p304
asbag69
(g90
g71
NtRp305
(dp306
g74
(dp307
g101
g102
ssg83
g296
sg76
(lp308
S':'
asbag69
(g90
g71
NtRp309
(dp310
g74
(dp311
sg83
g296
sg76
(lp312
g69
(g70
g71
NtRp313
(dp314
g74
(dp315
g82
I3
ssg83
g309
sg76
(lp316
S''
asbasbasbag69
(g85
g71
NtRp317
(dp318
g74
(dp319
sg83
g271
sg76
(lp320
g69
(g90
g71
NtRp321
(dp322
g74
(dp323
g94
g95
ssg83
g317
sg76
(lp324
S'expires'
p325
asbag69
(g90
g71
NtRp326
(dp327
g74
(dp328
g101
g102
ssg83
g317
sg76
(lp329
S':'
asbag69
(g90
g71
NtRp330
(dp331
g74
(dp332
sg83
g317
sg76
(lp333
g69
(g70
g71
NtRp334
(dp335
g74
(dp336
g82
I3
ssg83
g330
sg76
(lp337
S''
asbasbasbag69
(g85
g71
NtRp338
(dp339
g74
(dp340
sg83
g271
sg76
(lp341
g69
(g90
g71
NtRp342
(dp343
g74
(dp344
g94
g95
ssg83
g338
sg76
(lp345
S'httponly'
p346
asbag69
(g90
g71
NtRp347
(dp348
g74
(dp349
g101
g102
ssg83
g338
sg76
(lp350
S':'
asbag69
(g90
g71
NtRp351
(dp352
g74
(dp353
sg83
g338
sg76
(lp354
g69
(g70
g71
NtRp355
(dp356
g74
(dp357
g82
I3
ssg83
g351
sg76
(lp358
S''
asbasbasbag69
(g85
g71
NtRp359
(dp360
g74
(dp361
sg83
g271
sg76
(lp362
g69
(g90
g71
NtRp363
(dp364
g74
(dp365
g94
g95
ssg83
g359
sg76
(lp366
S'max-age'
p367
asbag69
(g90
g71
NtRp368
(dp369
g74
(dp370
g101
g102
ssg83
g359
sg76
(lp371
S':'
asbag69
(g90
g71
NtRp372
(dp373
g74
(dp374
sg83
g359
sg76
(lp375
g69
(g70
g71
NtRp376
(dp377
g74
(dp378
g82
I3
ssg83
g372
sg76
(lp379
S''
asbasbasbag69
(g85
g71
NtRp380
(dp381
g74
(dp382
sg83
g271
sg76
(lp383
g69
(g90
g71
NtRp384
(dp385
g74
(dp386
g94
g95
ssg83
g380
sg76
(lp387
S'path'
p388
asbag69
(g90
g71
NtRp389
(dp390
g74
(dp391
g101
g102
ssg83
g380
sg76
(lp392
S':'
asbag69
(g90
g71
NtRp393
(dp394
g74
(dp395
sg83
g380
sg76
(lp396
g69
(g70
g71
NtRp397
(dp398
g74
(dp399
g82
I3
ssg83
g393
sg76
(lp400
S''
asbasbasbag69
(g85
g71
NtRp401
(dp402
g74
(dp403
sg83
g271
sg76
(lp404
g69
(g90
g71
NtRp405
(dp406
g74
(dp407
g94
g95
ssg83
g401
sg76
(lp408
S'secure'
p409
asbag69
(g90
g71
NtRp410
(dp411
g74
(dp412
g101
g102
ssg83
g401
sg76
(lp413
S':'
asbag69
(g90
g71
NtRp414
(dp415
g74
(dp416
sg83
g401
sg76
(lp417
g69
(g70
g71
NtRp418
(dp419
g74
(dp420
g82
I3
ssg83
g414
sg76
(lp421
S''
asbasbasbag69
(g85
g71
NtRp422
(dp423
g74
(dp424
sg83
g271
sg76
(lp425
g69
(g90
g71
NtRp426
(dp427
g74
(dp428
g94
g95
ssg83
g422
sg76
(lp429
S'version'
p430
asbag69
(g90
g71
NtRp431
(dp432
g74
(dp433
g101
g102
ssg83
g422
sg76
(lp434
S':'
asbag69
(g90
g71
NtRp435
(dp436
g74
(dp437
sg83
g422
sg76
(lp438
g69
(g70
g71
NtRp439
(dp440
g74
(dp441
g82
I3
ssg83
g435
sg76
(lp442
S''
asbasbasbasbasbasbasbag69
(g85
g71
NtRp443
(dp444
g74
(dp445
sg83
g246
sg76
(lp446
g69
(g90
g71
NtRp447
(dp448
g74
(dp449
g94
g95
ssg83
g443
sg76
(lp450
S'session_id_init'
p451
asbag69
(g90
g71
NtRp452
(dp453
g74
(dp454
g101
g102
ssg83
g443
sg76
(lp455
S':'
asbag69
(g90
g71
NtRp456
(dp457
g74
(dp458
sg83
g443
sg76
(lp459
g69
(g70
g71
NtRp460
(dp461
g74
(dp462
g82
I4
ssg83
g456
sg76
(lp463
g69
(g78
g71
NtRp464
(dp465
g74
(dp466
g82
I3
ssg83
Nsg76
(lp467
g69
(g85
g71
NtRp468
(dp469
g74
(dp470
sg83
g464
sg76
(lp471
g69
(g90
g71
NtRp472
(dp473
g74
(dp474
g94
g95
ssg83
g468
sg76
(lp475
g283
asbag69
(g90
g71
NtRp476
(dp477
g74
(dp478
g101
g102
ssg83
g468
sg76
(lp479
S':'
asbag69
(g90
g71
NtRp480
(dp481
g74
(dp482
sg83
g468
sg76
(lp483
g69
(g70
g71
NtRp484
(dp485
g74
(dp486
g82
I3
ssg83
g480
sg76
(lp487
S''
asbasbasbag69
(g85
g71
NtRp488
(dp489
g74
(dp490
sg83
g464
sg76
(lp491
g69
(g90
g71
NtRp492
(dp493
g74
(dp494
g94
g95
ssg83
g488
sg76
(lp495
g304
asbag69
(g90
g71
NtRp496
(dp497
g74
(dp498
g101
g102
ssg83
g488
sg76
(lp499
S':'
asbag69
(g90
g71
NtRp500
(dp501
g74
(dp502
sg83
g488
sg76
(lp503
g69
(g70
g71
NtRp504
(dp505
g74
(dp506
g82
I3
ssg83
g500
sg76
(lp507
S''
asbasbasbag69
(g85
g71
NtRp508
(dp509
g74
(dp510
sg83
g464
sg76
(lp511
g69
(g90
g71
NtRp512
(dp513
g74
(dp514
g94
g95
ssg83
g508
sg76
(lp515
g325
asbag69
(g90
g71
NtRp516
(dp517
g74
(dp518
g101
g102
ssg83
g508
sg76
(lp519
S':'
asbag69
(g90
g71
NtRp520
(dp521
g74
(dp522
sg83
g508
sg76
(lp523
g69
(g70
g71
NtRp524
(dp525
g74
(dp526
g82
I3
ssg83
g520
sg76
(lp527
S''
asbasbasbag69
(g85
g71
NtRp528
(dp529
g74
(dp530
sg83
g464
sg76
(lp531
g69
(g90
g71
NtRp532
(dp533
g74
(dp534
g94
g95
ssg83
g528
sg76
(lp535
g346
asbag69
(g90
g71
NtRp536
(dp537
g74
(dp538
g101
g102
ssg83
g528
sg76
(lp539
S':'
asbag69
(g90
g71
NtRp540
(dp541
g74
(dp542
sg83
g528
sg76
(lp543
g69
(g70
g71
NtRp544
(dp545
g74
(dp546
g82
I3
ssg83
g540
sg76
(lp547
S''
asbasbasbag69
(g85
g71
NtRp548
(dp549
g74
(dp550
sg83
g464
sg76
(lp551
g69
(g90
g71
NtRp552
(dp553
g74
(dp554
g94
g95
ssg83
g548
sg76
(lp555
g367
asbag69
(g90
g71
NtRp556
(dp557
g74
(dp558
g101
g102
ssg83
g548
sg76
(lp559
S':'
asbag69
(g90
g71
NtRp560
(dp561
g74
(dp562
sg83
g548
sg76
(lp563
g69
(g70
g71
NtRp564
(dp565
g74
(dp566
g82
I3
ssg83
g560
sg76
(lp567
S''
asbasbasbag69
(g85
g71
NtRp568
(dp569
g74
(dp570
sg83
g464
sg76
(lp571
g69
(g90
g71
NtRp572
(dp573
g74
(dp574
g94
g95
ssg83
g568
sg76
(lp575
g388
asbag69
(g90
g71
NtRp576
(dp577
g74
(dp578
g101
g102
ssg83
g568
sg76
(lp579
S':'
asbag69
(g90
g71
NtRp580
(dp581
g74
(dp582
sg83
g568
sg76
(lp583
g69
(g70
g71
NtRp584
(dp585
g74
(dp586
g82
I3
ssg83
g580
sg76
(lp587
S''
asbasbasbag69
(g85
g71
NtRp588
(dp589
g74
(dp590
sg83
g464
sg76
(lp591
g69
(g90
g71
NtRp592
(dp593
g74
(dp594
g94
g95
ssg83
g588
sg76
(lp595
g409
asbag69
(g90
g71
NtRp596
(dp597
g74
(dp598
g101
g102
ssg83
g588
sg76
(lp599
S':'
asbag69
(g90
g71
NtRp600
(dp601
g74
(dp602
sg83
g588
sg76
(lp603
g69
(g70
g71
NtRp604
(dp605
g74
(dp606
g82
I3
ssg83
g600
sg76
(lp607
S''
asbasbasbag69
(g85
g71
NtRp608
(dp609
g74
(dp610
sg83
g464
sg76
(lp611
g69
(g90
g71
NtRp612
(dp613
g74
(dp614
g94
g95
ssg83
g608
sg76
(lp615
g430
asbag69
(g90
g71
NtRp616
(dp617
g74
(dp618
g101
g102
ssg83
g608
sg76
(lp619
S':'
asbag69
(g90
g71
NtRp620
(dp621
g74
(dp622
sg83
g608
sg76
(lp623
g69
(g70
g71
NtRp624
(dp625
g74
(dp626
g82
I3
ssg83
g620
sg76
(lp627
S''
asbasbasbasbasbasbasbasbasbasbasbag69
(g85
g71
NtRp628
(dp629
g74
(dp630
sg83
g79
sg76
(lp631
g69
(g90
g71
NtRp632
(dp633
g74
(dp634
g94
g95
ssg83
g628
sg76
(lp635
S'env'
p636
asbag69
(g90
g71
NtRp637
(dp638
g74
(dp639
g101
g102
ssg83
g628
sg76
(lp640
S':'
asbag69
(g90
g71
NtRp641
(dp642
g74
(dp643
sg83
g628
sg76
(lp644
g69
(g70
g71
NtRp645
(dp646
g74
(dp647
g82
I5
ssg83
g641
sg76
(lp648
g69
(g78
g71
NtRp649
(dp650
g74
(dp651
g82
I4
ssg83
Nsg76
(lp652
g69
(g85
g71
NtRp653
(dp654
g74
(dp655
sg83
g649
sg76
(lp656
g69
(g90
g71
NtRp657
(dp658
g74
(dp659
g94
g95
ssg83
g653
sg76
(lp660
S'app_folders'
p661
asbag69
(g90
g71
NtRp662
(dp663
g74
(dp664
g101
g102
ssg83
g653
sg76
(lp665
S':'
asbag69
(g90
g71
NtRp666
(dp667
g74
(dp668
sg83
g653
sg76
(lp669
g69
(g70
g71
NtRp670
(dp671
g74
(dp672
g82
I4
ssg83
g666
sg76
(lp673
S"set(['c:\\\\Users\\\\Jorge\\\\Downloads\\\\web2py_src\\\\web2py\\\\applications\\\\admin\\\\', 'c:\\\\Users\\\\Jorge\\\\Downloads\\\\web2py_src\\\\web2py\\\\applications\\\\init\\\\'])"
p674
asbasbasbag69
(g85
g71
NtRp675
(dp676
g74
(dp677
sg83
g649
sg76
(lp678
g69
(g90
g71
NtRp679
(dp680
g74
(dp681
g94
g95
ssg83
g675
sg76
(lp682
S'applications_parent'
p683
asbag69
(g90
g71
NtRp684
(dp685
g74
(dp686
g101
g102
ssg83
g675
sg76
(lp687
S':'
asbag69
(g90
g71
NtRp688
(dp689
g74
(dp690
sg83
g675
sg76
(lp691
g69
(g70
g71
NtRp692
(dp693
g74
(dp694
g82
I4
ssg83
g688
sg76
(lp695
S'c:\\Users\\Jorge\\Downloads\\web2py_src\\web2py'
p696
asbasbasbag69
(g85
g71
NtRp697
(dp698
g74
(dp699
sg83
g649
sg76
(lp700
g69
(g90
g71
NtRp701
(dp702
g74
(dp703
g94
g95
ssg83
g697
sg76
(lp704
S'cmd_args'
p705
asbag69
(g90
g71
NtRp706
(dp707
g74
(dp708
g101
g102
ssg83
g697
sg76
(lp709
S':'
asbag69
(g90
g71
NtRp710
(dp711
g74
(dp712
sg83
g697
sg76
(lp713
g69
(g70
g71
NtRp714
(dp715
g74
(dp716
g82
I4
ssg83
g710
sg76
(lp717
g69
(g78
g71
NtRp718
(dp719
g74
(dp720
g82
I3
ssg83
Nsg76
(lp721
sbasbasbasbag69
(g85
g71
NtRp722
(dp723
g74
(dp724
sg83
g649
sg76
(lp725
g69
(g90
g71
NtRp726
(dp727
g74
(dp728
g94
g95
ssg83
g722
sg76
(lp729
S'cmd_options'
p730
asbag69
(g90
g71
NtRp731
(dp732
g74
(dp733
g101
g102
ssg83
g722
sg76
(lp734
S':'
asbag69
(g90
g71
NtRp735
(dp736
g74
(dp737
sg83
g722
sg76
(lp738
g69
(g70
g71
NtRp739
(dp740
g74
(dp741
g82
I4
ssg83
g735
sg76
(lp742
S"<Values at 0x3d817c8: {'verbose': False, 'ip': '127.0.0.1', 'shutdown_timeout': 5, 'taskbar': False, 'nocron': False, 'pid_filename': 'httpserver.pid', 'maxthreads': None, 'softcron': False, 'server_name': 'Jorge-PC', 'bpython': False, 'nogui': False, 'port': 8000, 'extcron': False, 'debuglevel': 30, 'test': None, 'folder': 'c:\\\\Users\\\\Jorge\\\\Downloads\\\\web2py_src\\\\web2py', 'config': '', 'import_models': False, 'winservice': '', 'shell': None, 'run': '', 'log_filename': 'httpserver.log', 'args': [''], 'socket_timeout': 5, 'ssl_ca_certificate': None, 'scheduler': None, 'profiler_filename': None, 'ssl_private_key': '', 'password': '<ask>', 'request_queue_size': 5, 'ssl_certificate': '', 'cronjob': False, 'numthreads': None, 'quiet': False, 'interfaces': None, 'minthreads': None, 'timeout': 10, 'plain': False, 'nobanner': False}>"
p743
asbasbasbag69
(g85
g71
NtRp744
(dp745
g74
(dp746
sg83
g649
sg76
(lp747
g69
(g90
g71
NtRp748
(dp749
g74
(dp750
g94
g95
ssg83
g744
sg76
(lp751
S'db_sessions'
p752
asbag69
(g90
g71
NtRp753
(dp754
g74
(dp755
g101
g102
ssg83
g744
sg76
(lp756
S':'
asbag69
(g90
g71
NtRp757
(dp758
g74
(dp759
sg83
g744
sg76
(lp760
g69
(g70
g71
NtRp761
(dp762
g74
(dp763
g82
I4
ssg83
g757
sg76
(lp764
S'set([])'
p765
asbasbasbag69
(g85
g71
NtRp766
(dp767
g74
(dp768
sg83
g649
sg76
(lp769
g69
(g90
g71
NtRp770
(dp771
g74
(dp772
g94
g95
ssg83
g766
sg76
(lp773
S'debugging'
p774
asbag69
(g90
g71
NtRp775
(dp776
g74
(dp777
g101
g102
ssg83
g766
sg76
(lp778
S':'
asbag69
(g90
g71
NtRp779
(dp780
g74
(dp781
sg83
g766
sg76
(lp782
g69
(g70
g71
NtRp783
(dp784
g74
(dp785
g82
I4
ssg83
g779
sg76
(lp786
g112
asbasbasbag69
(g85
g71
NtRp787
(dp788
g74
(dp789
sg83
g649
sg76
(lp790
g69
(g90
g71
NtRp791
(dp792
g74
(dp793
g94
g95
ssg83
g787
sg76
(lp794
S'gluon_parent'
p795
asbag69
(g90
g71
NtRp796
(dp797
g74
(dp798
g101
g102
ssg83
g787
sg76
(lp799
S':'
asbag69
(g90
g71
NtRp800
(dp801
g74
(dp802
sg83
g787
sg76
(lp803
g69
(g70
g71
NtRp804
(dp805
g74
(dp806
g82
I4
ssg83
g800
sg76
(lp807
S'c:\\Users\\Jorge\\Downloads\\web2py_src\\web2py'
p808
asbasbasbag69
(g85
g71
NtRp809
(dp810
g74
(dp811
sg83
g649
sg76
(lp812
g69
(g90
g71
NtRp813
(dp814
g74
(dp815
g94
g95
ssg83
g809
sg76
(lp816
S'http_accept'
p817
asbag69
(g90
g71
NtRp818
(dp819
g74
(dp820
g101
g102
ssg83
g809
sg76
(lp821
S':'
asbag69
(g90
g71
NtRp822
(dp823
g74
(dp824
sg83
g809
sg76
(lp825
g69
(g70
g71
NtRp826
(dp827
g74
(dp828
g82
I4
ssg83
g822
sg76
(lp829
S'text/html,application/xhtml+xml,application/xml;q=0.9,*/*;q=0.8'
p830
asbasbasbag69
(g85
g71
NtRp831
(dp832
g74
(dp833
sg83
g649
sg76
(lp834
g69
(g90
g71
NtRp835
(dp836
g74
(dp837
g94
g95
ssg83
g831
sg76
(lp838
S'http_accept_encoding'
p839
asbag69
(g90
g71
NtRp840
(dp841
g74
(dp842
g101
g102
ssg83
g831
sg76
(lp843
S':'
asbag69
(g90
g71
NtRp844
(dp845
g74
(dp846
sg83
g831
sg76
(lp847
g69
(g70
g71
NtRp848
(dp849
g74
(dp850
g82
I4
ssg83
g844
sg76
(lp851
S'gzip, deflate'
p852
asbasbasbag69
(g85
g71
NtRp853
(dp854
g74
(dp855
sg83
g649
sg76
(lp856
g69
(g90
g71
NtRp857
(dp858
g74
(dp859
g94
g95
ssg83
g853
sg76
(lp860
S'http_accept_language'
p861
asbag69
(g90
g71
NtRp862
(dp863
g74
(dp864
g101
g102
ssg83
g853
sg76
(lp865
S':'
asbag69
(g90
g71
NtRp866
(dp867
g74
(dp868
sg83
g853
sg76
(lp869
g69
(g70
g71
NtRp870
(dp871
g74
(dp872
g82
I4
ssg83
g866
sg76
(lp873
S'es-es,es;q=0.8,en-us;q=0.5,en;q=0.3'
p874
asbasbasbag69
(g85
g71
NtRp875
(dp876
g74
(dp877
sg83
g649
sg76
(lp878
g69
(g90
g71
NtRp879
(dp880
g74
(dp881
g94
g95
ssg83
g875
sg76
(lp882
S'http_connection'
p883
asbag69
(g90
g71
NtRp884
(dp885
g74
(dp886
g101
g102
ssg83
g875
sg76
(lp887
S':'
asbag69
(g90
g71
NtRp888
(dp889
g74
(dp890
sg83
g875
sg76
(lp891
g69
(g70
g71
NtRp892
(dp893
g74
(dp894
g82
I4
ssg83
g888
sg76
(lp895
S'keep-alive'
p896
asbasbasbag69
(g85
g71
NtRp897
(dp898
g74
(dp899
sg83
g649
sg76
(lp900
g69
(g90
g71
NtRp901
(dp902
g74
(dp903
g94
g95
ssg83
g897
sg76
(lp904
S'http_cookie'
p905
asbag69
(g90
g71
NtRp906
(dp907
g74
(dp908
g101
g102
ssg83
g897
sg76
(lp909
S':'
asbag69
(g90
g71
NtRp910
(dp911
g74
(dp912
sg83
g897
sg76
(lp913
g69
(g70
g71
NtRp914
(dp915
g74
(dp916
g82
I4
ssg83
g910
sg76
(lp917
S'session_id_init=127.0.0.1-66e156be-9dc8-4ace-8e89-ad9e90c7093a; session_id_admin=127.0.0.1-fa8bfd42-36d2-4d6d-bc0f-7680a49aae8c'
p918
asbasbasbag69
(g85
g71
NtRp919
(dp920
g74
(dp921
sg83
g649
sg76
(lp922
g69
(g90
g71
NtRp923
(dp924
g74
(dp925
g94
g95
ssg83
g919
sg76
(lp926
S'http_host'
p927
asbag69
(g90
g71
NtRp928
(dp929
g74
(dp930
g101
g102
ssg83
g919
sg76
(lp931
S':'
asbag69
(g90
g71
NtRp932
(dp933
g74
(dp934
sg83
g919
sg76
(lp935
g69
(g70
g71
NtRp936
(dp937
g74
(dp938
g82
I4
ssg83
g932
sg76
(lp939
S'127.0.0.1:8000'
p940
asbasbasbag69
(g85
g71
NtRp941
(dp942
g74
(dp943
sg83
g649
sg76
(lp944
g69
(g90
g71
NtRp945
(dp946
g74
(dp947
g94
g95
ssg83
g941
sg76
(lp948
S'http_user_agent'
p949
asbag69
(g90
g71
NtRp950
(dp951
g74
(dp952
g101
g102
ssg83
g941
sg76
(lp953
S':'
asbag69
(g90
g71
NtRp954
(dp955
g74
(dp956
sg83
g941
sg76
(lp957
g69
(g70
g71
NtRp958
(dp959
g74
(dp960
g82
I4
ssg83
g954
sg76
(lp961
S'Mozilla/5.0 (Windows NT 6.1; WOW64; rv:11.0) Gecko/20100101 Firefox/11.0'
p962
asbasbasbag69
(g85
g71
NtRp963
(dp964
g74
(dp965
sg83
g649
sg76
(lp966
g69
(g90
g71
NtRp967
(dp968
g74
(dp969
g94
g95
ssg83
g963
sg76
(lp970
S'is_jython'
p971
asbag69
(g90
g71
NtRp972
(dp973
g74
(dp974
g101
g102
ssg83
g963
sg76
(lp975
S':'
asbag69
(g90
g71
NtRp976
(dp977
g74
(dp978
sg83
g963
sg76
(lp979
g69
(g70
g71
NtRp980
(dp981
g74
(dp982
g82
I4
ssg83
g976
sg76
(lp983
g112
asbasbasbag69
(g85
g71
NtRp984
(dp985
g74
(dp986
sg83
g649
sg76
(lp987
g69
(g90
g71
NtRp988
(dp989
g74
(dp990
g94
g95
ssg83
g984
sg76
(lp991
S'is_pypy'
p992
asbag69
(g90
g71
NtRp993
(dp994
g74
(dp995
g101
g102
ssg83
g984
sg76
(lp996
S':'
asbag69
(g90
g71
NtRp997
(dp998
g74
(dp999
sg83
g984
sg76
(lp1000
g69
(g70
g71
NtRp1001
(dp1002
g74
(dp1003
g82
I4
ssg83
g997
sg76
(lp1004
g112
asbasbasbag69
(g85
g71
NtRp1005
(dp1006
g74
(dp1007
sg83
g649
sg76
(lp1008
g69
(g90
g71
NtRp1009
(dp1010
g74
(dp1011
g94
g95
ssg83
g1005
sg76
(lp1012
S'path_info'
p1013
asbag69
(g90
g71
NtRp1014
(dp1015
g74
(dp1016
g101
g102
ssg83
g1005
sg76
(lp1017
S':'
asbag69
(g90
g71
NtRp1018
(dp1019
g74
(dp1020
sg83
g1005
sg76
(lp1021
g69
(g70
g71
NtRp1022
(dp1023
g74
(dp1024
g82
I4
ssg83
g1018
sg76
(lp1025
S'/'
asbasbasbag69
(g85
g71
NtRp1026
(dp1027
g74
(dp1028
sg83
g649
sg76
(lp1029
g69
(g90
g71
NtRp1030
(dp1031
g74
(dp1032
g94
g95
ssg83
g1026
sg76
(lp1033
S'query_string'
p1034
asbag69
(g90
g71
NtRp1035
(dp1036
g74
(dp1037
g101
g102
ssg83
g1026
sg76
(lp1038
S':'
asbag69
(g90
g71
NtRp1039
(dp1040
g74
(dp1041
sg83
g1026
sg76
(lp1042
g69
(g70
g71
NtRp1043
(dp1044
g74
(dp1045
g82
I4
ssg83
g1039
sg76
(lp1046
S''
asbasbasbag69
(g85
g71
NtRp1047
(dp1048
g74
(dp1049
sg83
g649
sg76
(lp1050
g69
(g90
g71
NtRp1051
(dp1052
g74
(dp1053
g94
g95
ssg83
g1047
sg76
(lp1054
S'remote_addr'
p1055
asbag69
(g90
g71
NtRp1056
(dp1057
g74
(dp1058
g101
g102
ssg83
g1047
sg76
(lp1059
S':'
asbag69
(g90
g71
NtRp1060
(dp1061
g74
(dp1062
sg83
g1047
sg76
(lp1063
g69
(g70
g71
NtRp1064
(dp1065
g74
(dp1066
g82
I4
ssg83
g1060
sg76
(lp1067
g202
asbasbasbag69
(g85
g71
NtRp1068
(dp1069
g74
(dp1070
sg83
g649
sg76
(lp1071
g69
(g90
g71
NtRp1072
(dp1073
g74
(dp1074
g94
g95
ssg83
g1068
sg76
(lp1075
S'remote_port'
p1076
asbag69
(g90
g71
NtRp1077
(dp1078
g74
(dp1079
g101
g102
ssg83
g1068
sg76
(lp1080
S':'
asbag69
(g90
g71
NtRp1081
(dp1082
g74
(dp1083
sg83
g1068
sg76
(lp1084
g69
(g70
g71
NtRp1085
(dp1086
g74
(dp1087
g82
I4
ssg83
g1081
sg76
(lp1088
S'49470'
p1089
asbasbasbag69
(g85
g71
NtRp1090
(dp1091
g74
(dp1092
sg83
g649
sg76
(lp1093
g69
(g90
g71
NtRp1094
(dp1095
g74
(dp1096
g94
g95
ssg83
g1090
sg76
(lp1097
S'request_method'
p1098
asbag69
(g90
g71
NtRp1099
(dp1100
g74
(dp1101
g101
g102
ssg83
g1090
sg76
(lp1102
S':'
asbag69
(g90
g71
NtRp1103
(dp1104
g74
(dp1105
sg83
g1090
sg76
(lp1106
g69
(g70
g71
NtRp1107
(dp1108
g74
(dp1109
g82
I4
ssg83
g1103
sg76
(lp1110
S'GET'
p1111
asbasbasbag69
(g85
g71
NtRp1112
(dp1113
g74
(dp1114
sg83
g649
sg76
(lp1115
g69
(g90
g71
NtRp1116
(dp1117
g74
(dp1118
g94
g95
ssg83
g1112
sg76
(lp1119
S'script_name'
p1120
asbag69
(g90
g71
NtRp1121
(dp1122
g74
(dp1123
g101
g102
ssg83
g1112
sg76
(lp1124
S':'
asbag69
(g90
g71
NtRp1125
(dp1126
g74
(dp1127
sg83
g1112
sg76
(lp1128
g69
(g70
g71
NtRp1129
(dp1130
g74
(dp1131
g82
I4
ssg83
g1125
sg76
(lp1132
S''
asbasbasbag69
(g85
g71
NtRp1133
(dp1134
g74
(dp1135
sg83
g649
sg76
(lp1136
g69
(g90
g71
NtRp1137
(dp1138
g74
(dp1139
g94
g95
ssg83
g1133
sg76
(lp1140
S'server_name'
p1141
asbag69
(g90
g71
NtRp1142
(dp1143
g74
(dp1144
g101
g102
ssg83
g1133
sg76
(lp1145
S':'
asbag69
(g90
g71
NtRp1146
(dp1147
g74
(dp1148
sg83
g1133
sg76
(lp1149
g69
(g70
g71
NtRp1150
(dp1151
g74
(dp1152
g82
I4
ssg83
g1146
sg76
(lp1153
S'Jorge-PC'
p1154
asbasbasbag69
(g85
g71
NtRp1155
(dp1156
g74
(dp1157
sg83
g649
sg76
(lp1158
g69
(g90
g71
NtRp1159
(dp1160
g74
(dp1161
g94
g95
ssg83
g1155
sg76
(lp1162
S'server_port'
p1163
asbag69
(g90
g71
NtRp1164
(dp1165
g74
(dp1166
g101
g102
ssg83
g1155
sg76
(lp1167
S':'
asbag69
(g90
g71
NtRp1168
(dp1169
g74
(dp1170
sg83
g1155
sg76
(lp1171
g69
(g70
g71
NtRp1172
(dp1173
g74
(dp1174
g82
I4
ssg83
g1168
sg76
(lp1175
S'8000'
p1176
asbasbasbag69
(g85
g71
NtRp1177
(dp1178
g74
(dp1179
sg83
g649
sg76
(lp1180
g69
(g90
g71
NtRp1181
(dp1182
g74
(dp1183
g94
g95
ssg83
g1177
sg76
(lp1184
S'server_protocol'
p1185
asbag69
(g90
g71
NtRp1186
(dp1187
g74
(dp1188
g101
g102
ssg83
g1177
sg76
(lp1189
S':'
asbag69
(g90
g71
NtRp1190
(dp1191
g74
(dp1192
sg83
g1177
sg76
(lp1193
g69
(g70
g71
NtRp1194
(dp1195
g74
(dp1196
g82
I4
ssg83
g1190
sg76
(lp1197
S'HTTP/1.1'
p1198
asbasbasbag69
(g85
g71
NtRp1199
(dp1200
g74
(dp1201
sg83
g649
sg76
(lp1202
g69
(g90
g71
NtRp1203
(dp1204
g74
(dp1205
g94
g95
ssg83
g1199
sg76
(lp1206
S'server_software'
p1207
asbag69
(g90
g71
NtRp1208
(dp1209
g74
(dp1210
g101
g102
ssg83
g1199
sg76
(lp1211
S':'
asbag69
(g90
g71
NtRp1212
(dp1213
g74
(dp1214
sg83
g1199
sg76
(lp1215
g69
(g70
g71
NtRp1216
(dp1217
g74
(dp1218
g82
I4
ssg83
g1212
sg76
(lp1219
S'Rocket 1.2.4'
p1220
asbasbasbag69
(g85
g71
NtRp1221
(dp1222
g74
(dp1223
sg83
g649
sg76
(lp1224
g69
(g90
g71
NtRp1225
(dp1226
g74
(dp1227
g94
g95
ssg83
g1221
sg76
(lp1228
S'web2py_crontype'
p1229
asbag69
(g90
g71
NtRp1230
(dp1231
g74
(dp1232
g101
g102
ssg83
g1221
sg76
(lp1233
S':'
asbag69
(g90
g71
NtRp1234
(dp1235
g74
(dp1236
sg83
g1221
sg76
(lp1237
g69
(g70
g71
NtRp1238
(dp1239
g74
(dp1240
g82
I4
ssg83
g1234
sg76
(lp1241
S'hard'
p1242
asbasbasbag69
(g85
g71
NtRp1243
(dp1244
g74
(dp1245
sg83
g649
sg76
(lp1246
g69
(g90
g71
NtRp1247
(dp1248
g74
(dp1249
g94
g95
ssg83
g1243
sg76
(lp1250
S'web2py_path'
p1251
asbag69
(g90
g71
NtRp1252
(dp1253
g74
(dp1254
g101
g102
ssg83
g1243
sg76
(lp1255
S':'
asbag69
(g90
g71
NtRp1256
(dp1257
g74
(dp1258
sg83
g1243
sg76
(lp1259
g69
(g70
g71
NtRp1260
(dp1261
g74
(dp1262
g82
I4
ssg83
g1256
sg76
(lp1263
g696
asbasbasbag69
(g85
g71
NtRp1264
(dp1265
g74
(dp1266
sg83
g649
sg76
(lp1267
g69
(g90
g71
NtRp1268
(dp1269
g74
(dp1270
g94
g95
ssg83
g1264
sg76
(lp1271
S'web2py_version'
p1272
asbag69
(g90
g71
NtRp1273
(dp1274
g74
(dp1275
g101
g102
ssg83
g1264
sg76
(lp1276
S':'
asbag69
(g90
g71
NtRp1277
(dp1278
g74
(dp1279
sg83
g1264
sg76
(lp1280
g69
(g70
g71
NtRp1281
(dp1282
g74
(dp1283
g82
I4
ssg83
g1277
sg76
(lp1284
g69
(g78
g71
NtRp1285
(dp1286
g74
(dp1287
g82
I3
ssg83
Nsg76
(lp1288
g69
(g85
g71
NtRp1289
(dp1290
g74
(dp1291
sg83
g1285
sg76
(lp1292
g69
(g90
g71
NtRp1293
(dp1294
g74
(dp1295
sg83
g1289
sg76
(lp1296
g69
(g70
g71
NtRp1297
(dp1298
g74
(dp1299
g82
I3
ssg83
g1293
sg76
(lp1300
S'1'
asbasbasbag69
(g85
g71
NtRp1301
(dp1302
g74
(dp1303
sg83
g1285
sg76
(lp1304
g69
(g90
g71
NtRp1305
(dp1306
g74
(dp1307
sg83
g1301
sg76
(lp1308
g69
(g70
g71
NtRp1309
(dp1310
g74
(dp1311
g82
I3
ssg83
g1305
sg76
(lp1312
S'99'
p1313
asbasbasbag69
(g85
g71
NtRp1314
(dp1315
g74
(dp1316
sg83
g1285
sg76
(lp1317
g69
(g90
g71
NtRp1318
(dp1319
g74
(dp1320
sg83
g1314
sg76
(lp1321
g69
(g70
g71
NtRp1322
(dp1323
g74
(dp1324
g82
I3
ssg83
g1318
sg76
(lp1325
S'7'
asbasbasbag69
(g85
g71
NtRp1326
(dp1327
g74
(dp1328
sg83
g1285
sg76
(lp1329
g69
(g90
g71
NtRp1330
(dp1331
g74
(dp1332
sg83
g1326
sg76
(lp1333
g69
(g70
g71
NtRp1334
(dp1335
g74
(dp1336
g82
I3
ssg83
g1330
sg76
(lp1337
S'datetime.datetime(2012, 3, 4, 22, 12, 8)'
p1338
asbasbasbag69
(g85
g71
NtRp1339
(dp1340
g74
(dp1341
sg83
g1285
sg76
(lp1342
g69
(g90
g71
NtRp1343
(dp1344
g74
(dp1345
sg83
g1339
sg76
(lp1346
g69
(g70
g71
NtRp1347
(dp1348
g74
(dp1349
g82
I3
ssg83
g1343
sg76
(lp1350
S'stable'
p1351
asbasbasbasbasbasbasbag69
(g85
g71
NtRp1352
(dp1353
g74
(dp1354
sg83
g649
sg76
(lp1355
g69
(g90
g71
NtRp1356
(dp1357
g74
(dp1358
g94
g95
ssg83
g1352
sg76
(lp1359
S'wsgi_errors'
p1360
asbag69
(g90
g71
NtRp1361
(dp1362
g74
(dp1363
g101
g102
ssg83
g1352
sg76
(lp1364
S':'
asbag69
(g90
g71
NtRp1365
(dp1366
g74
(dp1367
sg83
g1352
sg76
(lp1368
g69
(g70
g71
NtRp1369
(dp1370
g74
(dp1371
g82
I4
ssg83
g1365
sg76
(lp1372
S"<open file '<stderr>', mode 'w' at 0x0000000001DB61E0>"
p1373
asbasbasbag69
(g85
g71
NtRp1374
(dp1375
g74
(dp1376
sg83
g649
sg76
(lp1377
g69
(g90
g71
NtRp1378
(dp1379
g74
(dp1380
g94
g95
ssg83
g1374
sg76
(lp1381
S'wsgi_file_wrapper'
p1382
asbag69
(g90
g71
NtRp1383
(dp1384
g74
(dp1385
g101
g102
ssg83
g1374
sg76
(lp1386
S':'
asbag69
(g90
g71
NtRp1387
(dp1388
g74
(dp1389
sg83
g1374
sg76
(lp1390
g69
(g70
g71
NtRp1391
(dp1392
g74
(dp1393
g82
I4
ssg83
g1387
sg76
(lp1394
S'<class wsgiref.util.FileWrapper at 0x000000000385D288>'
p1395
asbasbasbag69
(g85
g71
NtRp1396
(dp1397
g74
(dp1398
sg83
g649
sg76
(lp1399
g69
(g90
g71
NtRp1400
(dp1401
g74
(dp1402
g94
g95
ssg83
g1396
sg76
(lp1403
S'wsgi_input'
p1404
asbag69
(g90
g71
NtRp1405
(dp1406
g74
(dp1407
g101
g102
ssg83
g1396
sg76
(lp1408
S':'
asbag69
(g90
g71
NtRp1409
(dp1410
g74
(dp1411
sg83
g1396
sg76
(lp1412
g69
(g70
g71
NtRp1413
(dp1414
g74
(dp1415
g82
I4
ssg83
g1409
sg76
(lp1416
S'<socket._fileobject object at 0x0000000004A799A8>'
p1417
asbasbasbag69
(g85
g71
NtRp1418
(dp1419
g74
(dp1420
sg83
g649
sg76
(lp1421
g69
(g90
g71
NtRp1422
(dp1423
g74
(dp1424
g94
g95
ssg83
g1418
sg76
(lp1425
S'wsgi_multiprocess'
p1426
asbag69
(g90
g71
NtRp1427
(dp1428
g74
(dp1429
g101
g102
ssg83
g1418
sg76
(lp1430
S':'
asbag69
(g90
g71
NtRp1431
(dp1432
g74
(dp1433
sg83
g1418
sg76
(lp1434
g69
(g70
g71
NtRp1435
(dp1436
g74
(dp1437
g82
I4
ssg83
g1431
sg76
(lp1438
g112
asbasbasbag69
(g85
g71
NtRp1439
(dp1440
g74
(dp1441
sg83
g649
sg76
(lp1442
g69
(g90
g71
NtRp1443
(dp1444
g74
(dp1445
g94
g95
ssg83
g1439
sg76
(lp1446
S'wsgi_multithread'
p1447
asbag69
(g90
g71
NtRp1448
(dp1449
g74
(dp1450
g101
g102
ssg83
g1439
sg76
(lp1451
S':'
asbag69
(g90
g71
NtRp1452
(dp1453
g74
(dp1454
sg83
g1439
sg76
(lp1455
g69
(g70
g71
NtRp1456
(dp1457
g74
(dp1458
g82
I4
ssg83
g1452
sg76
(lp1459
S'True'
p1460
asbasbasbag69
(g85
g71
NtRp1461
(dp1462
g74
(dp1463
sg83
g649
sg76
(lp1464
g69
(g90
g71
NtRp1465
(dp1466
g74
(dp1467
g94
g95
ssg83
g1461
sg76
(lp1468
S'wsgi_run_once'
p1469
asbag69
(g90
g71
NtRp1470
(dp1471
g74
(dp1472
g101
g102
ssg83
g1461
sg76
(lp1473
S':'
asbag69
(g90
g71
NtRp1474
(dp1475
g74
(dp1476
sg83
g1461
sg76
(lp1477
g69
(g70
g71
NtRp1478
(dp1479
g74
(dp1480
g82
I4
ssg83
g1474
sg76
(lp1481
g112
asbasbasbag69
(g85
g71
NtRp1482
(dp1483
g74
(dp1484
sg83
g649
sg76
(lp1485
g69
(g90
g71
NtRp1486
(dp1487
g74
(dp1488
g94
g95
ssg83
g1482
sg76
(lp1489
S'wsgi_url_scheme'
p1490
asbag69
(g90
g71
NtRp1491
(dp1492
g74
(dp1493
g101
g102
ssg83
g1482
sg76
(lp1494
S':'
asbag69
(g90
g71
NtRp1495
(dp1496
g74
(dp1497
sg83
g1482
sg76
(lp1498
g69
(g70
g71
NtRp1499
(dp1500
g74
(dp1501
g82
I4
ssg83
g1495
sg76
(lp1502
S'http'
p1503
asbasbasbag69
(g85
g71
NtRp1504
(dp1505
g74
(dp1506
sg83
g649
sg76
(lp1507
g69
(g90
g71
NtRp1508
(dp1509
g74
(dp1510
g94
g95
ssg83
g1504
sg76
(lp1511
S'wsgi_version'
p1512
asbag69
(g90
g71
NtRp1513
(dp1514
g74
(dp1515
g101
g102
ssg83
g1504
sg76
(lp1516
S':'
asbag69
(g90
g71
NtRp1517
(dp1518
g74
(dp1519
sg83
g1504
sg76
(lp1520
g69
(g70
g71
NtRp1521
(dp1522
g74
(dp1523
g82
I4
ssg83
g1517
sg76
(lp1524
g69
(g78
g71
NtRp1525
(dp1526
g74
(dp1527
g82
I3
ssg83
Nsg76
(lp1528
g69
(g85
g71
NtRp1529
(dp1530
g74
(dp1531
sg83
g1525
sg76
(lp1532
g69
(g90
g71
NtRp1533
(dp1534
g74
(dp1535
sg83
g1529
sg76
(lp1536
g69
(g70
g71
NtRp1537
(dp1538
g74
(dp1539
g82
I3
ssg83
g1533
sg76
(lp1540
S'1'
asbasbasbag69
(g85
g71
NtRp1541
(dp1542
g74
(dp1543
sg83
g1525
sg76
(lp1544
g69
(g90
g71
NtRp1545
(dp1546
g74
(dp1547
sg83
g1541
sg76
(lp1548
g69
(g70
g71
NtRp1549
(dp1550
g74
(dp1551
g82
I3
ssg83
g1545
sg76
(lp1552
S'0'
asbasbasbasbasbasbasbasbasbasbasbag69
(g85
g71
NtRp1553
(dp1554
g74
(dp1555
sg83
g79
sg76
(lp1556
g69
(g90
g71
NtRp1557
(dp1558
g74
(dp1559
g94
g95
ssg83
g1553
sg76
(lp1560
S'extension'
p1561
asbag69
(g90
g71
NtRp1562
(dp1563
g74
(dp1564
g101
g102
ssg83
g1553
sg76
(lp1565
S':'
asbag69
(g90
g71
NtRp1566
(dp1567
g74
(dp1568
sg83
g1553
sg76
(lp1569
g69
(g70
g71
NtRp1570
(dp1571
g74
(dp1572
g82
I5
ssg83
g1566
sg76
(lp1573
S'html'
p1574
asbasbasbag69
(g85
g71
NtRp1575
(dp1576
g74
(dp1577
sg83
g79
sg76
(lp1578
g69
(g90
g71
NtRp1579
(dp1580
g74
(dp1581
g94
g95
ssg83
g1575
sg76
(lp1582
S'folder'
p1583
asbag69
(g90
g71
NtRp1584
(dp1585
g74
(dp1586
g101
g102
ssg83
g1575
sg76
(lp1587
S':'
asbag69
(g90
g71
NtRp1588
(dp1589
g74
(dp1590
sg83
g1575
sg76
(lp1591
g69
(g70
g71
NtRp1592
(dp1593
g74
(dp1594
g82
I5
ssg83
g1588
sg76
(lp1595
S'c:\\Users\\Jorge\\Downloads\\web2py_src\\web2py\\applications\\init\\'
p1596
asbasbasbag69
(g85
g71
NtRp1597
(dp1598
g74
(dp1599
sg83
g79
sg76
(lp1600
g69
(g90
g71
NtRp1601
(dp1602
g74
(dp1603
g94
g95
ssg83
g1597
sg76
(lp1604
S'function'
p1605
asbag69
(g90
g71
NtRp1606
(dp1607
g74
(dp1608
g101
g102
ssg83
g1597
sg76
(lp1609
S':'
asbag69
(g90
g71
NtRp1610
(dp1611
g74
(dp1612
sg83
g1597
sg76
(lp1613
g69
(g70
g71
NtRp1614
(dp1615
g74
(dp1616
g82
I5
ssg83
g1610
sg76
(lp1617
S'index'
p1618
asbasbasbag69
(g85
g71
NtRp1619
(dp1620
g74
(dp1621
sg83
g79
sg76
(lp1622
g69
(g90
g71
NtRp1623
(dp1624
g74
(dp1625
g94
g95
ssg83
g1619
sg76
(lp1626
S'get_vars'
p1627
asbag69
(g90
g71
NtRp1628
(dp1629
g74
(dp1630
g101
g102
ssg83
g1619
sg76
(lp1631
S':'
asbag69
(g90
g71
NtRp1632
(dp1633
g74
(dp1634
sg83
g1619
sg76
(lp1635
g69
(g70
g71
NtRp1636
(dp1637
g74
(dp1638
g82
I5
ssg83
g1632
sg76
(lp1639
g69
(g78
g71
NtRp1640
(dp1641
g74
(dp1642
g82
I4
ssg83
Nsg76
(lp1643
sbasbasbasbag69
(g85
g71
NtRp1644
(dp1645
g74
(dp1646
sg83
g79
sg76
(lp1647
g69
(g90
g71
NtRp1648
(dp1649
g74
(dp1650
g94
g95
ssg83
g1644
sg76
(lp1651
S'global_settings'
p1652
asbag69
(g90
g71
NtRp1653
(dp1654
g74
(dp1655
g101
g102
ssg83
g1644
sg76
(lp1656
S':'
asbag69
(g90
g71
NtRp1657
(dp1658
g74
(dp1659
sg83
g1644
sg76
(lp1660
g69
(g70
g71
NtRp1661
(dp1662
g74
(dp1663
g82
I5
ssg83
g1657
sg76
(lp1664
g69
(g78
g71
NtRp1665
(dp1666
g74
(dp1667
g82
I4
ssg83
Nsg76
(lp1668
g69
(g85
g71
NtRp1669
(dp1670
g74
(dp1671
sg83
g1665
sg76
(lp1672
g69
(g90
g71
NtRp1673
(dp1674
g74
(dp1675
g94
g95
ssg83
g1669
sg76
(lp1676
g661
asbag69
(g90
g71
NtRp1677
(dp1678
g74
(dp1679
g101
g102
ssg83
g1669
sg76
(lp1680
S':'
asbag69
(g90
g71
NtRp1681
(dp1682
g74
(dp1683
sg83
g1669
sg76
(lp1684
g69
(g70
g71
NtRp1685
(dp1686
g74
(dp1687
g82
I4
ssg83
g1681
sg76
(lp1688
S"set(['c:\\\\Users\\\\Jorge\\\\Downloads\\\\web2py_src\\\\web2py\\\\applications\\\\admin\\\\', 'c:\\\\Users\\\\Jorge\\\\Downloads\\\\web2py_src\\\\web2py\\\\applications\\\\init\\\\'])"
p1689
asbasbasbag69
(g85
g71
NtRp1690
(dp1691
g74
(dp1692
sg83
g1665
sg76
(lp1693
g69
(g90
g71
NtRp1694
(dp1695
g74
(dp1696
g94
g95
ssg83
g1690
sg76
(lp1697
g683
asbag69
(g90
g71
NtRp1698
(dp1699
g74
(dp1700
g101
g102
ssg83
g1690
sg76
(lp1701
S':'
asbag69
(g90
g71
NtRp1702
(dp1703
g74
(dp1704
sg83
g1690
sg76
(lp1705
g69
(g70
g71
NtRp1706
(dp1707
g74
(dp1708
g82
I4
ssg83
g1702
sg76
(lp1709
g696
asbasbasbag69
(g85
g71
NtRp1710
(dp1711
g74
(dp1712
sg83
g1665
sg76
(lp1713
g69
(g90
g71
NtRp1714
(dp1715
g74
(dp1716
g94
g95
ssg83
g1710
sg76
(lp1717
g705
asbag69
(g90
g71
NtRp1718
(dp1719
g74
(dp1720
g101
g102
ssg83
g1710
sg76
(lp1721
S':'
asbag69
(g90
g71
NtRp1722
(dp1723
g74
(dp1724
sg83
g1710
sg76
(lp1725
g69
(g70
g71
NtRp1726
(dp1727
g74
(dp1728
g82
I4
ssg83
g1722
sg76
(lp1729
g69
(g78
g71
NtRp1730
(dp1731
g74
(dp1732
g82
I3
ssg83
Nsg76
(lp1733
sbasbasbasbag69
(g85
g71
NtRp1734
(dp1735
g74
(dp1736
sg83
g1665
sg76
(lp1737
g69
(g90
g71
NtRp1738
(dp1739
g74
(dp1740
g94
g95
ssg83
g1734
sg76
(lp1741
g730
asbag69
(g90
g71
NtRp1742
(dp1743
g74
(dp1744
g101
g102
ssg83
g1734
sg76
(lp1745
S':'
asbag69
(g90
g71
NtRp1746
(dp1747
g74
(dp1748
sg83
g1734
sg76
(lp1749
g69
(g70
g71
NtRp1750
(dp1751
g74
(dp1752
g82
I4
ssg83
g1746
sg76
(lp1753
S"<Values at 0x3d817c8: {'verbose': False, 'ip': '127.0.0.1', 'shutdown_timeout': 5, 'taskbar': False, 'nocron': False, 'pid_filename': 'httpserver.pid', 'maxthreads': None, 'softcron': False, 'server_name': 'Jorge-PC', 'bpython': False, 'nogui': False, 'port': 8000, 'extcron': False, 'debuglevel': 30, 'test': None, 'folder': 'c:\\\\Users\\\\Jorge\\\\Downloads\\\\web2py_src\\\\web2py', 'config': '', 'import_models': False, 'winservice': '', 'shell': None, 'run': '', 'log_filename': 'httpserver.log', 'args': [''], 'socket_timeout': 5, 'ssl_ca_certificate': None, 'scheduler': None, 'profiler_filename': None, 'ssl_private_key': '', 'password': '<ask>', 'request_queue_size': 5, 'ssl_certificate': '', 'cronjob': False, 'numthreads': None, 'quiet': False, 'interfaces': None, 'minthreads': None, 'timeout': 10, 'plain': False, 'nobanner': False}>"
p1754
asbasbasbag69
(g85
g71
NtRp1755
(dp1756
g74
(dp1757
sg83
g1665
sg76
(lp1758
g69
(g90
g71
NtRp1759
(dp1760
g74
(dp1761
g94
g95
ssg83
g1755
sg76
(lp1762
g752
asbag69
(g90
g71
NtRp1763
(dp1764
g74
(dp1765
g101
g102
ssg83
g1755
sg76
(lp1766
S':'
asbag69
(g90
g71
NtRp1767
(dp1768
g74
(dp1769
sg83
g1755
sg76
(lp1770
g69
(g70
g71
NtRp1771
(dp1772
g74
(dp1773
g82
I4
ssg83
g1767
sg76
(lp1774
S'set([])'
p1775
asbasbasbag69
(g85
g71
NtRp1776
(dp1777
g74
(dp1778
sg83
g1665
sg76
(lp1779
g69
(g90
g71
NtRp1780
(dp1781
g74
(dp1782
g94
g95
ssg83
g1776
sg76
(lp1783
g774
asbag69
(g90
g71
NtRp1784
(dp1785
g74
(dp1786
g101
g102
ssg83
g1776
sg76
(lp1787
S':'
asbag69
(g90
g71
NtRp1788
(dp1789
g74
(dp1790
sg83
g1776
sg76
(lp1791
g69
(g70
g71
NtRp1792
(dp1793
g74
(dp1794
g82
I4
ssg83
g1788
sg76
(lp1795
g112
asbasbasbag69
(g85
g71
NtRp1796
(dp1797
g74
(dp1798
sg83
g1665
sg76
(lp1799
g69
(g90
g71
NtRp1800
(dp1801
g74
(dp1802
g94
g95
ssg83
g1796
sg76
(lp1803
g795
asbag69
(g90
g71
NtRp1804
(dp1805
g74
(dp1806
g101
g102
ssg83
g1796
sg76
(lp1807
S':'
asbag69
(g90
g71
NtRp1808
(dp1809
g74
(dp1810
sg83
g1796
sg76
(lp1811
g69
(g70
g71
NtRp1812
(dp1813
g74
(dp1814
g82
I4
ssg83
g1808
sg76
(lp1815
g808
asbasbasbag69
(g85
g71
NtRp1816
(dp1817
g74
(dp1818
sg83
g1665
sg76
(lp1819
g69
(g90
g71
NtRp1820
(dp1821
g74
(dp1822
g94
g95
ssg83
g1816
sg76
(lp1823
g971
asbag69
(g90
g71
NtRp1824
(dp1825
g74
(dp1826
g101
g102
ssg83
g1816
sg76
(lp1827
S':'
asbag69
(g90
g71
NtRp1828
(dp1829
g74
(dp1830
sg83
g1816
sg76
(lp1831
g69
(g70
g71
NtRp1832
(dp1833
g74
(dp1834
g82
I4
ssg83
g1828
sg76
(lp1835
g112
asbasbasbag69
(g85
g71
NtRp1836
(dp1837
g74
(dp1838
sg83
g1665
sg76
(lp1839
g69
(g90
g71
NtRp1840
(dp1841
g74
(dp1842
g94
g95
ssg83
g1836
sg76
(lp1843
g992
asbag69
(g90
g71
NtRp1844
(dp1845
g74
(dp1846
g101
g102
ssg83
g1836
sg76
(lp1847
S':'
asbag69
(g90
g71
NtRp1848
(dp1849
g74
(dp1850
sg83
g1836
sg76
(lp1851
g69
(g70
g71
NtRp1852
(dp1853
g74
(dp1854
g82
I4
ssg83
g1848
sg76
(lp1855
g112
asbasbasbag69
(g85
g71
NtRp1856
(dp1857
g74
(dp1858
sg83
g1665
sg76
(lp1859
g69
(g90
g71
NtRp1860
(dp1861
g74
(dp1862
g94
g95
ssg83
g1856
sg76
(lp1863
g1229
asbag69
(g90
g71
NtRp1864
(dp1865
g74
(dp1866
g101
g102
ssg83
g1856
sg76
(lp1867
S':'
asbag69
(g90
g71
NtRp1868
(dp1869
g74
(dp1870
sg83
g1856
sg76
(lp1871
g69
(g70
g71
NtRp1872
(dp1873
g74
(dp1874
g82
I4
ssg83
g1868
sg76
(lp1875
g1242
asbasbasbag69
(g85
g71
NtRp1876
(dp1877
g74
(dp1878
sg83
g1665
sg76
(lp1879
g69
(g90
g71
NtRp1880
(dp1881
g74
(dp1882
g94
g95
ssg83
g1876
sg76
(lp1883
g1272
asbag69
(g90
g71
NtRp1884
(dp1885
g74
(dp1886
g101
g102
ssg83
g1876
sg76
(lp1887
S':'
asbag69
(g90
g71
NtRp1888
(dp1889
g74
(dp1890
sg83
g1876
sg76
(lp1891
g69
(g70
g71
NtRp1892
(dp1893
g74
(dp1894
g82
I4
ssg83
g1888
sg76
(lp1895
g69
(g78
g71
NtRp1896
(dp1897
g74
(dp1898
g82
I3
ssg83
Nsg76
(lp1899
g69
(g85
g71
NtRp1900
(dp1901
g74
(dp1902
sg83
g1896
sg76
(lp1903
g69
(g90
g71
NtRp1904
(dp1905
g74
(dp1906
sg83
g1900
sg76
(lp1907
g69
(g70
g71
NtRp1908
(dp1909
g74
(dp1910
g82
I3
ssg83
g1904
sg76
(lp1911
S'1'
asbasbasbag69
(g85
g71
NtRp1912
(dp1913
g74
(dp1914
sg83
g1896
sg76
(lp1915
g69
(g90
g71
NtRp1916
(dp1917
g74
(dp1918
sg83
g1912
sg76
(lp1919
g69
(g70
g71
NtRp1920
(dp1921
g74
(dp1922
g82
I3
ssg83
g1916
sg76
(lp1923
S'99'
p1924
asbasbasbag69
(g85
g71
NtRp1925
(dp1926
g74
(dp1927
sg83
g1896
sg76
(lp1928
g69
(g90
g71
NtRp1929
(dp1930
g74
(dp1931
sg83
g1925
sg76
(lp1932
g69
(g70
g71
NtRp1933
(dp1934
g74
(dp1935
g82
I3
ssg83
g1929
sg76
(lp1936
S'7'
asbasbasbag69
(g85
g71
NtRp1937
(dp1938
g74
(dp1939
sg83
g1896
sg76
(lp1940
g69
(g90
g71
NtRp1941
(dp1942
g74
(dp1943
sg83
g1937
sg76
(lp1944
g69
(g70
g71
NtRp1945
(dp1946
g74
(dp1947
g82
I3
ssg83
g1941
sg76
(lp1948
S'datetime.datetime(2012, 3, 4, 22, 12, 8)'
p1949
asbasbasbag69
(g85
g71
NtRp1950
(dp1951
g74
(dp1952
sg83
g1896
sg76
(lp1953
g69
(g90
g71
NtRp1954
(dp1955
g74
(dp1956
sg83
g1950
sg76
(lp1957
g69
(g70
g71
NtRp1958
(dp1959
g74
(dp1960
g82
I3
ssg83
g1954
sg76
(lp1961
g1351
asbasbasbasbasbasbasbasbasbasbasbag69
(g85
g71
NtRp1962
(dp1963
g74
(dp1964
sg83
g79
sg76
(lp1965
g69
(g90
g71
NtRp1966
(dp1967
g74
(dp1968
g94
g95
ssg83
g1962
sg76
(lp1969
S'is_https'
p1970
asbag69
(g90
g71
NtRp1971
(dp1972
g74
(dp1973
g101
g102
ssg83
g1962
sg76
(lp1974
S':'
asbag69
(g90
g71
NtRp1975
(dp1976
g74
(dp1977
sg83
g1962
sg76
(lp1978
g69
(g70
g71
NtRp1979
(dp1980
g74
(dp1981
g82
I5
ssg83
g1975
sg76
(lp1982
g112
asbasbasbag69
(g85
g71
NtRp1983
(dp1984
g74
(dp1985
sg83
g79
sg76
(lp1986
g69
(g90
g71
NtRp1987
(dp1988
g74
(dp1989
g94
g95
ssg83
g1983
sg76
(lp1990
S'is_local'
p1991
asbag69
(g90
g71
NtRp1992
(dp1993
g74
(dp1994
g101
g102
ssg83
g1983
sg76
(lp1995
S':'
asbag69
(g90
g71
NtRp1996
(dp1997
g74
(dp1998
sg83
g1983
sg76
(lp1999
g69
(g70
g71
NtRp2000
(dp2001
g74
(dp2002
g82
I5
ssg83
g1996
sg76
(lp2003
g1460
asbasbasbag69
(g85
g71
NtRp2004
(dp2005
g74
(dp2006
sg83
g79
sg76
(lp2007
g69
(g90
g71
NtRp2008
(dp2009
g74
(dp2010
g94
g95
ssg83
g2004
sg76
(lp2011
S'is_restful'
p2012
asbag69
(g90
g71
NtRp2013
(dp2014
g74
(dp2015
g101
g102
ssg83
g2004
sg76
(lp2016
S':'
asbag69
(g90
g71
NtRp2017
(dp2018
g74
(dp2019
sg83
g2004
sg76
(lp2020
g69
(g70
g71
NtRp2021
(dp2022
g74
(dp2023
g82
I5
ssg83
g2017
sg76
(lp2024
g112
asbasbasbag69
(g85
g71
NtRp2025
(dp2026
g74
(dp2027
sg83
g79
sg76
(lp2028
g69
(g90
g71
NtRp2029
(dp2030
g74
(dp2031
g94
g95
ssg83
g2025
sg76
(lp2032
S'now'
p2033
asbag69
(g90
g71
NtRp2034
(dp2035
g74
(dp2036
g101
g102
ssg83
g2025
sg76
(lp2037
S':'
asbag69
(g90
g71
NtRp2038
(dp2039
g74
(dp2040
sg83
g2025
sg76
(lp2041
g69
(g70
g71
NtRp2042
(dp2043
g74
(dp2044
g82
I5
ssg83
g2038
sg76
(lp2045
S'datetime.datetime(2012, 4, 21, 22, 28, 1, 844000)'
p2046
asbasbasbag69
(g85
g71
NtRp2047
(dp2048
g74
(dp2049
sg83
g79
sg76
(lp2050
g69
(g90
g71
NtRp2051
(dp2052
g74
(dp2053
g94
g95
ssg83
g2047
sg76
(lp2054
S'post_vars'
p2055
asbag69
(g90
g71
NtRp2056
(dp2057
g74
(dp2058
g101
g102
ssg83
g2047
sg76
(lp2059
S':'
asbag69
(g90
g71
NtRp2060
(dp2061
g74
(dp2062
sg83
g2047
sg76
(lp2063
g69
(g70
g71
NtRp2064
(dp2065
g74
(dp2066
g82
I5
ssg83
g2060
sg76
(lp2067
g69
(g78
g71
NtRp2068
(dp2069
g74
(dp2070
g82
I4
ssg83
Nsg76
(lp2071
sbasbasbasbag69
(g85
g71
NtRp2072
(dp2073
g74
(dp2074
sg83
g79
sg76
(lp2075
g69
(g90
g71
NtRp2076
(dp2077
g74
(dp2078
g94
g95
ssg83
g2072
sg76
(lp2079
S'url'
p2080
asbag69
(g90
g71
NtRp2081
(dp2082
g74
(dp2083
g101
g102
ssg83
g2072
sg76
(lp2084
S':'
asbag69
(g90
g71
NtRp2085
(dp2086
g74
(dp2087
sg83
g2072
sg76
(lp2088
g69
(g70
g71
NtRp2089
(dp2090
g74
(dp2091
g82
I5
ssg83
g2085
sg76
(lp2092
S'/init/default/index'
p2093
asbasbasbag69
(g85
g71
NtRp2094
(dp2095
g74
(dp2096
sg83
g79
sg76
(lp2097
g69
(g90
g71
NtRp2098
(dp2099
g74
(dp2100
g94
g95
ssg83
g2094
sg76
(lp2101
S'utcnow'
p2102
asbag69
(g90
g71
NtRp2103
(dp2104
g74
(dp2105
g101
g102
ssg83
g2094
sg76
(lp2106
S':'
asbag69
(g90
g71
NtRp2107
(dp2108
g74
(dp2109
sg83
g2094
sg76
(lp2110
g69
(g70
g71
NtRp2111
(dp2112
g74
(dp2113
g82
I5
ssg83
g2107
sg76
(lp2114
S'datetime.datetime(2012, 4, 22, 1, 28, 1, 844000)'
p2115
asbasbasbag69
(g85
g71
NtRp2116
(dp2117
g74
(dp2118
sg83
g79
sg76
(lp2119
g69
(g90
g71
NtRp2120
(dp2121
g74
(dp2122
g94
g95
ssg83
g2116
sg76
(lp2123
S'uuid'
p2124
asbag69
(g90
g71
NtRp2125
(dp2126
g74
(dp2127
g101
g102
ssg83
g2116
sg76
(lp2128
S':'
asbag69
(g90
g71
NtRp2129
(dp2130
g74
(dp2131
sg83
g2116
sg76
(lp2132
g69
(g70
g71
NtRp2133
(dp2134
g74
(dp2135
g82
I5
ssg83
g2129
sg76
(lp2136
S'init/127.0.0.1.2012-04-21.22-28-01.29c66329-aca8-4c05-9268-86f1f2037f18'
p2137
asbasbasbag69
(g85
g71
NtRp2138
(dp2139
g74
(dp2140
sg83
g79
sg76
(lp2141
g69
(g90
g71
NtRp2142
(dp2143
g74
(dp2144
g94
g95
ssg83
g2138
sg76
(lp2145
S'vars'
p2146
asbag69
(g90
g71
NtRp2147
(dp2148
g74
(dp2149
g101
g102
ssg83
g2138
sg76
(lp2150
S':'
asbag69
(g90
g71
NtRp2151
(dp2152
g74
(dp2153
sg83
g2138
sg76
(lp2154
g69
(g70
g71
NtRp2155
(dp2156
g74
(dp2157
g82
I5
ssg83
g2151
sg76
(lp2158
g69
(g78
g71
NtRp2159
(dp2160
g74
(dp2161
g82
I4
ssg83
Nsg76
(lp2162
sbasbasbasbag69
(g85
g71
NtRp2163
(dp2164
g74
(dp2165
sg83
g79
sg76
(lp2166
g69
(g90
g71
NtRp2167
(dp2168
g74
(dp2169
g94
g95
ssg83
g2163
sg76
(lp2170
S'wsgi'
p2171
asbag69
(g90
g71
NtRp2172
(dp2173
g74
(dp2174
g101
g102
ssg83
g2163
sg76
(lp2175
S':'
asbag69
(g90
g71
NtRp2176
(dp2177
g74
(dp2178
sg83
g2163
sg76
(lp2179
g69
(g70
g71
NtRp2180
(dp2181
g74
(dp2182
g82
I5
ssg83
g2176
sg76
(lp2183
g69
(g78
g71
NtRp2184
(dp2185
g74
(dp2186
g82
I4
ssg83
Nsg76
(lp2187
g69
(g85
g71
NtRp2188
(dp2189
g74
(dp2190
sg83
g2184
sg76
(lp2191
g69
(g90
g71
NtRp2192
(dp2193
g74
(dp2194
g94
g95
ssg83
g2188
sg76
(lp2195
S'environ'
p2196
asbag69
(g90
g71
NtRp2197
(dp2198
g74
(dp2199
g101
g102
ssg83
g2188
sg76
(lp2200
S':'
asbag69
(g90
g71
NtRp2201
(dp2202
g74
(dp2203
sg83
g2188
sg76
(lp2204
g69
(g70
g71
NtRp2205
(dp2206
g74
(dp2207
g82
I4
ssg83
g2201
sg76
(lp2208
g69
(g78
g71
NtRp2209
(dp2210
g74
(dp2211
g82
I3
ssg83
Nsg76
(lp2212
g69
(g85
g71
NtRp2213
(dp2214
g74
(dp2215
sg83
g2209
sg76
(lp2216
g69
(g90
g71
NtRp2217
(dp2218
g74
(dp2219
g94
g95
ssg83
g2213
sg76
(lp2220
S'HTTP_ACCEPT'
p2221
asbag69
(g90
g71
NtRp2222
(dp2223
g74
(dp2224
g101
g102
ssg83
g2213
sg76
(lp2225
S':'
asbag69
(g90
g71
NtRp2226
(dp2227
g74
(dp2228
sg83
g2213
sg76
(lp2229
g69
(g70
g71
NtRp2230
(dp2231
g74
(dp2232
g82
I3
ssg83
g2226
sg76
(lp2233
g830
asbasbasbag69
(g85
g71
NtRp2234
(dp2235
g74
(dp2236
sg83
g2209
sg76
(lp2237
g69
(g90
g71
NtRp2238
(dp2239
g74
(dp2240
g94
g95
ssg83
g2234
sg76
(lp2241
S'HTTP_ACCEPT_ENCODING'
p2242
asbag69
(g90
g71
NtRp2243
(dp2244
g74
(dp2245
g101
g102
ssg83
g2234
sg76
(lp2246
S':'
asbag69
(g90
g71
NtRp2247
(dp2248
g74
(dp2249
sg83
g2234
sg76
(lp2250
g69
(g70
g71
NtRp2251
(dp2252
g74
(dp2253
g82
I3
ssg83
g2247
sg76
(lp2254
g852
asbasbasbag69
(g85
g71
NtRp2255
(dp2256
g74
(dp2257
sg83
g2209
sg76
(lp2258
g69
(g90
g71
NtRp2259
(dp2260
g74
(dp2261
g94
g95
ssg83
g2255
sg76
(lp2262
S'HTTP_ACCEPT_LANGUAGE'
p2263
asbag69
(g90
g71
NtRp2264
(dp2265
g74
(dp2266
g101
g102
ssg83
g2255
sg76
(lp2267
S':'
asbag69
(g90
g71
NtRp2268
(dp2269
g74
(dp2270
sg83
g2255
sg76
(lp2271
g69
(g70
g71
NtRp2272
(dp2273
g74
(dp2274
g82
I3
ssg83
g2268
sg76
(lp2275
g874
asbasbasbag69
(g85
g71
NtRp2276
(dp2277
g74
(dp2278
sg83
g2209
sg76
(lp2279
g69
(g90
g71
NtRp2280
(dp2281
g74
(dp2282
g94
g95
ssg83
g2276
sg76
(lp2283
S'HTTP_CONNECTION'
p2284
asbag69
(g90
g71
NtRp2285
(dp2286
g74
(dp2287
g101
g102
ssg83
g2276
sg76
(lp2288
S':'
asbag69
(g90
g71
NtRp2289
(dp2290
g74
(dp2291
sg83
g2276
sg76
(lp2292
g69
(g70
g71
NtRp2293
(dp2294
g74
(dp2295
g82
I3
ssg83
g2289
sg76
(lp2296
g896
asbasbasbag69
(g85
g71
NtRp2297
(dp2298
g74
(dp2299
sg83
g2209
sg76
(lp2300
g69
(g90
g71
NtRp2301
(dp2302
g74
(dp2303
g94
g95
ssg83
g2297
sg76
(lp2304
S'HTTP_COOKIE'
p2305
asbag69
(g90
g71
NtRp2306
(dp2307
g74
(dp2308
g101
g102
ssg83
g2297
sg76
(lp2309
S':'
asbag69
(g90
g71
NtRp2310
(dp2311
g74
(dp2312
sg83
g2297
sg76
(lp2313
g69
(g70
g71
NtRp2314
(dp2315
g74
(dp2316
g82
I3
ssg83
g2310
sg76
(lp2317
g918
asbasbasbag69
(g85
g71
NtRp2318
(dp2319
g74
(dp2320
sg83
g2209
sg76
(lp2321
g69
(g90
g71
NtRp2322
(dp2323
g74
(dp2324
g94
g95
ssg83
g2318
sg76
(lp2325
S'HTTP_HOST'
p2326
asbag69
(g90
g71
NtRp2327
(dp2328
g74
(dp2329
g101
g102
ssg83
g2318
sg76
(lp2330
S':'
asbag69
(g90
g71
NtRp2331
(dp2332
g74
(dp2333
sg83
g2318
sg76
(lp2334
g69
(g70
g71
NtRp2335
(dp2336
g74
(dp2337
g82
I3
ssg83
g2331
sg76
(lp2338
g940
asbasbasbag69
(g85
g71
NtRp2339
(dp2340
g74
(dp2341
sg83
g2209
sg76
(lp2342
g69
(g90
g71
NtRp2343
(dp2344
g74
(dp2345
g94
g95
ssg83
g2339
sg76
(lp2346
S'HTTP_USER_AGENT'
p2347
asbag69
(g90
g71
NtRp2348
(dp2349
g74
(dp2350
g101
g102
ssg83
g2339
sg76
(lp2351
S':'
asbag69
(g90
g71
NtRp2352
(dp2353
g74
(dp2354
sg83
g2339
sg76
(lp2355
g69
(g70
g71
NtRp2356
(dp2357
g74
(dp2358
g82
I3
ssg83
g2352
sg76
(lp2359
g962
asbasbasbag69
(g85
g71
NtRp2360
(dp2361
g74
(dp2362
sg83
g2209
sg76
(lp2363
g69
(g90
g71
NtRp2364
(dp2365
g74
(dp2366
g94
g95
ssg83
g2360
sg76
(lp2367
S'PATH_INFO'
p2368
asbag69
(g90
g71
NtRp2369
(dp2370
g74
(dp2371
g101
g102
ssg83
g2360
sg76
(lp2372
S':'
asbag69
(g90
g71
NtRp2373
(dp2374
g74
(dp2375
sg83
g2360
sg76
(lp2376
g69
(g70
g71
NtRp2377
(dp2378
g74
(dp2379
g82
I3
ssg83
g2373
sg76
(lp2380
S'/'
asbasbasbag69
(g85
g71
NtRp2381
(dp2382
g74
(dp2383
sg83
g2209
sg76
(lp2384
g69
(g90
g71
NtRp2385
(dp2386
g74
(dp2387
g94
g95
ssg83
g2381
sg76
(lp2388
S'QUERY_STRING'
p2389
asbag69
(g90
g71
NtRp2390
(dp2391
g74
(dp2392
g101
g102
ssg83
g2381
sg76
(lp2393
S':'
asbag69
(g90
g71
NtRp2394
(dp2395
g74
(dp2396
sg83
g2381
sg76
(lp2397
g69
(g70
g71
NtRp2398
(dp2399
g74
(dp2400
g82
I3
ssg83
g2394
sg76
(lp2401
S''
asbasbasbag69
(g85
g71
NtRp2402
(dp2403
g74
(dp2404
sg83
g2209
sg76
(lp2405
g69
(g90
g71
NtRp2406
(dp2407
g74
(dp2408
g94
g95
ssg83
g2402
sg76
(lp2409
S'REMOTE_ADDR'
p2410
asbag69
(g90
g71
NtRp2411
(dp2412
g74
(dp2413
g101
g102
ssg83
g2402
sg76
(lp2414
S':'
asbag69
(g90
g71
NtRp2415
(dp2416
g74
(dp2417
sg83
g2402
sg76
(lp2418
g69
(g70
g71
NtRp2419
(dp2420
g74
(dp2421
g82
I3
ssg83
g2415
sg76
(lp2422
g202
asbasbasbag69
(g85
g71
NtRp2423
(dp2424
g74
(dp2425
sg83
g2209
sg76
(lp2426
g69
(g90
g71
NtRp2427
(dp2428
g74
(dp2429
g94
g95
ssg83
g2423
sg76
(lp2430
S'REMOTE_PORT'
p2431
asbag69
(g90
g71
NtRp2432
(dp2433
g74
(dp2434
g101
g102
ssg83
g2423
sg76
(lp2435
S':'
asbag69
(g90
g71
NtRp2436
(dp2437
g74
(dp2438
sg83
g2423
sg76
(lp2439
g69
(g70
g71
NtRp2440
(dp2441
g74
(dp2442
g82
I3
ssg83
g2436
sg76
(lp2443
g1089
asbasbasbag69
(g85
g71
NtRp2444
(dp2445
g74
(dp2446
sg83
g2209
sg76
(lp2447
g69
(g90
g71
NtRp2448
(dp2449
g74
(dp2450
g94
g95
ssg83
g2444
sg76
(lp2451
S'REQUEST_METHOD'
p2452
asbag69
(g90
g71
NtRp2453
(dp2454
g74
(dp2455
g101
g102
ssg83
g2444
sg76
(lp2456
S':'
asbag69
(g90
g71
NtRp2457
(dp2458
g74
(dp2459
sg83
g2444
sg76
(lp2460
g69
(g70
g71
NtRp2461
(dp2462
g74
(dp2463
g82
I3
ssg83
g2457
sg76
(lp2464
g1111
asbasbasbag69
(g85
g71
NtRp2465
(dp2466
g74
(dp2467
sg83
g2209
sg76
(lp2468
g69
(g90
g71
NtRp2469
(dp2470
g74
(dp2471
g94
g95
ssg83
g2465
sg76
(lp2472
S'SCRIPT_NAME'
p2473
asbag69
(g90
g71
NtRp2474
(dp2475
g74
(dp2476
g101
g102
ssg83
g2465
sg76
(lp2477
S':'
asbag69
(g90
g71
NtRp2478
(dp2479
g74
(dp2480
sg83
g2465
sg76
(lp2481
g69
(g70
g71
NtRp2482
(dp2483
g74
(dp2484
g82
I3
ssg83
g2478
sg76
(lp2485
S''
asbasbasbag69
(g85
g71
NtRp2486
(dp2487
g74
(dp2488
sg83
g2209
sg76
(lp2489
g69
(g90
g71
NtRp2490
(dp2491
g74
(dp2492
g94
g95
ssg83
g2486
sg76
(lp2493
S'SERVER_NAME'
p2494
asbag69
(g90
g71
NtRp2495
(dp2496
g74
(dp2497
g101
g102
ssg83
g2486
sg76
(lp2498
S':'
asbag69
(g90
g71
NtRp2499
(dp2500
g74
(dp2501
sg83
g2486
sg76
(lp2502
g69
(g70
g71
NtRp2503
(dp2504
g74
(dp2505
g82
I3
ssg83
g2499
sg76
(lp2506
g1154
asbasbasbag69
(g85
g71
NtRp2507
(dp2508
g74
(dp2509
sg83
g2209
sg76
(lp2510
g69
(g90
g71
NtRp2511
(dp2512
g74
(dp2513
g94
g95
ssg83
g2507
sg76
(lp2514
S'SERVER_PORT'
p2515
asbag69
(g90
g71
NtRp2516
(dp2517
g74
(dp2518
g101
g102
ssg83
g2507
sg76
(lp2519
S':'
asbag69
(g90
g71
NtRp2520
(dp2521
g74
(dp2522
sg83
g2507
sg76
(lp2523
g69
(g70
g71
NtRp2524
(dp2525
g74
(dp2526
g82
I3
ssg83
g2520
sg76
(lp2527
g1176
asbasbasbag69
(g85
g71
NtRp2528
(dp2529
g74
(dp2530
sg83
g2209
sg76
(lp2531
g69
(g90
g71
NtRp2532
(dp2533
g74
(dp2534
g94
g95
ssg83
g2528
sg76
(lp2535
S'SERVER_PROTOCOL'
p2536
asbag69
(g90
g71
NtRp2537
(dp2538
g74
(dp2539
g101
g102
ssg83
g2528
sg76
(lp2540
S':'
asbag69
(g90
g71
NtRp2541
(dp2542
g74
(dp2543
sg83
g2528
sg76
(lp2544
g69
(g70
g71
NtRp2545
(dp2546
g74
(dp2547
g82
I3
ssg83
g2541
sg76
(lp2548
g1198
asbasbasbag69
(g85
g71
NtRp2549
(dp2550
g74
(dp2551
sg83
g2209
sg76
(lp2552
g69
(g90
g71
NtRp2553
(dp2554
g74
(dp2555
g94
g95
ssg83
g2549
sg76
(lp2556
S'SERVER_SOFTWARE'
p2557
asbag69
(g90
g71
NtRp2558
(dp2559
g74
(dp2560
g101
g102
ssg83
g2549
sg76
(lp2561
S':'
asbag69
(g90
g71
NtRp2562
(dp2563
g74
(dp2564
sg83
g2549
sg76
(lp2565
g69
(g70
g71
NtRp2566
(dp2567
g74
(dp2568
g82
I3
ssg83
g2562
sg76
(lp2569
g1220
asbasbasbag69
(g85
g71
NtRp2570
(dp2571
g74
(dp2572
sg83
g2209
sg76
(lp2573
g69
(g90
g71
NtRp2574
(dp2575
g74
(dp2576
g94
g95
ssg83
g2570
sg76
(lp2577
S'wsgi.errors'
p2578
asbag69
(g90
g71
NtRp2579
(dp2580
g74
(dp2581
g101
g102
ssg83
g2570
sg76
(lp2582
S':'
asbag69
(g90
g71
NtRp2583
(dp2584
g74
(dp2585
sg83
g2570
sg76
(lp2586
g69
(g70
g71
NtRp2587
(dp2588
g74
(dp2589
g82
I3
ssg83
g2583
sg76
(lp2590
S"<open file '<stderr>', mode 'w' at 0x0000000001DB61E0>"
p2591
asbasbasbag69
(g85
g71
NtRp2592
(dp2593
g74
(dp2594
sg83
g2209
sg76
(lp2595
g69
(g90
g71
NtRp2596
(dp2597
g74
(dp2598
g94
g95
ssg83
g2592
sg76
(lp2599
S'wsgi.file_wrapper'
p2600
asbag69
(g90
g71
NtRp2601
(dp2602
g74
(dp2603
g101
g102
ssg83
g2592
sg76
(lp2604
S':'
asbag69
(g90
g71
NtRp2605
(dp2606
g74
(dp2607
sg83
g2592
sg76
(lp2608
g69
(g70
g71
NtRp2609
(dp2610
g74
(dp2611
g82
I3
ssg83
g2605
sg76
(lp2612
S'<class wsgiref.util.FileWrapper at 0x000000000385D288>'
p2613
asbasbasbag69
(g85
g71
NtRp2614
(dp2615
g74
(dp2616
sg83
g2209
sg76
(lp2617
g69
(g90
g71
NtRp2618
(dp2619
g74
(dp2620
g94
g95
ssg83
g2614
sg76
(lp2621
S'wsgi.input'
p2622
asbag69
(g90
g71
NtRp2623
(dp2624
g74
(dp2625
g101
g102
ssg83
g2614
sg76
(lp2626
S':'
asbag69
(g90
g71
NtRp2627
(dp2628
g74
(dp2629
sg83
g2614
sg76
(lp2630
g69
(g70
g71
NtRp2631
(dp2632
g74
(dp2633
g82
I3
ssg83
g2627
sg76
(lp2634
S'<cStringIO.StringO object at 0x0000000009C5EF10>'
p2635
asbasbasbag69
(g85
g71
NtRp2636
(dp2637
g74
(dp2638
sg83
g2209
sg76
(lp2639
g69
(g90
g71
NtRp2640
(dp2641
g74
(dp2642
g94
g95
ssg83
g2636
sg76
(lp2643
S'wsgi.multiprocess'
p2644
asbag69
(g90
g71
NtRp2645
(dp2646
g74
(dp2647
g101
g102
ssg83
g2636
sg76
(lp2648
S':'
asbag69
(g90
g71
NtRp2649
(dp2650
g74
(dp2651
sg83
g2636
sg76
(lp2652
g69
(g70
g71
NtRp2653
(dp2654
g74
(dp2655
g82
I3
ssg83
g2649
sg76
(lp2656
g112
asbasbasbag69
(g85
g71
NtRp2657
(dp2658
g74
(dp2659
sg83
g2209
sg76
(lp2660
g69
(g90
g71
NtRp2661
(dp2662
g74
(dp2663
g94
g95
ssg83
g2657
sg76
(lp2664
S'wsgi.multithread'
p2665
asbag69
(g90
g71
NtRp2666
(dp2667
g74
(dp2668
g101
g102
ssg83
g2657
sg76
(lp2669
S':'
asbag69
(g90
g71
NtRp2670
(dp2671
g74
(dp2672
sg83
g2657
sg76
(lp2673
g69
(g70
g71
NtRp2674
(dp2675
g74
(dp2676
g82
I3
ssg83
g2670
sg76
(lp2677
g1460
asbasbasbag69
(g85
g71
NtRp2678
(dp2679
g74
(dp2680
sg83
g2209
sg76
(lp2681
g69
(g90
g71
NtRp2682
(dp2683
g74
(dp2684
g94
g95
ssg83
g2678
sg76
(lp2685
S'wsgi.run_once'
p2686
asbag69
(g90
g71
NtRp2687
(dp2688
g74
(dp2689
g101
g102
ssg83
g2678
sg76
(lp2690
S':'
asbag69
(g90
g71
NtRp2691
(dp2692
g74
(dp2693
sg83
g2678
sg76
(lp2694
g69
(g70
g71
NtRp2695
(dp2696
g74
(dp2697
g82
I3
ssg83
g2691
sg76
(lp2698
g112
asbasbasbag69
(g85
g71
NtRp2699
(dp2700
g74
(dp2701
sg83
g2209
sg76
(lp2702
g69
(g90
g71
NtRp2703
(dp2704
g74
(dp2705
g94
g95
ssg83
g2699
sg76
(lp2706
S'wsgi.url_scheme'
p2707
asbag69
(g90
g71
NtRp2708
(dp2709
g74
(dp2710
g101
g102
ssg83
g2699
sg76
(lp2711
S':'
asbag69
(g90
g71
NtRp2712
(dp2713
g74
(dp2714
sg83
g2699
sg76
(lp2715
g69
(g70
g71
NtRp2716
(dp2717
g74
(dp2718
g82
I3
ssg83
g2712
sg76
(lp2719
g1503
asbasbasbag69
(g85
g71
NtRp2720
(dp2721
g74
(dp2722
sg83
g2209
sg76
(lp2723
g69
(g90
g71
NtRp2724
(dp2725
g74
(dp2726
g94
g95
ssg83
g2720
sg76
(lp2727
S'wsgi.version'
p2728
asbag69
(g90
g71
NtRp2729
(dp2730
g74
(dp2731
g101
g102
ssg83
g2720
sg76
(lp2732
S':'
asbag69
(g90
g71
NtRp2733
(dp2734
g74
(dp2735
sg83
g2720
sg76
(lp2736
g69
(g70
g71
NtRp2737
(dp2738
g74
(dp2739
g82
I3
ssg83
g2733
sg76
(lp2740
S'1'
asbasbasbasbasbasbasbasbasbasbasbasbasbsS'frames'
p2741
(lp2742
(dp2743
S'file'
p2744
S'c:\\Users\\Jorge\\Downloads\\web2py_src\\web2py\\gluon\\restricted.py'
p2745
sS'dump'
p2746
(dp2747
S'code'
p2748
S"'# -*- coding: utf-8 -*-\\nif 0:\\n    from gluon.glo...orm=form)\\nresponse._vars=response._caller(index)\\n'"
p2749
sS'layer'
p2750
S"r'c:\\Users\\Jorge\\Downloads\\web2py_src\\web2py\\applications\\init\\controllers/default.py'"
p2751
sS'global compile2'
p2752
S'<function compile2>'
p2753
sS'ccode'
p2754
S'undefined'
p2755
ssS'lnum'
p2756
I204
sS'lines'
p2757
(dp2758
I199
S"    environment['__name__'] = '__restricted__'"
p2759
sI200
S'    try:'
p2760
sI201
S'        if type(code) == types.CodeType:'
p2761
sI202
S'            ccode = code'
p2762
sI203
S'        else:'
p2763
sI204
S'            ccode = compile2(code,layer)'
p2764
sI205
S'        exec ccode in environment'
p2765
sI206
S'    except HTTP:'
p2766
sI207
S'        raise'
p2767
sI208
S'    except RestrictedError:'
p2768
ssS'call'
p2769
S"(code='# -*- coding: utf-8 -*-\\nif 0:\\n    from gluon.glo...orm=form)\\nresponse._vars=response._caller(index)\\n', environment={'A': <class 'gluon.html.A'>, 'Auth': <class 'gluon.tools.Auth'>, 'B': <class 'gluon.html.B'>, 'BEAUTIFY': <class 'gluon.html.BEAUTIFY'>, 'BODY': <class 'gluon.html.BODY'>, 'BR': <class 'gluon.html.BR'>, 'BUTTON': <class 'gluon.html.BUTTON'>, 'CAT': <class 'gluon.html.CAT'>, 'CENTER': <class 'gluon.html.CENTER'>, 'CLEANUP': <class 'gluon.validators.CLEANUP'>, ...}, layer=r'c:\\Users\\Jorge\\Downloads\\web2py_src\\web2py\\applications\\init\\controllers/default.py')"
p2770
sS'func'
p2771
S'restricted'
p2772
sa(dp2773
g2744
S'c:\\Users\\Jorge\\Downloads\\web2py_src\\web2py\\gluon\\restricted.py'
p2774
sg2746
(dp2775
S'builtincompile'
p2776
S'<built-in function compile>'
p2777
sS'code'
p2778
S"'# -*- coding: utf-8 -*-\\nif 0:\\n    from gluon.glo...orm=form)\\nresponse._vars=response._caller(index)\\n'"
p2779
sS'code.rstrip'
p2780
S'<built-in method rstrip of str object>'
p2781
sS').replace'
p2782
g2755
sS'layer'
p2783
S"r'c:\\Users\\Jorge\\Downloads\\web2py_src\\web2py\\applications\\init\\controllers/default.py'"
p2784
ssg2756
I189
sg2757
(dp2785
I192
S'    """'
p2786
sI193
S'    runs code in environment and returns the output. if an exception occurs'
p2787
sI184
S''
sI185
S'def compile2(code,layer):'
p2788
sI186
S'    """'
p2789
sI187
S"    The +'\\n' is necessary else compile fails when code ends in a comment."
p2790
sI188
S'    """'
p2791
sI189
S"    return compile(code.rstrip().replace('\\r\\n','\\n')+'\\n', layer, 'exec')"
p2792
sI190
S''
sI191
S"def restricted(code, environment=None, layer='Unknown'):"
p2793
ssg2769
S"(code='# -*- coding: utf-8 -*-\\nif 0:\\n    from gluon.glo...orm=form)\\nresponse._vars=response._caller(index)\\n', layer=r'c:\\Users\\Jorge\\Downloads\\web2py_src\\web2py\\applications\\init\\controllers/default.py')"
p2794
sg2771
S'compile2'
p2795
sasS'pyver'
p2796
S'Python 2.7.2: C:\\Python27\\python.exe'
p2797
sS'session'
p2798
g69
(g70
g71
NtRp2799
(dp2800
g74
(dp2801
sg76
(lp2802
g69
(g78
g71
NtRp2803
(dp2804
g74
(dp2805
g82
I5
ssg83
Nsg76
(lp2806
g69
(g85
g71
NtRp2807
(dp2808
g74
(dp2809
sg83
g2803
sg76
(lp2810
g69
(g90
g71
NtRp2811
(dp2812
g74
(dp2813
g94
g95
ssg83
g2807
sg76
(lp2814
S'auth'
p2815
asbag69
(g90
g71
NtRp2816
(dp2817
g74
(dp2818
g101
g102
ssg83
g2807
sg76
(lp2819
S':'
asbag69
(g90
g71
NtRp2820
(dp2821
g74
(dp2822
sg83
g2807
sg76
(lp2823
g69
(g70
g71
NtRp2824
(dp2825
g74
(dp2826
g82
I5
ssg83
g2820
sg76
(lp2827
g69
(g78
g71
NtRp2828
(dp2829
g74
(dp2830
g82
I4
ssg83
Nsg76
(lp2831
g69
(g85
g71
NtRp2832
(dp2833
g74
(dp2834
sg83
g2828
sg76
(lp2835
g69
(g90
g71
NtRp2836
(dp2837
g74
(dp2838
g94
g95
ssg83
g2832
sg76
(lp2839
S'expiration'
p2840
asbag69
(g90
g71
NtRp2841
(dp2842
g74
(dp2843
g101
g102
ssg83
g2832
sg76
(lp2844
S':'
asbag69
(g90
g71
NtRp2845
(dp2846
g74
(dp2847
sg83
g2832
sg76
(lp2848
g69
(g70
g71
NtRp2849
(dp2850
g74
(dp2851
g82
I4
ssg83
g2845
sg76
(lp2852
S'3600'
p2853
asbasbasbag69
(g85
g71
NtRp2854
(dp2855
g74
(dp2856
sg83
g2828
sg76
(lp2857
g69
(g90
g71
NtRp2858
(dp2859
g74
(dp2860
g94
g95
ssg83
g2854
sg76
(lp2861
S'hmac_key'
p2862
asbag69
(g90
g71
NtRp2863
(dp2864
g74
(dp2865
g101
g102
ssg83
g2854
sg76
(lp2866
S':'
asbag69
(g90
g71
NtRp2867
(dp2868
g74
(dp2869
sg83
g2854
sg76
(lp2870
g69
(g70
g71
NtRp2871
(dp2872
g74
(dp2873
g82
I4
ssg83
g2867
sg76
(lp2874
S'e4ac3fb1-b7b6-4776-a4b7-286441f8b0f1'
p2875
asbasbasbag69
(g85
g71
NtRp2876
(dp2877
g74
(dp2878
sg83
g2828
sg76
(lp2879
g69
(g90
g71
NtRp2880
(dp2881
g74
(dp2882
g94
g95
ssg83
g2876
sg76
(lp2883
S'last_visit'
p2884
asbag69
(g90
g71
NtRp2885
(dp2886
g74
(dp2887
g101
g102
ssg83
g2876
sg76
(lp2888
S':'
asbag69
(g90
g71
NtRp2889
(dp2890
g74
(dp2891
sg83
g2876
sg76
(lp2892
g69
(g70
g71
NtRp2893
(dp2894
g74
(dp2895
g82
I4
ssg83
g2889
sg76
(lp2896
S'datetime.datetime(2012, 4, 21, 22, 22, 40, 968000)'
p2897
asbasbasbag69
(g85
g71
NtRp2898
(dp2899
g74
(dp2900
sg83
g2828
sg76
(lp2901
g69
(g90
g71
NtRp2902
(dp2903
g74
(dp2904
g94
g95
ssg83
g2898
sg76
(lp2905
S'remember'
p2906
asbag69
(g90
g71
NtRp2907
(dp2908
g74
(dp2909
g101
g102
ssg83
g2898
sg76
(lp2910
S':'
asbag69
(g90
g71
NtRp2911
(dp2912
g74
(dp2913
sg83
g2898
sg76
(lp2914
g69
(g70
g71
NtRp2915
(dp2916
g74
(dp2917
g82
I4
ssg83
g2911
sg76
(lp2918
g112
asbasbasbag69
(g85
g71
NtRp2919
(dp2920
g74
(dp2921
sg83
g2828
sg76
(lp2922
g69
(g90
g71
NtRp2923
(dp2924
g74
(dp2925
g94
g95
ssg83
g2919
sg76
(lp2926
S'user'
p2927
asbag69
(g90
g71
NtRp2928
(dp2929
g74
(dp2930
g101
g102
ssg83
g2919
sg76
(lp2931
S':'
asbag69
(g90
g71
NtRp2932
(dp2933
g74
(dp2934
sg83
g2919
sg76
(lp2935
g69
(g70
g71
NtRp2936
(dp2937
g74
(dp2938
g82
I4
ssg83
g2932
sg76
(lp2939
g69
(g78
g71
NtRp2940
(dp2941
g74
(dp2942
g82
I3
ssg83
Nsg76
(lp2943
g69
(g85
g71
NtRp2944
(dp2945
g74
(dp2946
sg83
g2940
sg76
(lp2947
g69
(g90
g71
NtRp2948
(dp2949
g74
(dp2950
g94
g95
ssg83
g2944
sg76
(lp2951
S'created_on'
p2952
asbag69
(g90
g71
NtRp2953
(dp2954
g74
(dp2955
g101
g102
ssg83
g2944
sg76
(lp2956
S':'
asbag69
(g90
g71
NtRp2957
(dp2958
g74
(dp2959
sg83
g2944
sg76
(lp2960
g69
(g70
g71
NtRp2961
(dp2962
g74
(dp2963
g82
I3
ssg83
g2957
sg76
(lp2964
S'datetime.datetime(2012, 4, 14, 20, 20, 15)'
p2965
asbasbasbag69
(g85
g71
NtRp2966
(dp2967
g74
(dp2968
sg83
g2940
sg76
(lp2969
g69
(g90
g71
NtRp2970
(dp2971
g74
(dp2972
g94
g95
ssg83
g2966
sg76
(lp2973
S'email'
p2974
asbag69
(g90
g71
NtRp2975
(dp2976
g74
(dp2977
g101
g102
ssg83
g2966
sg76
(lp2978
S':'
asbag69
(g90
g71
NtRp2979
(dp2980
g74
(dp2981
sg83
g2966
sg76
(lp2982
g69
(g70
g71
NtRp2983
(dp2984
g74
(dp2985
g82
I3
ssg83
g2979
sg76
(lp2986
S'maximiliano.alcaraz@aeg.com.ar'
p2987
asbasbasbag69
(g85
g71
NtRp2988
(dp2989
g74
(dp2990
sg83
g2940
sg76
(lp2991
g69
(g90
g71
NtRp2992
(dp2993
g74
(dp2994
g94
g95
ssg83
g2988
sg76
(lp2995
S'first_name'
p2996
asbag69
(g90
g71
NtRp2997
(dp2998
g74
(dp2999
g101
g102
ssg83
g2988
sg76
(lp3000
S':'
asbag69
(g90
g71
NtRp3001
(dp3002
g74
(dp3003
sg83
g2988
sg76
(lp3004
g69
(g70
g71
NtRp3005
(dp3006
g74
(dp3007
g82
I3
ssg83
g3001
sg76
(lp3008
S'Maximiliano'
p3009
asbasbasbag69
(g85
g71
NtRp3010
(dp3011
g74
(dp3012
sg83
g2940
sg76
(lp3013
g69
(g90
g71
NtRp3014
(dp3015
g74
(dp3016
g94
g95
ssg83
g3010
sg76
(lp3017
S'id'
p3018
asbag69
(g90
g71
NtRp3019
(dp3020
g74
(dp3021
g101
g102
ssg83
g3010
sg76
(lp3022
S':'
asbag69
(g90
g71
NtRp3023
(dp3024
g74
(dp3025
sg83
g3010
sg76
(lp3026
g69
(g70
g71
NtRp3027
(dp3028
g74
(dp3029
g82
I3
ssg83
g3023
sg76
(lp3030
S'15'
p3031
asbasbasbag69
(g85
g71
NtRp3032
(dp3033
g74
(dp3034
sg83
g2940
sg76
(lp3035
g69
(g90
g71
NtRp3036
(dp3037
g74
(dp3038
g94
g95
ssg83
g3032
sg76
(lp3039
S'last_name'
p3040
asbag69
(g90
g71
NtRp3041
(dp3042
g74
(dp3043
g101
g102
ssg83
g3032
sg76
(lp3044
S':'
asbag69
(g90
g71
NtRp3045
(dp3046
g74
(dp3047
sg83
g3032
sg76
(lp3048
g69
(g70
g71
NtRp3049
(dp3050
g74
(dp3051
g82
I3
ssg83
g3045
sg76
(lp3052
S'Alcaraz'
p3053
asbasbasbag69
(g85
g71
NtRp3054
(dp3055
g74
(dp3056
sg83
g2940
sg76
(lp3057
g69
(g90
g71
NtRp3058
(dp3059
g74
(dp3060
g94
g95
ssg83
g3054
sg76
(lp3061
S'modified_on'
p3062
asbag69
(g90
g71
NtRp3063
(dp3064
g74
(dp3065
g101
g102
ssg83
g3054
sg76
(lp3066
S':'
asbag69
(g90
g71
NtRp3067
(dp3068
g74
(dp3069
sg83
g3054
sg76
(lp3070
g69
(g70
g71
NtRp3071
(dp3072
g74
(dp3073
g82
I3
ssg83
g3067
sg76
(lp3074
S'datetime.datetime(2012, 4, 14, 20, 20, 15)'
p3075
asbasbasbag69
(g85
g71
NtRp3076
(dp3077
g74
(dp3078
sg83
g2940
sg76
(lp3079
g69
(g90
g71
NtRp3080
(dp3081
g74
(dp3082
g94
g95
ssg83
g3076
sg76
(lp3083
S'password'
p3084
asbag69
(g90
g71
NtRp3085
(dp3086
g74
(dp3087
g101
g102
ssg83
g3076
sg76
(lp3088
S':'
asbag69
(g90
g71
NtRp3089
(dp3090
g74
(dp3091
sg83
g3076
sg76
(lp3092
g69
(g70
g71
NtRp3093
(dp3094
g74
(dp3095
g82
I3
ssg83
g3089
sg76
(lp3096
S'3b00954a2acd03e4a32d91f4bdebb4b7'
p3097
asbasbasbag69
(g85
g71
NtRp3098
(dp3099
g74
(dp3100
sg83
g2940
sg76
(lp3101
g69
(g90
g71
NtRp3102
(dp3103
g74
(dp3104
g94
g95
ssg83
g3098
sg76
(lp3105
S'registration_id'
p3106
asbag69
(g90
g71
NtRp3107
(dp3108
g74
(dp3109
g101
g102
ssg83
g3098
sg76
(lp3110
S':'
asbag69
(g90
g71
NtRp3111
(dp3112
g74
(dp3113
sg83
g3098
sg76
(lp3114
g69
(g70
g71
NtRp3115
(dp3116
g74
(dp3117
g82
I3
ssg83
g3111
sg76
(lp3118
S''
asbasbasbag69
(g85
g71
NtRp3119
(dp3120
g74
(dp3121
sg83
g2940
sg76
(lp3122
g69
(g90
g71
NtRp3123
(dp3124
g74
(dp3125
g94
g95
ssg83
g3119
sg76
(lp3126
S'registration_key'
p3127
asbag69
(g90
g71
NtRp3128
(dp3129
g74
(dp3130
g101
g102
ssg83
g3119
sg76
(lp3131
S':'
asbag69
(g90
g71
NtRp3132
(dp3133
g74
(dp3134
sg83
g3119
sg76
(lp3135
g69
(g70
g71
NtRp3136
(dp3137
g74
(dp3138
g82
I3
ssg83
g3132
sg76
(lp3139
S''
asbasbasbag69
(g85
g71
NtRp3140
(dp3141
g74
(dp3142
sg83
g2940
sg76
(lp3143
g69
(g90
g71
NtRp3144
(dp3145
g74
(dp3146
g94
g95
ssg83
g3140
sg76
(lp3147
S'reset_password_key'
p3148
asbag69
(g90
g71
NtRp3149
(dp3150
g74
(dp3151
g101
g102
ssg83
g3140
sg76
(lp3152
S':'
asbag69
(g90
g71
NtRp3153
(dp3154
g74
(dp3155
sg83
g3140
sg76
(lp3156
g69
(g70
g71
NtRp3157
(dp3158
g74
(dp3159
g82
I3
ssg83
g3153
sg76
(lp3160
S''
asbasbasbag69
(g85
g71
NtRp3161
(dp3162
g74
(dp3163
sg83
g2940
sg76
(lp3164
g69
(g90
g71
NtRp3165
(dp3166
g74
(dp3167
g94
g95
ssg83
g3161
sg76
(lp3168
S'username'
p3169
asbag69
(g90
g71
NtRp3170
(dp3171
g74
(dp3172
g101
g102
ssg83
g3161
sg76
(lp3173
S':'
asbag69
(g90
g71
NtRp3174
(dp3175
g74
(dp3176
sg83
g3161
sg76
(lp3177
g69
(g70
g71
NtRp3178
(dp3179
g74
(dp3180
g82
I3
ssg83
g3174
sg76
(lp3181
S'maxi'
p3182
asbasbasbasbasbasbasbag69
(g85
g71
NtRp3183
(dp3184
g74
(dp3185
sg83
g2828
sg76
(lp3186
g69
(g90
g71
NtRp3187
(dp3188
g74
(dp3189
g94
g95
ssg83
g3183
sg76
(lp3190
S'user_groups'
p3191
asbag69
(g90
g71
NtRp3192
(dp3193
g74
(dp3194
g101
g102
ssg83
g3183
sg76
(lp3195
S':'
asbag69
(g90
g71
NtRp3196
(dp3197
g74
(dp3198
sg83
g3183
sg76
(lp3199
g69
(g70
g71
NtRp3200
(dp3201
g74
(dp3202
g82
I4
ssg83
g3196
sg76
(lp3203
g69
(g78
g71
NtRp3204
(dp3205
g74
(dp3206
g82
I3
ssg83
Nsg76
(lp3207
g69
(g85
g71
NtRp3208
(dp3209
g74
(dp3210
sg83
g3204
sg76
(lp3211
g69
(g90
g71
NtRp3212
(dp3213
g74
(dp3214
g94
g95
ssg83
g3208
sg76
(lp3215
S'5'
asbag69
(g90
g71
NtRp3216
(dp3217
g74
(dp3218
g101
g102
ssg83
g3208
sg76
(lp3219
S':'
asbag69
(g90
g71
NtRp3220
(dp3221
g74
(dp3222
sg83
g3208
sg76
(lp3223
g69
(g70
g71
NtRp3224
(dp3225
g74
(dp3226
g82
I3
ssg83
g3220
sg76
(lp3227
S'Admin'
p3228
asbasbasbasbasbasbasbasbasbasbasbasbasbsS'etype'
p3229
S"<type 'exceptions.SyntaxError'>"
p3230
sS'date'
p3231
S'Sat Apr 21 22:28:02 2012'
p3232
sS'response'
p3233
g69
(g70
g71
NtRp3234
(dp3235
g74
(dp3236
sg76
(lp3237
g69
(g78
g71
NtRp3238
(dp3239
g74
(dp3240
g82
I5
ssg83
Nsg76
(lp3241
g69
(g85
g71
NtRp3242
(dp3243
g74
(dp3244
sg83
g3238
sg76
(lp3245
g69
(g90
g71
NtRp3246
(dp3247
g74
(dp3248
g94
g95
ssg83
g3242
sg76
(lp3249
g167
asbag69
(g90
g71
NtRp3250
(dp3251
g74
(dp3252
g101
g102
ssg83
g3242
sg76
(lp3253
S':'
asbag69
(g90
g71
NtRp3254
(dp3255
g74
(dp3256
sg83
g3242
sg76
(lp3257
g69
(g70
g71
NtRp3258
(dp3259
g74
(dp3260
g82
I5
ssg83
g3254
sg76
(lp3261
S'<cStringIO.StringO object at 0x00000000096D3960>'
p3262
asbasbasbag69
(g85
g71
NtRp3263
(dp3264
g74
(dp3265
sg83
g3238
sg76
(lp3266
g69
(g90
g71
NtRp3267
(dp3268
g74
(dp3269
g94
g95
ssg83
g3263
sg76
(lp3270
g233
asbag69
(g90
g71
NtRp3271
(dp3272
g74
(dp3273
g101
g102
ssg83
g3263
sg76
(lp3274
S':'
asbag69
(g90
g71
NtRp3275
(dp3276
g74
(dp3277
sg83
g3263
sg76
(lp3278
g69
(g70
g71
NtRp3279
(dp3280
g74
(dp3281
g82
I5
ssg83
g3275
sg76
(lp3282
g69
(g78
g71
NtRp3283
(dp3284
g74
(dp3285
g82
I4
ssg83
Nsg76
(lp3286
g69
(g85
g71
NtRp3287
(dp3288
g74
(dp3289
sg83
g3283
sg76
(lp3290
g69
(g90
g71
NtRp3291
(dp3292
g74
(dp3293
g94
g95
ssg83
g3287
sg76
(lp3294
S'session_id_init'
p3295
asbag69
(g90
g71
NtRp3296
(dp3297
g74
(dp3298
g101
g102
ssg83
g3287
sg76
(lp3299
S':'
asbag69
(g90
g71
NtRp3300
(dp3301
g74
(dp3302
sg83
g3287
sg76
(lp3303
g69
(g70
g71
NtRp3304
(dp3305
g74
(dp3306
g82
I4
ssg83
g3300
sg76
(lp3307
g69
(g78
g71
NtRp3308
(dp3309
g74
(dp3310
g82
I3
ssg83
Nsg76
(lp3311
g69
(g85
g71
NtRp3312
(dp3313
g74
(dp3314
sg83
g3308
sg76
(lp3315
g69
(g90
g71
NtRp3316
(dp3317
g74
(dp3318
g94
g95
ssg83
g3312
sg76
(lp3319
g283
asbag69
(g90
g71
NtRp3320
(dp3321
g74
(dp3322
g101
g102
ssg83
g3312
sg76
(lp3323
S':'
asbag69
(g90
g71
NtRp3324
(dp3325
g74
(dp3326
sg83
g3312
sg76
(lp3327
g69
(g70
g71
NtRp3328
(dp3329
g74
(dp3330
g82
I3
ssg83
g3324
sg76
(lp3331
S''
asbasbasbag69
(g85
g71
NtRp3332
(dp3333
g74
(dp3334
sg83
g3308
sg76
(lp3335
g69
(g90
g71
NtRp3336
(dp3337
g74
(dp3338
g94
g95
ssg83
g3332
sg76
(lp3339
g304
asbag69
(g90
g71
NtRp3340
(dp3341
g74
(dp3342
g101
g102
ssg83
g3332
sg76
(lp3343
S':'
asbag69
(g90
g71
NtRp3344
(dp3345
g74
(dp3346
sg83
g3332
sg76
(lp3347
g69
(g70
g71
NtRp3348
(dp3349
g74
(dp3350
g82
I3
ssg83
g3344
sg76
(lp3351
S''
asbasbasbag69
(g85
g71
NtRp3352
(dp3353
g74
(dp3354
sg83
g3308
sg76
(lp3355
g69
(g90
g71
NtRp3356
(dp3357
g74
(dp3358
g94
g95
ssg83
g3352
sg76
(lp3359
g325
asbag69
(g90
g71
NtRp3360
(dp3361
g74
(dp3362
g101
g102
ssg83
g3352
sg76
(lp3363
S':'
asbag69
(g90
g71
NtRp3364
(dp3365
g74
(dp3366
sg83
g3352
sg76
(lp3367
g69
(g70
g71
NtRp3368
(dp3369
g74
(dp3370
g82
I3
ssg83
g3364
sg76
(lp3371
S''
asbasbasbag69
(g85
g71
NtRp3372
(dp3373
g74
(dp3374
sg83
g3308
sg76
(lp3375
g69
(g90
g71
NtRp3376
(dp3377
g74
(dp3378
g94
g95
ssg83
g3372
sg76
(lp3379
g346
asbag69
(g90
g71
NtRp3380
(dp3381
g74
(dp3382
g101
g102
ssg83
g3372
sg76
(lp3383
S':'
asbag69
(g90
g71
NtRp3384
(dp3385
g74
(dp3386
sg83
g3372
sg76
(lp3387
g69
(g70
g71
NtRp3388
(dp3389
g74
(dp3390
g82
I3
ssg83
g3384
sg76
(lp3391
S''
asbasbasbag69
(g85
g71
NtRp3392
(dp3393
g74
(dp3394
sg83
g3308
sg76
(lp3395
g69
(g90
g71
NtRp3396
(dp3397
g74
(dp3398
g94
g95
ssg83
g3392
sg76
(lp3399
g367
asbag69
(g90
g71
NtRp3400
(dp3401
g74
(dp3402
g101
g102
ssg83
g3392
sg76
(lp3403
S':'
asbag69
(g90
g71
NtRp3404
(dp3405
g74
(dp3406
sg83
g3392
sg76
(lp3407
g69
(g70
g71
NtRp3408
(dp3409
g74
(dp3410
g82
I3
ssg83
g3404
sg76
(lp3411
S''
asbasbasbag69
(g85
g71
NtRp3412
(dp3413
g74
(dp3414
sg83
g3308
sg76
(lp3415
g69
(g90
g71
NtRp3416
(dp3417
g74
(dp3418
g94
g95
ssg83
g3412
sg76
(lp3419
g388
asbag69
(g90
g71
NtRp3420
(dp3421
g74
(dp3422
g101
g102
ssg83
g3412
sg76
(lp3423
S':'
asbag69
(g90
g71
NtRp3424
(dp3425
g74
(dp3426
sg83
g3412
sg76
(lp3427
g69
(g70
g71
NtRp3428
(dp3429
g74
(dp3430
g82
I3
ssg83
g3424
sg76
(lp3431
S'/'
asbasbasbag69
(g85
g71
NtRp3432
(dp3433
g74
(dp3434
sg83
g3308
sg76
(lp3435
g69
(g90
g71
NtRp3436
(dp3437
g74
(dp3438
g94
g95
ssg83
g3432
sg76
(lp3439
g409
asbag69
(g90
g71
NtRp3440
(dp3441
g74
(dp3442
g101
g102
ssg83
g3432
sg76
(lp3443
S':'
asbag69
(g90
g71
NtRp3444
(dp3445
g74
(dp3446
sg83
g3432
sg76
(lp3447
g69
(g70
g71
NtRp3448
(dp3449
g74
(dp3450
g82
I3
ssg83
g3444
sg76
(lp3451
S''
asbasbasbag69
(g85
g71
NtRp3452
(dp3453
g74
(dp3454
sg83
g3308
sg76
(lp3455
g69
(g90
g71
NtRp3456
(dp3457
g74
(dp3458
g94
g95
ssg83
g3452
sg76
(lp3459
g430
asbag69
(g90
g71
NtRp3460
(dp3461
g74
(dp3462
g101
g102
ssg83
g3452
sg76
(lp3463
S':'
asbag69
(g90
g71
NtRp3464
(dp3465
g74
(dp3466
sg83
g3452
sg76
(lp3467
g69
(g70
g71
NtRp3468
(dp3469
g74
(dp3470
g82
I3
ssg83
g3464
sg76
(lp3471
S''
asbasbasbasbasbasbasbasbasbasbasbag69
(g85
g71
NtRp3472
(dp3473
g74
(dp3474
sg83
g3238
sg76
(lp3475
g69
(g90
g71
NtRp3476
(dp3477
g74
(dp3478
g94
g95
ssg83
g3472
sg76
(lp3479
S'delimiters'
p3480
asbag69
(g90
g71
NtRp3481
(dp3482
g74
(dp3483
g101
g102
ssg83
g3472
sg76
(lp3484
S':'
asbag69
(g90
g71
NtRp3485
(dp3486
g74
(dp3487
sg83
g3472
sg76
(lp3488
g69
(g70
g71
NtRp3489
(dp3490
g74
(dp3491
g82
I5
ssg83
g3485
sg76
(lp3492
g69
(g78
g71
NtRp3493
(dp3494
g74
(dp3495
g82
I4
ssg83
Nsg76
(lp3496
g69
(g85
g71
NtRp3497
(dp3498
g74
(dp3499
sg83
g3493
sg76
(lp3500
g69
(g90
g71
NtRp3501
(dp3502
g74
(dp3503
sg83
g3497
sg76
(lp3504
g69
(g70
g71
NtRp3505
(dp3506
g74
(dp3507
g82
I4
ssg83
g3501
sg76
(lp3508
S'{{'
p3509
asbasbasbag69
(g85
g71
NtRp3510
(dp3511
g74
(dp3512
sg83
g3493
sg76
(lp3513
g69
(g90
g71
NtRp3514
(dp3515
g74
(dp3516
sg83
g3510
sg76
(lp3517
g69
(g70
g71
NtRp3518
(dp3519
g74
(dp3520
g82
I4
ssg83
g3514
sg76
(lp3521
S'}}'
p3522
asbasbasbasbasbasbasbag69
(g85
g71
NtRp3523
(dp3524
g74
(dp3525
sg83
g3238
sg76
(lp3526
g69
(g90
g71
NtRp3527
(dp3528
g74
(dp3529
g94
g95
ssg83
g3523
sg76
(lp3530
S'files'
p3531
asbag69
(g90
g71
NtRp3532
(dp3533
g74
(dp3534
g101
g102
ssg83
g3523
sg76
(lp3535
S':'
asbag69
(g90
g71
NtRp3536
(dp3537
g74
(dp3538
sg83
g3523
sg76
(lp3539
g69
(g70
g71
NtRp3540
(dp3541
g74
(dp3542
g82
I5
ssg83
g3536
sg76
(lp3543
g69
(g78
g71
NtRp3544
(dp3545
g74
(dp3546
g82
I4
ssg83
Nsg76
(lp3547
sbasbasbasbag69
(g85
g71
NtRp3548
(dp3549
g74
(dp3550
sg83
g3238
sg76
(lp3551
g69
(g90
g71
NtRp3552
(dp3553
g74
(dp3554
g94
g95
ssg83
g3548
sg76
(lp3555
S'flash'
p3556
asbag69
(g90
g71
NtRp3557
(dp3558
g74
(dp3559
g101
g102
ssg83
g3548
sg76
(lp3560
S':'
asbag69
(g90
g71
NtRp3561
(dp3562
g74
(dp3563
sg83
g3548
sg76
(lp3564
g69
(g70
g71
NtRp3565
(dp3566
g74
(dp3567
g82
I5
ssg83
g3561
sg76
(lp3568
S''
asbasbasbag69
(g85
g71
NtRp3569
(dp3570
g74
(dp3571
sg83
g3238
sg76
(lp3572
g69
(g90
g71
NtRp3573
(dp3574
g74
(dp3575
g94
g95
ssg83
g3569
sg76
(lp3576
S'generic_patterns'
p3577
asbag69
(g90
g71
NtRp3578
(dp3579
g74
(dp3580
g101
g102
ssg83
g3569
sg76
(lp3581
S':'
asbag69
(g90
g71
NtRp3582
(dp3583
g74
(dp3584
sg83
g3569
sg76
(lp3585
g69
(g70
g71
NtRp3586
(dp3587
g74
(dp3588
g82
I5
ssg83
g3582
sg76
(lp3589
g69
(g78
g71
NtRp3590
(dp3591
g74
(dp3592
g82
I4
ssg83
Nsg76
(lp3593
g69
(g85
g71
NtRp3594
(dp3595
g74
(dp3596
sg83
g3590
sg76
(lp3597
g69
(g90
g71
NtRp3598
(dp3599
g74
(dp3600
sg83
g3594
sg76
(lp3601
g69
(g70
g71
NtRp3602
(dp3603
g74
(dp3604
g82
I4
ssg83
g3598
sg76
(lp3605
S'*'
asbasbasbasbasbasbasbag69
(g85
g71
NtRp3606
(dp3607
g74
(dp3608
sg83
g3238
sg76
(lp3609
g69
(g90
g71
NtRp3610
(dp3611
g74
(dp3612
g94
g95
ssg83
g3606
sg76
(lp3613
S'headers'
p3614
asbag69
(g90
g71
NtRp3615
(dp3616
g74
(dp3617
g101
g102
ssg83
g3606
sg76
(lp3618
S':'
asbag69
(g90
g71
NtRp3619
(dp3620
g74
(dp3621
sg83
g3606
sg76
(lp3622
g69
(g70
g71
NtRp3623
(dp3624
g74
(dp3625
g82
I5
ssg83
g3619
sg76
(lp3626
g69
(g78
g71
NtRp3627
(dp3628
g74
(dp3629
g82
I4
ssg83
Nsg76
(lp3630
g69
(g85
g71
NtRp3631
(dp3632
g74
(dp3633
sg83
g3627
sg76
(lp3634
g69
(g90
g71
NtRp3635
(dp3636
g74
(dp3637
g94
g95
ssg83
g3631
sg76
(lp3638
S'Cache-Control'
p3639
asbag69
(g90
g71
NtRp3640
(dp3641
g74
(dp3642
g101
g102
ssg83
g3631
sg76
(lp3643
S':'
asbag69
(g90
g71
NtRp3644
(dp3645
g74
(dp3646
sg83
g3631
sg76
(lp3647
g69
(g70
g71
NtRp3648
(dp3649
g74
(dp3650
g82
I4
ssg83
g3644
sg76
(lp3651
S'no-store, no-cache, must-revalidate, post-check=0, pre-check=0'
p3652
asbasbasbag69
(g85
g71
NtRp3653
(dp3654
g74
(dp3655
sg83
g3627
sg76
(lp3656
g69
(g90
g71
NtRp3657
(dp3658
g74
(dp3659
g94
g95
ssg83
g3653
sg76
(lp3660
S'Content-Type'
p3661
asbag69
(g90
g71
NtRp3662
(dp3663
g74
(dp3664
g101
g102
ssg83
g3653
sg76
(lp3665
S':'
asbag69
(g90
g71
NtRp3666
(dp3667
g74
(dp3668
sg83
g3653
sg76
(lp3669
g69
(g70
g71
NtRp3670
(dp3671
g74
(dp3672
g82
I4
ssg83
g3666
sg76
(lp3673
S'text/html; charset=utf-8'
p3674
asbasbasbag69
(g85
g71
NtRp3675
(dp3676
g74
(dp3677
sg83
g3627
sg76
(lp3678
g69
(g90
g71
NtRp3679
(dp3680
g74
(dp3681
g94
g95
ssg83
g3675
sg76
(lp3682
S'Expires'
p3683
asbag69
(g90
g71
NtRp3684
(dp3685
g74
(dp3686
g101
g102
ssg83
g3675
sg76
(lp3687
S':'
asbag69
(g90
g71
NtRp3688
(dp3689
g74
(dp3690
sg83
g3675
sg76
(lp3691
g69
(g70
g71
NtRp3692
(dp3693
g74
(dp3694
g82
I4
ssg83
g3688
sg76
(lp3695
S'Sun, 22 Apr 2012 01:28:01 GMT'
p3696
asbasbasbag69
(g85
g71
NtRp3697
(dp3698
g74
(dp3699
sg83
g3627
sg76
(lp3700
g69
(g90
g71
NtRp3701
(dp3702
g74
(dp3703
g94
g95
ssg83
g3697
sg76
(lp3704
S'Pragma'
p3705
asbag69
(g90
g71
NtRp3706
(dp3707
g74
(dp3708
g101
g102
ssg83
g3697
sg76
(lp3709
S':'
asbag69
(g90
g71
NtRp3710
(dp3711
g74
(dp3712
sg83
g3697
sg76
(lp3713
g69
(g70
g71
NtRp3714
(dp3715
g74
(dp3716
g82
I4
ssg83
g3710
sg76
(lp3717
S'no-cache'
p3718
asbasbasbag69
(g85
g71
NtRp3719
(dp3720
g74
(dp3721
sg83
g3627
sg76
(lp3722
g69
(g90
g71
NtRp3723
(dp3724
g74
(dp3725
g94
g95
ssg83
g3719
sg76
(lp3726
S'X-Powered-By'
p3727
asbag69
(g90
g71
NtRp3728
(dp3729
g74
(dp3730
g101
g102
ssg83
g3719
sg76
(lp3731
S':'
asbag69
(g90
g71
NtRp3732
(dp3733
g74
(dp3734
sg83
g3719
sg76
(lp3735
g69
(g70
g71
NtRp3736
(dp3737
g74
(dp3738
g82
I4
ssg83
g3732
sg76
(lp3739
S'web2py'
p3740
asbasbasbasbasbasbasbag69
(g85
g71
NtRp3741
(dp3742
g74
(dp3743
sg83
g3238
sg76
(lp3744
g69
(g90
g71
NtRp3745
(dp3746
g74
(dp3747
g94
g95
ssg83
g3741
sg76
(lp3748
S'menu'
p3749
asbag69
(g90
g71
NtRp3750
(dp3751
g74
(dp3752
g101
g102
ssg83
g3741
sg76
(lp3753
S':'
asbag69
(g90
g71
NtRp3754
(dp3755
g74
(dp3756
sg83
g3741
sg76
(lp3757
g69
(g70
g71
NtRp3758
(dp3759
g74
(dp3760
g82
I5
ssg83
g3754
sg76
(lp3761
g69
(g78
g71
NtRp3762
(dp3763
g74
(dp3764
g82
I4
ssg83
Nsg76
(lp3765
g69
(g85
g71
NtRp3766
(dp3767
g74
(dp3768
sg83
g3762
sg76
(lp3769
g69
(g90
g71
NtRp3770
(dp3771
g74
(dp3772
sg83
g3766
sg76
(lp3773
g69
(g70
g71
NtRp3774
(dp3775
g74
(dp3776
g82
I4
ssg83
g3770
sg76
(lp3777
g69
(g78
g71
NtRp3778
(dp3779
g74
(dp3780
g82
I3
ssg83
Nsg76
(lp3781
g69
(g85
g71
NtRp3782
(dp3783
g74
(dp3784
sg83
g3778
sg76
(lp3785
g69
(g90
g71
NtRp3786
(dp3787
g74
(dp3788
sg83
g3782
sg76
(lp3789
g69
(g70
g71
NtRp3790
(dp3791
g74
(dp3792
g82
I3
ssg83
g3786
sg76
(lp3793
cgluon.languages
lazyT_unpickle
p3794
(S't\x06\x00\x00\x00Inicio'
tRp3795
asbasbasbag69
(g85
g71
NtRp3796
(dp3797
g74
(dp3798
sg83
g3778
sg76
(lp3799
g69
(g90
g71
NtRp3800
(dp3801
g74
(dp3802
sg83
g3796
sg76
(lp3803
g69
(g70
g71
NtRp3804
(dp3805
g74
(dp3806
g82
I3
ssg83
g3800
sg76
(lp3807
g1460
asbasbasbag69
(g85
g71
NtRp3808
(dp3809
g74
(dp3810
sg83
g3778
sg76
(lp3811
g69
(g90
g71
NtRp3812
(dp3813
g74
(dp3814
sg83
g3808
sg76
(lp3815
g69
(g70
g71
NtRp3816
(dp3817
g74
(dp3818
g82
I3
ssg83
g3812
sg76
(lp3819
S'/init/default/index'
p3820
asbasbasbag69
(g85
g71
NtRp3821
(dp3822
g74
(dp3823
sg83
g3778
sg76
(lp3824
g69
(g90
g71
NtRp3825
(dp3826
g74
(dp3827
sg83
g3821
sg76
(lp3828
g69
(g70
g71
NtRp3829
(dp3830
g74
(dp3831
g82
I3
ssg83
g3825
sg76
(lp3832
g69
(g78
g71
NtRp3833
(dp3834
g74
(dp3835
g82
I2
ssg83
Nsg76
(lp3836
sbasbasbasbasbasbasbasbag69
(g85
g71
NtRp3837
(dp3838
g74
(dp3839
sg83
g3762
sg76
(lp3840
g69
(g90
g71
NtRp3841
(dp3842
g74
(dp3843
sg83
g3837
sg76
(lp3844
g69
(g70
g71
NtRp3845
(dp3846
g74
(dp3847
g82
I4
ssg83
g3841
sg76
(lp3848
g69
(g78
g71
NtRp3849
(dp3850
g74
(dp3851
g82
I3
ssg83
Nsg76
(lp3852
g69
(g85
g71
NtRp3853
(dp3854
g74
(dp3855
sg83
g3849
sg76
(lp3856
g69
(g90
g71
NtRp3857
(dp3858
g74
(dp3859
sg83
g3853
sg76
(lp3860
g69
(g70
g71
NtRp3861
(dp3862
g74
(dp3863
g82
I3
ssg83
g3857
sg76
(lp3864
g3794
(S't\x07\x00\x00\x00cliente'
tRp3865
asbasbasbag69
(g85
g71
NtRp3866
(dp3867
g74
(dp3868
sg83
g3849
sg76
(lp3869
g69
(g90
g71
NtRp3870
(dp3871
g74
(dp3872
sg83
g3866
sg76
(lp3873
g69
(g70
g71
NtRp3874
(dp3875
g74
(dp3876
g82
I3
ssg83
g3870
sg76
(lp3877
g112
asbasbasbag69
(g85
g71
NtRp3878
(dp3879
g74
(dp3880
sg83
g3849
sg76
(lp3881
g69
(g90
g71
NtRp3882
(dp3883
g74
(dp3884
sg83
g3878
sg76
(lp3885
g69
(g70
g71
NtRp3886
(dp3887
g74
(dp3888
g82
I3
ssg83
g3882
sg76
(lp3889
S'/init/default/cliente'
p3890
asbasbasbag69
(g85
g71
NtRp3891
(dp3892
g74
(dp3893
sg83
g3849
sg76
(lp3894
g69
(g90
g71
NtRp3895
(dp3896
g74
(dp3897
sg83
g3891
sg76
(lp3898
g69
(g70
g71
NtRp3899
(dp3900
g74
(dp3901
g82
I3
ssg83
g3895
sg76
(lp3902
g69
(g78
g71
NtRp3903
(dp3904
g74
(dp3905
g82
I2
ssg83
Nsg76
(lp3906
sbasbasbasbasbasbasbasbag69
(g85
g71
NtRp3907
(dp3908
g74
(dp3909
sg83
g3762
sg76
(lp3910
g69
(g90
g71
NtRp3911
(dp3912
g74
(dp3913
sg83
g3907
sg76
(lp3914
g69
(g70
g71
NtRp3915
(dp3916
g74
(dp3917
g82
I4
ssg83
g3911
sg76
(lp3918
g69
(g78
g71
NtRp3919
(dp3920
g74
(dp3921
g82
I3
ssg83
Nsg76
(lp3922
g69
(g85
g71
NtRp3923
(dp3924
g74
(dp3925
sg83
g3919
sg76
(lp3926
g69
(g90
g71
NtRp3927
(dp3928
g74
(dp3929
sg83
g3923
sg76
(lp3930
g69
(g70
g71
NtRp3931
(dp3932
g74
(dp3933
g82
I3
ssg83
g3927
sg76
(lp3934
g3794
(S't\t\x00\x00\x00categoria'
tRp3935
asbasbasbag69
(g85
g71
NtRp3936
(dp3937
g74
(dp3938
sg83
g3919
sg76
(lp3939
g69
(g90
g71
NtRp3940
(dp3941
g74
(dp3942
sg83
g3936
sg76
(lp3943
g69
(g70
g71
NtRp3944
(dp3945
g74
(dp3946
g82
I3
ssg83
g3940
sg76
(lp3947
g112
asbasbasbag69
(g85
g71
NtRp3948
(dp3949
g74
(dp3950
sg83
g3919
sg76
(lp3951
g69
(g90
g71
NtRp3952
(dp3953
g74
(dp3954
sg83
g3948
sg76
(lp3955
g69
(g70
g71
NtRp3956
(dp3957
g74
(dp3958
g82
I3
ssg83
g3952
sg76
(lp3959
S'/init/default/categoria'
p3960
asbasbasbag69
(g85
g71
NtRp3961
(dp3962
g74
(dp3963
sg83
g3919
sg76
(lp3964
g69
(g90
g71
NtRp3965
(dp3966
g74
(dp3967
sg83
g3961
sg76
(lp3968
g69
(g70
g71
NtRp3969
(dp3970
g74
(dp3971
g82
I3
ssg83
g3965
sg76
(lp3972
g69
(g78
g71
NtRp3973
(dp3974
g74
(dp3975
g82
I2
ssg83
Nsg76
(lp3976
sbasbasbasbasbasbasbasbag69
(g85
g71
NtRp3977
(dp3978
g74
(dp3979
sg83
g3762
sg76
(lp3980
g69
(g90
g71
NtRp3981
(dp3982
g74
(dp3983
sg83
g3977
sg76
(lp3984
g69
(g70
g71
NtRp3985
(dp3986
g74
(dp3987
g82
I4
ssg83
g3981
sg76
(lp3988
g69
(g78
g71
NtRp3989
(dp3990
g74
(dp3991
g82
I3
ssg83
Nsg76
(lp3992
g69
(g85
g71
NtRp3993
(dp3994
g74
(dp3995
sg83
g3989
sg76
(lp3996
g69
(g90
g71
NtRp3997
(dp3998
g74
(dp3999
sg83
g3993
sg76
(lp4000
g69
(g70
g71
NtRp4001
(dp4002
g74
(dp4003
g82
I3
ssg83
g3997
sg76
(lp4004
g3794
(S't\t\x00\x00\x00articulos'
tRp4005
asbasbasbag69
(g85
g71
NtRp4006
(dp4007
g74
(dp4008
sg83
g3989
sg76
(lp4009
g69
(g90
g71
NtRp4010
(dp4011
g74
(dp4012
sg83
g4006
sg76
(lp4013
g69
(g70
g71
NtRp4014
(dp4015
g74
(dp4016
g82
I3
ssg83
g4010
sg76
(lp4017
g112
asbasbasbag69
(g85
g71
NtRp4018
(dp4019
g74
(dp4020
sg83
g3989
sg76
(lp4021
g69
(g90
g71
NtRp4022
(dp4023
g74
(dp4024
sg83
g4018
sg76
(lp4025
g69
(g70
g71
NtRp4026
(dp4027
g74
(dp4028
g82
I3
ssg83
g4022
sg76
(lp4029
S'/init/default/articulo'
p4030
asbasbasbag69
(g85
g71
NtRp4031
(dp4032
g74
(dp4033
sg83
g3989
sg76
(lp4034
g69
(g90
g71
NtRp4035
(dp4036
g74
(dp4037
sg83
g4031
sg76
(lp4038
g69
(g70
g71
NtRp4039
(dp4040
g74
(dp4041
g82
I3
ssg83
g4035
sg76
(lp4042
g69
(g78
g71
NtRp4043
(dp4044
g74
(dp4045
g82
I2
ssg83
Nsg76
(lp4046
sbasbasbasbasbasbasbasbag69
(g85
g71
NtRp4047
(dp4048
g74
(dp4049
sg83
g3762
sg76
(lp4050
g69
(g90
g71
NtRp4051
(dp4052
g74
(dp4053
sg83
g4047
sg76
(lp4054
g69
(g70
g71
NtRp4055
(dp4056
g74
(dp4057
g82
I4
ssg83
g4051
sg76
(lp4058
g69
(g78
g71
NtRp4059
(dp4060
g74
(dp4061
g82
I3
ssg83
Nsg76
(lp4062
g69
(g85
g71
NtRp4063
(dp4064
g74
(dp4065
sg83
g4059
sg76
(lp4066
g69
(g90
g71
NtRp4067
(dp4068
g74
(dp4069
sg83
g4063
sg76
(lp4070
g69
(g70
g71
NtRp4071
(dp4072
g74
(dp4073
g82
I3
ssg83
g4067
sg76
(lp4074
g3794
(S's\x13\x00\x00\x00Lista de Pendientes'
tRp4075
asbasbasbag69
(g85
g71
NtRp4076
(dp4077
g74
(dp4078
sg83
g4059
sg76
(lp4079
g69
(g90
g71
NtRp4080
(dp4081
g74
(dp4082
sg83
g4076
sg76
(lp4083
g69
(g70
g71
NtRp4084
(dp4085
g74
(dp4086
g82
I3
ssg83
g4080
sg76
(lp4087
g112
asbasbasbag69
(g85
g71
NtRp4088
(dp4089
g74
(dp4090
sg83
g4059
sg76
(lp4091
g69
(g90
g71
NtRp4092
(dp4093
g74
(dp4094
sg83
g4088
sg76
(lp4095
g69
(g70
g71
NtRp4096
(dp4097
g74
(dp4098
g82
I3
ssg83
g4092
sg76
(lp4099
S'/init/default/presupuestos2'
p4100
asbasbasbag69
(g85
g71
NtRp4101
(dp4102
g74
(dp4103
sg83
g4059
sg76
(lp4104
g69
(g90
g71
NtRp4105
(dp4106
g74
(dp4107
sg83
g4101
sg76
(lp4108
g69
(g70
g71
NtRp4109
(dp4110
g74
(dp4111
g82
I3
ssg83
g4105
sg76
(lp4112
g69
(g78
g71
NtRp4113
(dp4114
g74
(dp4115
g82
I2
ssg83
Nsg76
(lp4116
sbasbasbasbasbasbasbasbag69
(g85
g71
NtRp4117
(dp4118
g74
(dp4119
sg83
g3762
sg76
(lp4120
g69
(g90
g71
NtRp4121
(dp4122
g74
(dp4123
sg83
g4117
sg76
(lp4124
g69
(g70
g71
NtRp4125
(dp4126
g74
(dp4127
g82
I4
ssg83
g4121
sg76
(lp4128
g69
(g78
g71
NtRp4129
(dp4130
g74
(dp4131
g82
I3
ssg83
Nsg76
(lp4132
g69
(g85
g71
NtRp4133
(dp4134
g74
(dp4135
sg83
g4129
sg76
(lp4136
g69
(g90
g71
NtRp4137
(dp4138
g74
(dp4139
sg83
g4133
sg76
(lp4140
g69
(g70
g71
NtRp4141
(dp4142
g74
(dp4143
g82
I3
ssg83
g4137
sg76
(lp4144
g3794
(S't\x0c\x00\x00\x00Modificacion'
tRp4145
asbasbasbag69
(g85
g71
NtRp4146
(dp4147
g74
(dp4148
sg83
g4129
sg76
(lp4149
g69
(g90
g71
NtRp4150
(dp4151
g74
(dp4152
sg83
g4146
sg76
(lp4153
g69
(g70
g71
NtRp4154
(dp4155
g74
(dp4156
g82
I3
ssg83
g4150
sg76
(lp4157
g112
asbasbasbag69
(g85
g71
NtRp4158
(dp4159
g74
(dp4160
sg83
g4129
sg76
(lp4161
g69
(g90
g71
NtRp4162
(dp4163
g74
(dp4164
sg83
g4158
sg76
(lp4165
g69
(g70
g71
NtRp4166
(dp4167
g74
(dp4168
g82
I3
ssg83
g4162
sg76
(lp4169
S'/init/default/presupuestos'
p4170
asbasbasbag69
(g85
g71
NtRp4171
(dp4172
g74
(dp4173
sg83
g4129
sg76
(lp4174
g69
(g90
g71
NtRp4175
(dp4176
g74
(dp4177
sg83
g4171
sg76
(lp4178
g69
(g70
g71
NtRp4179
(dp4180
g74
(dp4181
g82
I3
ssg83
g4175
sg76
(lp4182
g69
(g78
g71
NtRp4183
(dp4184
g74
(dp4185
g82
I2
ssg83
Nsg76
(lp4186
sbasbasbasbasbasbasbasbag69
(g85
g71
NtRp4187
(dp4188
g74
(dp4189
sg83
g3762
sg76
(lp4190
g69
(g90
g71
NtRp4191
(dp4192
g74
(dp4193
sg83
g4187
sg76
(lp4194
g69
(g70
g71
NtRp4195
(dp4196
g74
(dp4197
g82
I4
ssg83
g4191
sg76
(lp4198
g69
(g78
g71
NtRp4199
(dp4200
g74
(dp4201
g82
I3
ssg83
Nsg76
(lp4202
g69
(g85
g71
NtRp4203
(dp4204
g74
(dp4205
sg83
g4199
sg76
(lp4206
g69
(g90
g71
NtRp4207
(dp4208
g74
(dp4209
sg83
g4203
sg76
(lp4210
g69
(g70
g71
NtRp4211
(dp4212
g74
(dp4213
g82
I3
ssg83
g4207
sg76
(lp4214
g3794
(S's\x0c\x00\x00\x00Nueva Salida'
tRp4215
asbasbasbag69
(g85
g71
NtRp4216
(dp4217
g74
(dp4218
sg83
g4199
sg76
(lp4219
g69
(g90
g71
NtRp4220
(dp4221
g74
(dp4222
sg83
g4216
sg76
(lp4223
g69
(g70
g71
NtRp4224
(dp4225
g74
(dp4226
g82
I3
ssg83
g4220
sg76
(lp4227
g112
asbasbasbag69
(g85
g71
NtRp4228
(dp4229
g74
(dp4230
sg83
g4199
sg76
(lp4231
g69
(g90
g71
NtRp4232
(dp4233
g74
(dp4234
sg83
g4228
sg76
(lp4235
g69
(g70
g71
NtRp4236
(dp4237
g74
(dp4238
g82
I3
ssg83
g4232
sg76
(lp4239
S'/init/default/movimientos'
p4240
asbasbasbag69
(g85
g71
NtRp4241
(dp4242
g74
(dp4243
sg83
g4199
sg76
(lp4244
g69
(g90
g71
NtRp4245
(dp4246
g74
(dp4247
sg83
g4241
sg76
(lp4248
g69
(g70
g71
NtRp4249
(dp4250
g74
(dp4251
g82
I3
ssg83
g4245
sg76
(lp4252
g69
(g78
g71
NtRp4253
(dp4254
g74
(dp4255
g82
I2
ssg83
Nsg76
(lp4256
sbasbasbasbasbasbasbasbasbasbasbasbag69
(g85
g71
NtRp4257
(dp4258
g74
(dp4259
sg83
g3238
sg76
(lp4260
g69
(g90
g71
NtRp4261
(dp4262
g74
(dp4263
g94
g95
ssg83
g4257
sg76
(lp4264
S'meta'
p4265
asbag69
(g90
g71
NtRp4266
(dp4267
g74
(dp4268
g101
g102
ssg83
g4257
sg76
(lp4269
S':'
asbag69
(g90
g71
NtRp4270
(dp4271
g74
(dp4272
sg83
g4257
sg76
(lp4273
g69
(g70
g71
NtRp4274
(dp4275
g74
(dp4276
g82
I5
ssg83
g4270
sg76
(lp4277
g69
(g78
g71
NtRp4278
(dp4279
g74
(dp4280
g82
I4
ssg83
Nsg76
(lp4281
g69
(g85
g71
NtRp4282
(dp4283
g74
(dp4284
sg83
g4278
sg76
(lp4285
g69
(g90
g71
NtRp4286
(dp4287
g74
(dp4288
g94
g95
ssg83
g4282
sg76
(lp4289
S'author'
p4290
asbag69
(g90
g71
NtRp4291
(dp4292
g74
(dp4293
g101
g102
ssg83
g4282
sg76
(lp4294
S':'
asbag69
(g90
g71
NtRp4295
(dp4296
g74
(dp4297
sg83
g4282
sg76
(lp4298
g69
(g70
g71
NtRp4299
(dp4300
g74
(dp4301
g82
I4
ssg83
g4295
sg76
(lp4302
S'jorge a <jorge.agua@gmail.com>'
p4303
asbasbasbag69
(g85
g71
NtRp4304
(dp4305
g74
(dp4306
sg83
g4278
sg76
(lp4307
g69
(g90
g71
NtRp4308
(dp4309
g74
(dp4310
g94
g95
ssg83
g4304
sg76
(lp4311
S'description'
p4312
asbag69
(g90
g71
NtRp4313
(dp4314
g74
(dp4315
g101
g102
ssg83
g4304
sg76
(lp4316
S':'
asbag69
(g90
g71
NtRp4317
(dp4318
g74
(dp4319
sg83
g4304
sg76
(lp4320
g69
(g70
g71
NtRp4321
(dp4322
g74
(dp4323
g82
I4
ssg83
g4317
sg76
(lp4324
S''
asbasbasbag69
(g85
g71
NtRp4325
(dp4326
g74
(dp4327
sg83
g4278
sg76
(lp4328
g69
(g90
g71
NtRp4329
(dp4330
g74
(dp4331
g94
g95
ssg83
g4325
sg76
(lp4332
S'keywords'
p4333
asbag69
(g90
g71
NtRp4334
(dp4335
g74
(dp4336
g101
g102
ssg83
g4325
sg76
(lp4337
S':'
asbag69
(g90
g71
NtRp4338
(dp4339
g74
(dp4340
sg83
g4325
sg76
(lp4341
g69
(g70
g71
NtRp4342
(dp4343
g74
(dp4344
g82
I4
ssg83
g4338
sg76
(lp4345
S''
asbasbasbasbasbasbasbag69
(g85
g71
NtRp4346
(dp4347
g74
(dp4348
sg83
g3238
sg76
(lp4349
g69
(g90
g71
NtRp4350
(dp4351
g74
(dp4352
g94
g95
ssg83
g4346
sg76
(lp4353
S'postprocessing'
p4354
asbag69
(g90
g71
NtRp4355
(dp4356
g74
(dp4357
g101
g102
ssg83
g4346
sg76
(lp4358
S':'
asbag69
(g90
g71
NtRp4359
(dp4360
g74
(dp4361
sg83
g4346
sg76
(lp4362
g69
(g70
g71
NtRp4363
(dp4364
g74
(dp4365
g82
I5
ssg83
g4359
sg76
(lp4366
g69
(g78
g71
NtRp4367
(dp4368
g74
(dp4369
g82
I4
ssg83
Nsg76
(lp4370
sbasbasbasbag69
(g85
g71
NtRp4371
(dp4372
g74
(dp4373
sg83
g3238
sg76
(lp4374
g69
(g90
g71
NtRp4375
(dp4376
g74
(dp4377
g94
g95
ssg83
g4371
sg76
(lp4378
S'session_file'
p4379
asbag69
(g90
g71
NtRp4380
(dp4381
g74
(dp4382
g101
g102
ssg83
g4371
sg76
(lp4383
S':'
asbag69
(g90
g71
NtRp4384
(dp4385
g74
(dp4386
sg83
g4371
sg76
(lp4387
g69
(g70
g71
NtRp4388
(dp4389
g74
(dp4390
g82
I5
ssg83
g4384
sg76
(lp4391
S"<open file 'c:\\Users\\Jorge\\Downloads\\web2py_src\\web2py\\applications\\init\\sessions\\127.0.0.1-66e156be-9dc8-4ace-8e89-ad9e90c7093a', mode 'rb+' at 0x0000000009118C00>"
p4392
asbasbasbag69
(g85
g71
NtRp4393
(dp4394
g74
(dp4395
sg83
g3238
sg76
(lp4396
g69
(g90
g71
NtRp4397
(dp4398
g74
(dp4399
g94
g95
ssg83
g4393
sg76
(lp4400
S'session_filename'
p4401
asbag69
(g90
g71
NtRp4402
(dp4403
g74
(dp4404
g101
g102
ssg83
g4393
sg76
(lp4405
S':'
asbag69
(g90
g71
NtRp4406
(dp4407
g74
(dp4408
sg83
g4393
sg76
(lp4409
g69
(g70
g71
NtRp4410
(dp4411
g74
(dp4412
g82
I5
ssg83
g4406
sg76
(lp4413
S'c:\\Users\\Jorge\\Downloads\\web2py_src\\web2py\\applications\\init\\sessions\\127.0.0.1-66e156be-9dc8-4ace-8e89-ad9e90c7093a'
p4414
asbasbasbag69
(g85
g71
NtRp4415
(dp4416
g74
(dp4417
sg83
g3238
sg76
(lp4418
g69
(g90
g71
NtRp4419
(dp4420
g74
(dp4421
g94
g95
ssg83
g4415
sg76
(lp4422
S'session_id'
p4423
asbag69
(g90
g71
NtRp4424
(dp4425
g74
(dp4426
g101
g102
ssg83
g4415
sg76
(lp4427
S':'
asbag69
(g90
g71
NtRp4428
(dp4429
g74
(dp4430
sg83
g4415
sg76
(lp4431
g69
(g70
g71
NtRp4432
(dp4433
g74
(dp4434
g82
I5
ssg83
g4428
sg76
(lp4435
S'127.0.0.1-66e156be-9dc8-4ace-8e89-ad9e90c7093a'
p4436
asbasbasbag69
(g85
g71
NtRp4437
(dp4438
g74
(dp4439
sg83
g3238
sg76
(lp4440
g69
(g90
g71
NtRp4441
(dp4442
g74
(dp4443
g94
g95
ssg83
g4437
sg76
(lp4444
S'session_id_name'
p4445
asbag69
(g90
g71
NtRp4446
(dp4447
g74
(dp4448
g101
g102
ssg83
g4437
sg76
(lp4449
S':'
asbag69
(g90
g71
NtRp4450
(dp4451
g74
(dp4452
sg83
g4437
sg76
(lp4453
g69
(g70
g71
NtRp4454
(dp4455
g74
(dp4456
g82
I5
ssg83
g4450
sg76
(lp4457
g3295
asbasbasbag69
(g85
g71
NtRp4458
(dp4459
g74
(dp4460
sg83
g3238
sg76
(lp4461
g69
(g90
g71
NtRp4462
(dp4463
g74
(dp4464
g94
g95
ssg83
g4458
sg76
(lp4465
S'session_locked'
p4466
asbag69
(g90
g71
NtRp4467
(dp4468
g74
(dp4469
g101
g102
ssg83
g4458
sg76
(lp4470
S':'
asbag69
(g90
g71
NtRp4471
(dp4472
g74
(dp4473
sg83
g4458
sg76
(lp4474
g69
(g70
g71
NtRp4475
(dp4476
g74
(dp4477
g82
I5
ssg83
g4471
sg76
(lp4478
g1460
asbasbasbag69
(g85
g71
NtRp4479
(dp4480
g74
(dp4481
sg83
g3238
sg76
(lp4482
g69
(g90
g71
NtRp4483
(dp4484
g74
(dp4485
g94
g95
ssg83
g4479
sg76
(lp4486
S'session_new'
p4487
asbag69
(g90
g71
NtRp4488
(dp4489
g74
(dp4490
g101
g102
ssg83
g4479
sg76
(lp4491
S':'
asbag69
(g90
g71
NtRp4492
(dp4493
g74
(dp4494
sg83
g4479
sg76
(lp4495
g69
(g70
g71
NtRp4496
(dp4497
g74
(dp4498
g82
I5
ssg83
g4492
sg76
(lp4499
g112
asbasbasbag69
(g85
g71
NtRp4500
(dp4501
g74
(dp4502
sg83
g3238
sg76
(lp4503
g69
(g90
g71
NtRp4504
(dp4505
g74
(dp4506
g94
g95
ssg83
g4500
sg76
(lp4507
S'status'
p4508
asbag69
(g90
g71
NtRp4509
(dp4510
g74
(dp4511
g101
g102
ssg83
g4500
sg76
(lp4512
S':'
asbag69
(g90
g71
NtRp4513
(dp4514
g74
(dp4515
sg83
g4500
sg76
(lp4516
g69
(g70
g71
NtRp4517
(dp4518
g74
(dp4519
g82
I5
ssg83
g4513
sg76
(lp4520
S'200'
p4521
asbasbasbag69
(g85
g71
NtRp4522
(dp4523
g74
(dp4524
sg83
g3238
sg76
(lp4525
g69
(g90
g71
NtRp4526
(dp4527
g74
(dp4528
g94
g95
ssg83
g4522
sg76
(lp4529
S'subtitle'
p4530
asbag69
(g90
g71
NtRp4531
(dp4532
g74
(dp4533
g101
g102
ssg83
g4522
sg76
(lp4534
S':'
asbag69
(g90
g71
NtRp4535
(dp4536
g74
(dp4537
sg83
g4522
sg76
(lp4538
g69
(g70
g71
NtRp4539
(dp4540
g74
(dp4541
g82
I5
ssg83
g4535
sg76
(lp4542
S'powered by jorge'
p4543
asbasbasbag69
(g85
g71
NtRp4544
(dp4545
g74
(dp4546
sg83
g3238
sg76
(lp4547
g69
(g90
g71
NtRp4548
(dp4549
g74
(dp4550
g94
g95
ssg83
g4544
sg76
(lp4551
S'title'
p4552
asbag69
(g90
g71
NtRp4553
(dp4554
g74
(dp4555
g101
g102
ssg83
g4544
sg76
(lp4556
S':'
asbag69
(g90
g71
NtRp4557
(dp4558
g74
(dp4559
sg83
g4544
sg76
(lp4560
g69
(g70
g71
NtRp4561
(dp4562
g74
(dp4563
g82
I5
ssg83
g4557
sg76
(lp4564
S'mi nueva app'
p4565
asbasbasbag69
(g85
g71
NtRp4566
(dp4567
g74
(dp4568
sg83
g3238
sg76
(lp4569
g69
(g90
g71
NtRp4570
(dp4571
g74
(dp4572
g94
g95
ssg83
g4566
sg76
(lp4573
g2124
asbag69
(g90
g71
NtRp4574
(dp4575
g74
(dp4576
g101
g102
ssg83
g4566
sg76
(lp4577
S':'
asbag69
(g90
g71
NtRp4578
(dp4579
g74
(dp4580
sg83
g4566
sg76
(lp4581
g69
(g70
g71
NtRp4582
(dp4583
g74
(dp4584
g82
I5
ssg83
g4578
sg76
(lp4585
g2137
asbasbasbag69
(g85
g71
NtRp4586
(dp4587
g74
(dp4588
sg83
g3238
sg76
(lp4589
g69
(g90
g71
NtRp4590
(dp4591
g74
(dp4592
g94
g95
ssg83
g4586
sg76
(lp4593
S'view'
p4594
asbag69
(g90
g71
NtRp4595
(dp4596
g74
(dp4597
g101
g102
ssg83
g4586
sg76
(lp4598
S':'
asbag69
(g90
g71
NtRp4599
(dp4600
g74
(dp4601
sg83
g4586
sg76
(lp4602
g69
(g70
g71
NtRp4603
(dp4604
g74
(dp4605
g82
I5
ssg83
g4599
sg76
(lp4606
S'default/index.html'
p4607
asbasbasbasbasbsS'locals'
p4608
(dp4609
g4
S"r'c:\\Users\\Jorge\\Downloads\\web2py_src\\web2py\\applications\\init\\controllers/default.py'"
p4610
sg6
S"'# -*- coding: utf-8 -*-\\nif 0:\\n    from gluon.glo...orm=form)\\nresponse._vars=response._caller(index)\\n'"
p4611
sssS'traceback'
p4612
S'Traceback (most recent call last):\n  File "c:\\Users\\Jorge\\Downloads\\web2py_src\\web2py\\gluon\\restricted.py", line 204, in restricted\n    ccode = compile2(code,layer)\n  File "c:\\Users\\Jorge\\Downloads\\web2py_src\\web2py\\gluon\\restricted.py", line 189, in compile2\n    return compile(code.rstrip().replace(\'\\r\\n\',\'\\n\')+\'\\n\', layer, \'exec\')\n  File "c:\\Users\\Jorge\\Downloads\\web2py_src\\web2py\\applications\\init\\controllers/default.py", line 162\n    ],\n    ^\nSyntaxError: invalid syntax\n'
p4613
s.