(dp1
S'output'
p2
S"<type 'exceptions.SyntaxError'> invalid syntax (default/prueba.html, line 32)"
p3
sS'layer'
p4
S'c:\\Users\\Jorge\\Downloads\\web2py_src\\web2py\\applications\\init\\views\\default/prueba.html'
p5
sS'code'
p6
S'response.write(\'<!DOCTYPE html PUBLIC "-//W3C//DTD XHTML 1.0 Transitional//EN" "http://www.w3.org/TR/xhtml1/DTD/xhtml1-transitional.dtd">\\n<!--\\nAuthor: Reality Software\\nWebsite: http://www.realitysoftware.ca\\nNote: This is a free template released under the Creative Commons Attribution 3.0 license, \\nwhich means you can use it in any way you want provided you keep the link to the author intact.\\n-->\\n<html xmlns="http://www.w3.org/1999/xhtml">\\n <head>\\n  <title>\\n   \', escape=False)\nresponse.write(response.title or request.application)\nresponse.write(\'\\n  </title>\\n  \', escape=False)\nresponse.files.append(URL(request.application,\'static\',\'plugin_layouts/layouts/Colorus/style.css\'))\nresponse.write(\'\\n  \', escape=False)\nresponse.files.append(URL(\'static\',\'plugin_layouts/superfish.js\'))\nresponse.write(\'\\n  \', escape=False)\nresponse.write(\'<script type="text/javascript"><!--\\n    // These variables are used by the web2py_ajax_init function in web2py_ajax.js (which is loaded below).\\n    var w2p_ajax_confirm_message = "\', escape=False)\nresponse.write(T(\'Are you sure you want to delete this object?\'))\nresponse.write(\'";\\n    var w2p_ajax_date_format = "\', escape=False)\nresponse.write(T(\'%Y-%m-%d\'))\nresponse.write(\'";\\n    var w2p_ajax_datetime_format = "\', escape=False)\nresponse.write(T(\'%Y-%m-%d %H:%M:%S\'))\nresponse.write(\'";\\n    //--></script>\\n\', escape=False)\nresponse.files.insert(0,URL(\'static\',\'js/jquery.js\'))\nresponse.files.insert(1,URL(\'static\',\'css/calendar.css\'))\nresponse.files.insert(2,URL(\'static\',\'js/calendar.js\'))\nresponse.files.insert(3,URL(\'static\',\'js/web2py.js\'))\nresponse.include_meta()\nresponse.include_files()\nresponse.write(\'\\n\', escape=False)\nresponse.write(\'\\n  <style>\\nul.web2py-menu-vertical { width: 150px; position: relative; top:1em; left:1em;  z-index:30; border:0; margin:0; padding: 0; list-style: none; text-decoration: none;}\\nul.web2py-menu-vertical li { margin:0; padding:0; border:0; width: 150px; background: black; text-align:left;}\\nul.web2py-menu-vertical li a { margin:0; padding: 1px 3px 1px 3px; border:0; width: 144px; color: white; font-size:12px;}\\ndiv.flash { position: fixed; float: right; padding: 10px; top: 10px; right: 30px; opacity: 0.75; margin: 10px 10px 10px 10px; text-align: center; clear: both; color: #fff; font-size: 11pt; text-align: center; vertical-align: middle; cursor: pointer; background: black; border: 2px solid #fff; -moz-border-radius: 5px; -webkit-border-radius: 5px; z-index: 2; }\\ndiv.error { background-color: red; color: white; padding: 3px; }\\n.auth_navbar { text-align:right; z-index:20; position: absolute; top: 2px; right:30px; border:0; padding:0 }\\n  </style>\\n </head>\\n <body>\\n  <!-- start header -->\\n  <div id="right_footer">\\n  \', escape=False)\ntry:\n    response.write(auth.navbar(action=URL(\'default\',\'user\')))\nexcept:pass\nresponse.write(\'\\n  </div>\\n  <!-- header -->\\n  <div id="header">\\n   <div id="logo">\\n    <a href="#">\\n     Sistema de Control de Stock\\n    </a>\\n   </div>\\n   <div id="menu">\\n    \', escape=False)\nresponse.write(MENU(response.menu,_class=\'web2py-menu\'))\nresponse.write(\'\\n    <script>\\n      jQuery(document).ready(function(){jQuery(\\\'ul.web2py-menu\\\').superfish({delay:400});});\\n    </script>\\n   </div>\\n  </div>\\n  <!--end header -->\\n  <!-- main -->\\n  <div id="main">\\n   <div id="content">\\n    <div class="flash">\', escape=False)\nresponse.write(response.flash or \'\')\nresponse.write(\'</div>\\n    \', escape=False)\nresponse.write(\'\\r\\n\', escape=False)\n${id\nresponse.write(\'\\r\\n\', escape=False)\nresponse.write(form)\nresponse.write(\'\\n   </div>\\n   <!-- footer -->\\n   <div id="footer">\\n    <div id="left_footer">\\n     &copy; Copyright 2012\\n     <strong>\\n      Dise&ntilde;o:\\n     </strong>\\n     Jorge A.\\n    </div>\\n    <div id="right_footer">\\n     <!-- Please do not change or delete this link. Read the license! Thanks. :-) -->\\n     Programado por:\\n     <a href="http://www.google.com.ar" title="Pani Soft">\\n      Pani Software \\n     </a>\\n    </div>\\n   </div>\\n   <!-- end footer -->\\n  </div>\\n  <!-- end main -->\\n </body>\\n</html>\\n\', escape=False)'
p7
sS'snapshot'
p8
(dp9
S'exception'
p10
(dp11
S'__getslice__'
p12
S"<method-wrapper '__getslice__' of exceptions.SyntaxError object>"
p13
sS'text'
p14
S"'${id\\n'"
p15
sS'__str__'
p16
S"<method-wrapper '__str__' of exceptions.SyntaxError object>"
p17
sS'__reduce__'
p18
S'<built-in method __reduce__ of exceptions.SyntaxError object>'
p19
sS'__dict__'
p20
S'{}'
p21
sS'__sizeof__'
p22
S'<built-in method __sizeof__ of exceptions.SyntaxError object>'
p23
sS'__init__'
p24
S"<method-wrapper '__init__' of exceptions.SyntaxError object>"
p25
sS'__setattr__'
p26
S"<method-wrapper '__setattr__' of exceptions.SyntaxError object>"
p27
sS'__reduce_ex__'
p28
S'<built-in method __reduce_ex__ of exceptions.SyntaxError object>'
p29
sS'__new__'
p30
S'<built-in method __new__ of type object>'
p31
sS'__format__'
p32
S'<built-in method __format__ of exceptions.SyntaxError object>'
p33
sS'__class__'
p34
S"<type 'exceptions.SyntaxError'>"
p35
sS'filename'
p36
S"r'c:\\Users\\Jorge\\Downloads\\web2py_src\\web2py\\applications\\init\\views\\default/prueba.html'"
p37
sS'lineno'
p38
S'32'
p39
sS'msg'
p40
S"'invalid syntax'"
p41
sS'__doc__'
p42
S"'Invalid syntax.'"
p43
sS'__getitem__'
p44
S"<method-wrapper '__getitem__' of exceptions.SyntaxError object>"
p45
sS'__setstate__'
p46
S'<built-in method __setstate__ of exceptions.SyntaxError object>'
p47
sS'__getattribute__'
p48
S"<method-wrapper '__getattribute__' of exceptions.SyntaxError object>"
p49
sS'print_file_and_line'
p50
S'None'
p51
sS'args'
p52
S"('invalid syntax', (r'c:\\Users\\Jorge\\Downloads\\web2py_src\\web2py\\applications\\init\\views\\default/prueba.html', 32, 1, '${id\\n'))"
p53
sS'__subclasshook__'
p54
S'<built-in method __subclasshook__ of type object>'
p55
sS'offset'
p56
S'1'
sS'__unicode__'
p57
S'<built-in method __unicode__ of exceptions.SyntaxError object>'
p58
sS'__delattr__'
p59
S"<method-wrapper '__delattr__' of exceptions.SyntaxError object>"
p60
sS'__repr__'
p61
S"<method-wrapper '__repr__' of exceptions.SyntaxError object>"
p62
sS'__hash__'
p63
S"<method-wrapper '__hash__' of exceptions.SyntaxError object>"
p64
ssS'evalue'
p65
S'invalid syntax (default/prueba.html, line 32)'
p66
sS'request'
p67
ccopy_reg
_reconstructor
p68
(cgluon.html
BEAUTIFY
p69
c__builtin__
object
p70
NtRp71
(dp72
S'attributes'
p73
(dp74
sS'components'
p75
(lp76
g68
(cgluon.html
TABLE
p77
g70
NtRp78
(dp79
g73
(dp80
S'level'
p81
I5
ssS'parent'
p82
Nsg75
(lp83
g68
(cgluon.html
TR
p84
g70
NtRp85
(dp86
g73
(dp87
sg82
g78
sg75
(lp88
g68
(cgluon.html
TD
p89
g70
NtRp90
(dp91
g73
(dp92
S'_style'
p93
S'font-weight:bold;vertical-align:top'
p94
ssg82
g85
sg75
(lp95
S'ajax'
p96
asbag68
(g89
g70
NtRp97
(dp98
g73
(dp99
S'_valign'
p100
S'top'
p101
ssg82
g85
sg75
(lp102
S':'
asbag68
(g89
g70
NtRp103
(dp104
g73
(dp105
sg82
g85
sg75
(lp106
g68
(g69
g70
NtRp107
(dp108
g73
(dp109
g81
I5
ssg82
g103
sg75
(lp110
S'False'
p111
asbasbasbag68
(g84
g70
NtRp112
(dp113
g73
(dp114
sg82
g78
sg75
(lp115
g68
(g89
g70
NtRp116
(dp117
g73
(dp118
g93
g94
ssg82
g112
sg75
(lp119
S'application'
p120
asbag68
(g89
g70
NtRp121
(dp122
g73
(dp123
g100
g101
ssg82
g112
sg75
(lp124
S':'
asbag68
(g89
g70
NtRp125
(dp126
g73
(dp127
sg82
g112
sg75
(lp128
g68
(g69
g70
NtRp129
(dp130
g73
(dp131
g81
I5
ssg82
g125
sg75
(lp132
S'init'
p133
asbasbasbag68
(g84
g70
NtRp134
(dp135
g73
(dp136
sg82
g78
sg75
(lp137
g68
(g89
g70
NtRp138
(dp139
g73
(dp140
g93
g94
ssg82
g134
sg75
(lp141
g52
asbag68
(g89
g70
NtRp142
(dp143
g73
(dp144
g100
g101
ssg82
g134
sg75
(lp145
S':'
asbag68
(g89
g70
NtRp146
(dp147
g73
(dp148
sg82
g134
sg75
(lp149
g68
(g69
g70
NtRp150
(dp151
g73
(dp152
g81
I5
ssg82
g146
sg75
(lp153
g68
(g77
g70
NtRp154
(dp155
g73
(dp156
g81
I4
ssg82
Nsg75
(lp157
g68
(g84
g70
NtRp158
(dp159
g73
(dp160
sg82
g154
sg75
(lp161
g68
(g89
g70
NtRp162
(dp163
g73
(dp164
sg82
g158
sg75
(lp165
g68
(g69
g70
NtRp166
(dp167
g73
(dp168
g81
I4
ssg82
g162
sg75
(lp169
S'read'
p170
asbasbasbag68
(g84
g70
NtRp171
(dp172
g73
(dp173
sg82
g154
sg75
(lp174
g68
(g89
g70
NtRp175
(dp176
g73
(dp177
sg82
g171
sg75
(lp178
g68
(g69
g70
NtRp179
(dp180
g73
(dp181
g81
I4
ssg82
g175
sg75
(lp182
S'movimientos'
p183
asbasbasbag68
(g84
g70
NtRp184
(dp185
g73
(dp186
sg82
g154
sg75
(lp187
g68
(g89
g70
NtRp188
(dp189
g73
(dp190
sg82
g184
sg75
(lp191
g68
(g69
g70
NtRp192
(dp193
g73
(dp194
g81
I4
ssg82
g188
sg75
(lp195
S'20'
p196
asbasbasbasbasbasbasbag68
(g84
g70
NtRp197
(dp198
g73
(dp199
sg82
g78
sg75
(lp200
g68
(g89
g70
NtRp201
(dp202
g73
(dp203
g93
g94
ssg82
g197
sg75
(lp204
S'body'
p205
asbag68
(g89
g70
NtRp206
(dp207
g73
(dp208
g100
g101
ssg82
g197
sg75
(lp209
S':'
asbag68
(g89
g70
NtRp210
(dp211
g73
(dp212
sg82
g197
sg75
(lp213
g68
(g69
g70
NtRp214
(dp215
g73
(dp216
g81
I5
ssg82
g210
sg75
(lp217
S'<cStringIO.StringO object at 0x000000000ABD1110>'
p218
asbasbasbag68
(g84
g70
NtRp219
(dp220
g73
(dp221
sg82
g78
sg75
(lp222
g68
(g89
g70
NtRp223
(dp224
g73
(dp225
g93
g94
ssg82
g219
sg75
(lp226
S'client'
p227
asbag68
(g89
g70
NtRp228
(dp229
g73
(dp230
g100
g101
ssg82
g219
sg75
(lp231
S':'
asbag68
(g89
g70
NtRp232
(dp233
g73
(dp234
sg82
g219
sg75
(lp235
g68
(g69
g70
NtRp236
(dp237
g73
(dp238
g81
I5
ssg82
g232
sg75
(lp239
S'127.0.0.1'
p240
asbasbasbag68
(g84
g70
NtRp241
(dp242
g73
(dp243
sg82
g78
sg75
(lp244
g68
(g89
g70
NtRp245
(dp246
g73
(dp247
g93
g94
ssg82
g241
sg75
(lp248
S'controller'
p249
asbag68
(g89
g70
NtRp250
(dp251
g73
(dp252
g100
g101
ssg82
g241
sg75
(lp253
S':'
asbag68
(g89
g70
NtRp254
(dp255
g73
(dp256
sg82
g241
sg75
(lp257
g68
(g69
g70
NtRp258
(dp259
g73
(dp260
g81
I5
ssg82
g254
sg75
(lp261
S'default'
p262
asbasbasbag68
(g84
g70
NtRp263
(dp264
g73
(dp265
sg82
g78
sg75
(lp266
g68
(g89
g70
NtRp267
(dp268
g73
(dp269
g93
g94
ssg82
g263
sg75
(lp270
S'cookies'
p271
asbag68
(g89
g70
NtRp272
(dp273
g73
(dp274
g100
g101
ssg82
g263
sg75
(lp275
S':'
asbag68
(g89
g70
NtRp276
(dp277
g73
(dp278
sg82
g263
sg75
(lp279
g68
(g69
g70
NtRp280
(dp281
g73
(dp282
g81
I5
ssg82
g276
sg75
(lp283
g68
(g77
g70
NtRp284
(dp285
g73
(dp286
g81
I4
ssg82
Nsg75
(lp287
g68
(g84
g70
NtRp288
(dp289
g73
(dp290
sg82
g284
sg75
(lp291
g68
(g89
g70
NtRp292
(dp293
g73
(dp294
g93
g94
ssg82
g288
sg75
(lp295
S'session_id_admin'
p296
asbag68
(g89
g70
NtRp297
(dp298
g73
(dp299
g100
g101
ssg82
g288
sg75
(lp300
S':'
asbag68
(g89
g70
NtRp301
(dp302
g73
(dp303
sg82
g288
sg75
(lp304
g68
(g69
g70
NtRp305
(dp306
g73
(dp307
g81
I4
ssg82
g301
sg75
(lp308
g68
(g77
g70
NtRp309
(dp310
g73
(dp311
g81
I3
ssg82
Nsg75
(lp312
g68
(g84
g70
NtRp313
(dp314
g73
(dp315
sg82
g309
sg75
(lp316
g68
(g89
g70
NtRp317
(dp318
g73
(dp319
g93
g94
ssg82
g313
sg75
(lp320
S'comment'
p321
asbag68
(g89
g70
NtRp322
(dp323
g73
(dp324
g100
g101
ssg82
g313
sg75
(lp325
S':'
asbag68
(g89
g70
NtRp326
(dp327
g73
(dp328
sg82
g313
sg75
(lp329
g68
(g69
g70
NtRp330
(dp331
g73
(dp332
g81
I3
ssg82
g326
sg75
(lp333
S''
asbasbasbag68
(g84
g70
NtRp334
(dp335
g73
(dp336
sg82
g309
sg75
(lp337
g68
(g89
g70
NtRp338
(dp339
g73
(dp340
g93
g94
ssg82
g334
sg75
(lp341
S'domain'
p342
asbag68
(g89
g70
NtRp343
(dp344
g73
(dp345
g100
g101
ssg82
g334
sg75
(lp346
S':'
asbag68
(g89
g70
NtRp347
(dp348
g73
(dp349
sg82
g334
sg75
(lp350
g68
(g69
g70
NtRp351
(dp352
g73
(dp353
g81
I3
ssg82
g347
sg75
(lp354
S''
asbasbasbag68
(g84
g70
NtRp355
(dp356
g73
(dp357
sg82
g309
sg75
(lp358
g68
(g89
g70
NtRp359
(dp360
g73
(dp361
g93
g94
ssg82
g355
sg75
(lp362
S'expires'
p363
asbag68
(g89
g70
NtRp364
(dp365
g73
(dp366
g100
g101
ssg82
g355
sg75
(lp367
S':'
asbag68
(g89
g70
NtRp368
(dp369
g73
(dp370
sg82
g355
sg75
(lp371
g68
(g69
g70
NtRp372
(dp373
g73
(dp374
g81
I3
ssg82
g368
sg75
(lp375
S''
asbasbasbag68
(g84
g70
NtRp376
(dp377
g73
(dp378
sg82
g309
sg75
(lp379
g68
(g89
g70
NtRp380
(dp381
g73
(dp382
g93
g94
ssg82
g376
sg75
(lp383
S'httponly'
p384
asbag68
(g89
g70
NtRp385
(dp386
g73
(dp387
g100
g101
ssg82
g376
sg75
(lp388
S':'
asbag68
(g89
g70
NtRp389
(dp390
g73
(dp391
sg82
g376
sg75
(lp392
g68
(g69
g70
NtRp393
(dp394
g73
(dp395
g81
I3
ssg82
g389
sg75
(lp396
S''
asbasbasbag68
(g84
g70
NtRp397
(dp398
g73
(dp399
sg82
g309
sg75
(lp400
g68
(g89
g70
NtRp401
(dp402
g73
(dp403
g93
g94
ssg82
g397
sg75
(lp404
S'max-age'
p405
asbag68
(g89
g70
NtRp406
(dp407
g73
(dp408
g100
g101
ssg82
g397
sg75
(lp409
S':'
asbag68
(g89
g70
NtRp410
(dp411
g73
(dp412
sg82
g397
sg75
(lp413
g68
(g69
g70
NtRp414
(dp415
g73
(dp416
g81
I3
ssg82
g410
sg75
(lp417
S''
asbasbasbag68
(g84
g70
NtRp418
(dp419
g73
(dp420
sg82
g309
sg75
(lp421
g68
(g89
g70
NtRp422
(dp423
g73
(dp424
g93
g94
ssg82
g418
sg75
(lp425
S'path'
p426
asbag68
(g89
g70
NtRp427
(dp428
g73
(dp429
g100
g101
ssg82
g418
sg75
(lp430
S':'
asbag68
(g89
g70
NtRp431
(dp432
g73
(dp433
sg82
g418
sg75
(lp434
g68
(g69
g70
NtRp435
(dp436
g73
(dp437
g81
I3
ssg82
g431
sg75
(lp438
S''
asbasbasbag68
(g84
g70
NtRp439
(dp440
g73
(dp441
sg82
g309
sg75
(lp442
g68
(g89
g70
NtRp443
(dp444
g73
(dp445
g93
g94
ssg82
g439
sg75
(lp446
S'secure'
p447
asbag68
(g89
g70
NtRp448
(dp449
g73
(dp450
g100
g101
ssg82
g439
sg75
(lp451
S':'
asbag68
(g89
g70
NtRp452
(dp453
g73
(dp454
sg82
g439
sg75
(lp455
g68
(g69
g70
NtRp456
(dp457
g73
(dp458
g81
I3
ssg82
g452
sg75
(lp459
S''
asbasbasbag68
(g84
g70
NtRp460
(dp461
g73
(dp462
sg82
g309
sg75
(lp463
g68
(g89
g70
NtRp464
(dp465
g73
(dp466
g93
g94
ssg82
g460
sg75
(lp467
S'version'
p468
asbag68
(g89
g70
NtRp469
(dp470
g73
(dp471
g100
g101
ssg82
g460
sg75
(lp472
S':'
asbag68
(g89
g70
NtRp473
(dp474
g73
(dp475
sg82
g460
sg75
(lp476
g68
(g69
g70
NtRp477
(dp478
g73
(dp479
g81
I3
ssg82
g473
sg75
(lp480
S''
asbasbasbasbasbasbasbag68
(g84
g70
NtRp481
(dp482
g73
(dp483
sg82
g284
sg75
(lp484
g68
(g89
g70
NtRp485
(dp486
g73
(dp487
g93
g94
ssg82
g481
sg75
(lp488
S'session_id_init'
p489
asbag68
(g89
g70
NtRp490
(dp491
g73
(dp492
g100
g101
ssg82
g481
sg75
(lp493
S':'
asbag68
(g89
g70
NtRp494
(dp495
g73
(dp496
sg82
g481
sg75
(lp497
g68
(g69
g70
NtRp498
(dp499
g73
(dp500
g81
I4
ssg82
g494
sg75
(lp501
g68
(g77
g70
NtRp502
(dp503
g73
(dp504
g81
I3
ssg82
Nsg75
(lp505
g68
(g84
g70
NtRp506
(dp507
g73
(dp508
sg82
g502
sg75
(lp509
g68
(g89
g70
NtRp510
(dp511
g73
(dp512
g93
g94
ssg82
g506
sg75
(lp513
g321
asbag68
(g89
g70
NtRp514
(dp515
g73
(dp516
g100
g101
ssg82
g506
sg75
(lp517
S':'
asbag68
(g89
g70
NtRp518
(dp519
g73
(dp520
sg82
g506
sg75
(lp521
g68
(g69
g70
NtRp522
(dp523
g73
(dp524
g81
I3
ssg82
g518
sg75
(lp525
S''
asbasbasbag68
(g84
g70
NtRp526
(dp527
g73
(dp528
sg82
g502
sg75
(lp529
g68
(g89
g70
NtRp530
(dp531
g73
(dp532
g93
g94
ssg82
g526
sg75
(lp533
g342
asbag68
(g89
g70
NtRp534
(dp535
g73
(dp536
g100
g101
ssg82
g526
sg75
(lp537
S':'
asbag68
(g89
g70
NtRp538
(dp539
g73
(dp540
sg82
g526
sg75
(lp541
g68
(g69
g70
NtRp542
(dp543
g73
(dp544
g81
I3
ssg82
g538
sg75
(lp545
S''
asbasbasbag68
(g84
g70
NtRp546
(dp547
g73
(dp548
sg82
g502
sg75
(lp549
g68
(g89
g70
NtRp550
(dp551
g73
(dp552
g93
g94
ssg82
g546
sg75
(lp553
g363
asbag68
(g89
g70
NtRp554
(dp555
g73
(dp556
g100
g101
ssg82
g546
sg75
(lp557
S':'
asbag68
(g89
g70
NtRp558
(dp559
g73
(dp560
sg82
g546
sg75
(lp561
g68
(g69
g70
NtRp562
(dp563
g73
(dp564
g81
I3
ssg82
g558
sg75
(lp565
S''
asbasbasbag68
(g84
g70
NtRp566
(dp567
g73
(dp568
sg82
g502
sg75
(lp569
g68
(g89
g70
NtRp570
(dp571
g73
(dp572
g93
g94
ssg82
g566
sg75
(lp573
g384
asbag68
(g89
g70
NtRp574
(dp575
g73
(dp576
g100
g101
ssg82
g566
sg75
(lp577
S':'
asbag68
(g89
g70
NtRp578
(dp579
g73
(dp580
sg82
g566
sg75
(lp581
g68
(g69
g70
NtRp582
(dp583
g73
(dp584
g81
I3
ssg82
g578
sg75
(lp585
S''
asbasbasbag68
(g84
g70
NtRp586
(dp587
g73
(dp588
sg82
g502
sg75
(lp589
g68
(g89
g70
NtRp590
(dp591
g73
(dp592
g93
g94
ssg82
g586
sg75
(lp593
g405
asbag68
(g89
g70
NtRp594
(dp595
g73
(dp596
g100
g101
ssg82
g586
sg75
(lp597
S':'
asbag68
(g89
g70
NtRp598
(dp599
g73
(dp600
sg82
g586
sg75
(lp601
g68
(g69
g70
NtRp602
(dp603
g73
(dp604
g81
I3
ssg82
g598
sg75
(lp605
S''
asbasbasbag68
(g84
g70
NtRp606
(dp607
g73
(dp608
sg82
g502
sg75
(lp609
g68
(g89
g70
NtRp610
(dp611
g73
(dp612
g93
g94
ssg82
g606
sg75
(lp613
g426
asbag68
(g89
g70
NtRp614
(dp615
g73
(dp616
g100
g101
ssg82
g606
sg75
(lp617
S':'
asbag68
(g89
g70
NtRp618
(dp619
g73
(dp620
sg82
g606
sg75
(lp621
g68
(g69
g70
NtRp622
(dp623
g73
(dp624
g81
I3
ssg82
g618
sg75
(lp625
S''
asbasbasbag68
(g84
g70
NtRp626
(dp627
g73
(dp628
sg82
g502
sg75
(lp629
g68
(g89
g70
NtRp630
(dp631
g73
(dp632
g93
g94
ssg82
g626
sg75
(lp633
g447
asbag68
(g89
g70
NtRp634
(dp635
g73
(dp636
g100
g101
ssg82
g626
sg75
(lp637
S':'
asbag68
(g89
g70
NtRp638
(dp639
g73
(dp640
sg82
g626
sg75
(lp641
g68
(g69
g70
NtRp642
(dp643
g73
(dp644
g81
I3
ssg82
g638
sg75
(lp645
S''
asbasbasbag68
(g84
g70
NtRp646
(dp647
g73
(dp648
sg82
g502
sg75
(lp649
g68
(g89
g70
NtRp650
(dp651
g73
(dp652
g93
g94
ssg82
g646
sg75
(lp653
g468
asbag68
(g89
g70
NtRp654
(dp655
g73
(dp656
g100
g101
ssg82
g646
sg75
(lp657
S':'
asbag68
(g89
g70
NtRp658
(dp659
g73
(dp660
sg82
g646
sg75
(lp661
g68
(g69
g70
NtRp662
(dp663
g73
(dp664
g81
I3
ssg82
g658
sg75
(lp665
S''
asbasbasbasbasbasbasbasbasbasbasbag68
(g84
g70
NtRp666
(dp667
g73
(dp668
sg82
g78
sg75
(lp669
g68
(g89
g70
NtRp670
(dp671
g73
(dp672
g93
g94
ssg82
g666
sg75
(lp673
S'env'
p674
asbag68
(g89
g70
NtRp675
(dp676
g73
(dp677
g100
g101
ssg82
g666
sg75
(lp678
S':'
asbag68
(g89
g70
NtRp679
(dp680
g73
(dp681
sg82
g666
sg75
(lp682
g68
(g69
g70
NtRp683
(dp684
g73
(dp685
g81
I5
ssg82
g679
sg75
(lp686
g68
(g77
g70
NtRp687
(dp688
g73
(dp689
g81
I4
ssg82
Nsg75
(lp690
g68
(g84
g70
NtRp691
(dp692
g73
(dp693
sg82
g687
sg75
(lp694
g68
(g89
g70
NtRp695
(dp696
g73
(dp697
g93
g94
ssg82
g691
sg75
(lp698
S'app_folders'
p699
asbag68
(g89
g70
NtRp700
(dp701
g73
(dp702
g100
g101
ssg82
g691
sg75
(lp703
S':'
asbag68
(g89
g70
NtRp704
(dp705
g73
(dp706
sg82
g691
sg75
(lp707
g68
(g69
g70
NtRp708
(dp709
g73
(dp710
g81
I4
ssg82
g704
sg75
(lp711
S"set(['c:\\\\Users\\\\Jorge\\\\Downloads\\\\web2py_src\\\\web2py\\\\applications\\\\admin\\\\', 'c:\\\\Users\\\\Jorge\\\\Downloads\\\\web2py_src\\\\web2py\\\\applications\\\\init\\\\'])"
p712
asbasbasbag68
(g84
g70
NtRp713
(dp714
g73
(dp715
sg82
g687
sg75
(lp716
g68
(g89
g70
NtRp717
(dp718
g73
(dp719
g93
g94
ssg82
g713
sg75
(lp720
S'applications_parent'
p721
asbag68
(g89
g70
NtRp722
(dp723
g73
(dp724
g100
g101
ssg82
g713
sg75
(lp725
S':'
asbag68
(g89
g70
NtRp726
(dp727
g73
(dp728
sg82
g713
sg75
(lp729
g68
(g69
g70
NtRp730
(dp731
g73
(dp732
g81
I4
ssg82
g726
sg75
(lp733
S'c:\\Users\\Jorge\\Downloads\\web2py_src\\web2py'
p734
asbasbasbag68
(g84
g70
NtRp735
(dp736
g73
(dp737
sg82
g687
sg75
(lp738
g68
(g89
g70
NtRp739
(dp740
g73
(dp741
g93
g94
ssg82
g735
sg75
(lp742
S'cmd_args'
p743
asbag68
(g89
g70
NtRp744
(dp745
g73
(dp746
g100
g101
ssg82
g735
sg75
(lp747
S':'
asbag68
(g89
g70
NtRp748
(dp749
g73
(dp750
sg82
g735
sg75
(lp751
g68
(g69
g70
NtRp752
(dp753
g73
(dp754
g81
I4
ssg82
g748
sg75
(lp755
g68
(g77
g70
NtRp756
(dp757
g73
(dp758
g81
I3
ssg82
Nsg75
(lp759
sbasbasbasbag68
(g84
g70
NtRp760
(dp761
g73
(dp762
sg82
g687
sg75
(lp763
g68
(g89
g70
NtRp764
(dp765
g73
(dp766
g93
g94
ssg82
g760
sg75
(lp767
S'cmd_options'
p768
asbag68
(g89
g70
NtRp769
(dp770
g73
(dp771
g100
g101
ssg82
g760
sg75
(lp772
S':'
asbag68
(g89
g70
NtRp773
(dp774
g73
(dp775
sg82
g760
sg75
(lp776
g68
(g69
g70
NtRp777
(dp778
g73
(dp779
g81
I4
ssg82
g773
sg75
(lp780
S"<Values at 0x374e208: {'verbose': False, 'ip': '127.0.0.1', 'shutdown_timeout': 5, 'taskbar': False, 'nocron': False, 'pid_filename': 'httpserver.pid', 'maxthreads': None, 'softcron': False, 'server_name': 'Jorge-PC', 'bpython': False, 'nogui': False, 'port': 8000, 'extcron': False, 'debuglevel': 30, 'test': None, 'folder': 'c:\\\\Users\\\\Jorge\\\\Downloads\\\\web2py_src\\\\web2py', 'config': '', 'import_models': False, 'winservice': '', 'shell': None, 'run': '', 'log_filename': 'httpserver.log', 'args': [''], 'socket_timeout': 5, 'ssl_ca_certificate': None, 'scheduler': None, 'profiler_filename': None, 'ssl_private_key': '', 'password': '<ask>', 'request_queue_size': 5, 'ssl_certificate': '', 'cronjob': False, 'numthreads': None, 'quiet': False, 'interfaces': None, 'minthreads': None, 'timeout': 10, 'plain': False, 'nobanner': False}>"
p781
asbasbasbag68
(g84
g70
NtRp782
(dp783
g73
(dp784
sg82
g687
sg75
(lp785
g68
(g89
g70
NtRp786
(dp787
g73
(dp788
g93
g94
ssg82
g782
sg75
(lp789
S'db_sessions'
p790
asbag68
(g89
g70
NtRp791
(dp792
g73
(dp793
g100
g101
ssg82
g782
sg75
(lp794
S':'
asbag68
(g89
g70
NtRp795
(dp796
g73
(dp797
sg82
g782
sg75
(lp798
g68
(g69
g70
NtRp799
(dp800
g73
(dp801
g81
I4
ssg82
g795
sg75
(lp802
S'set([])'
p803
asbasbasbag68
(g84
g70
NtRp804
(dp805
g73
(dp806
sg82
g687
sg75
(lp807
g68
(g89
g70
NtRp808
(dp809
g73
(dp810
g93
g94
ssg82
g804
sg75
(lp811
S'debugging'
p812
asbag68
(g89
g70
NtRp813
(dp814
g73
(dp815
g100
g101
ssg82
g804
sg75
(lp816
S':'
asbag68
(g89
g70
NtRp817
(dp818
g73
(dp819
sg82
g804
sg75
(lp820
g68
(g69
g70
NtRp821
(dp822
g73
(dp823
g81
I4
ssg82
g817
sg75
(lp824
g111
asbasbasbag68
(g84
g70
NtRp825
(dp826
g73
(dp827
sg82
g687
sg75
(lp828
g68
(g89
g70
NtRp829
(dp830
g73
(dp831
g93
g94
ssg82
g825
sg75
(lp832
S'gluon_parent'
p833
asbag68
(g89
g70
NtRp834
(dp835
g73
(dp836
g100
g101
ssg82
g825
sg75
(lp837
S':'
asbag68
(g89
g70
NtRp838
(dp839
g73
(dp840
sg82
g825
sg75
(lp841
g68
(g69
g70
NtRp842
(dp843
g73
(dp844
g81
I4
ssg82
g838
sg75
(lp845
S'c:\\Users\\Jorge\\Downloads\\web2py_src\\web2py'
p846
asbasbasbag68
(g84
g70
NtRp847
(dp848
g73
(dp849
sg82
g687
sg75
(lp850
g68
(g89
g70
NtRp851
(dp852
g73
(dp853
g93
g94
ssg82
g847
sg75
(lp854
S'http_accept'
p855
asbag68
(g89
g70
NtRp856
(dp857
g73
(dp858
g100
g101
ssg82
g847
sg75
(lp859
S':'
asbag68
(g89
g70
NtRp860
(dp861
g73
(dp862
sg82
g847
sg75
(lp863
g68
(g69
g70
NtRp864
(dp865
g73
(dp866
g81
I4
ssg82
g860
sg75
(lp867
S'text/html,application/xhtml+xml,application/xml;q=0.9,*/*;q=0.8'
p868
asbasbasbag68
(g84
g70
NtRp869
(dp870
g73
(dp871
sg82
g687
sg75
(lp872
g68
(g89
g70
NtRp873
(dp874
g73
(dp875
g93
g94
ssg82
g869
sg75
(lp876
S'http_accept_encoding'
p877
asbag68
(g89
g70
NtRp878
(dp879
g73
(dp880
g100
g101
ssg82
g869
sg75
(lp881
S':'
asbag68
(g89
g70
NtRp882
(dp883
g73
(dp884
sg82
g869
sg75
(lp885
g68
(g69
g70
NtRp886
(dp887
g73
(dp888
g81
I4
ssg82
g882
sg75
(lp889
S'gzip, deflate'
p890
asbasbasbag68
(g84
g70
NtRp891
(dp892
g73
(dp893
sg82
g687
sg75
(lp894
g68
(g89
g70
NtRp895
(dp896
g73
(dp897
g93
g94
ssg82
g891
sg75
(lp898
S'http_accept_language'
p899
asbag68
(g89
g70
NtRp900
(dp901
g73
(dp902
g100
g101
ssg82
g891
sg75
(lp903
S':'
asbag68
(g89
g70
NtRp904
(dp905
g73
(dp906
sg82
g891
sg75
(lp907
g68
(g69
g70
NtRp908
(dp909
g73
(dp910
g81
I4
ssg82
g904
sg75
(lp911
S'es-es,es;q=0.8,en-us;q=0.5,en;q=0.3'
p912
asbasbasbag68
(g84
g70
NtRp913
(dp914
g73
(dp915
sg82
g687
sg75
(lp916
g68
(g89
g70
NtRp917
(dp918
g73
(dp919
g93
g94
ssg82
g913
sg75
(lp920
S'http_connection'
p921
asbag68
(g89
g70
NtRp922
(dp923
g73
(dp924
g100
g101
ssg82
g913
sg75
(lp925
S':'
asbag68
(g89
g70
NtRp926
(dp927
g73
(dp928
sg82
g913
sg75
(lp929
g68
(g69
g70
NtRp930
(dp931
g73
(dp932
g81
I4
ssg82
g926
sg75
(lp933
S'keep-alive'
p934
asbasbasbag68
(g84
g70
NtRp935
(dp936
g73
(dp937
sg82
g687
sg75
(lp938
g68
(g89
g70
NtRp939
(dp940
g73
(dp941
g93
g94
ssg82
g935
sg75
(lp942
S'http_cookie'
p943
asbag68
(g89
g70
NtRp944
(dp945
g73
(dp946
g100
g101
ssg82
g935
sg75
(lp947
S':'
asbag68
(g89
g70
NtRp948
(dp949
g73
(dp950
sg82
g935
sg75
(lp951
g68
(g69
g70
NtRp952
(dp953
g73
(dp954
g81
I4
ssg82
g948
sg75
(lp955
S'session_id_init=127.0.0.1-db1a5172-e0eb-4779-bead-3eff2ec2fe17; session_id_admin=127.0.0.1-1af679c7-1fb7-4e3c-be5e-91b2ecc5c8df'
p956
asbasbasbag68
(g84
g70
NtRp957
(dp958
g73
(dp959
sg82
g687
sg75
(lp960
g68
(g89
g70
NtRp961
(dp962
g73
(dp963
g93
g94
ssg82
g957
sg75
(lp964
S'http_host'
p965
asbag68
(g89
g70
NtRp966
(dp967
g73
(dp968
g100
g101
ssg82
g957
sg75
(lp969
S':'
asbag68
(g89
g70
NtRp970
(dp971
g73
(dp972
sg82
g957
sg75
(lp973
g68
(g69
g70
NtRp974
(dp975
g73
(dp976
g81
I4
ssg82
g970
sg75
(lp977
S'127.0.0.1:8000'
p978
asbasbasbag68
(g84
g70
NtRp979
(dp980
g73
(dp981
sg82
g687
sg75
(lp982
g68
(g89
g70
NtRp983
(dp984
g73
(dp985
g93
g94
ssg82
g979
sg75
(lp986
S'http_referer'
p987
asbag68
(g89
g70
NtRp988
(dp989
g73
(dp990
g100
g101
ssg82
g979
sg75
(lp991
S':'
asbag68
(g89
g70
NtRp992
(dp993
g73
(dp994
sg82
g979
sg75
(lp995
g68
(g69
g70
NtRp996
(dp997
g73
(dp998
g81
I4
ssg82
g992
sg75
(lp999
S'http://127.0.0.1:8000/init/default/presupuestos'
p1000
asbasbasbag68
(g84
g70
NtRp1001
(dp1002
g73
(dp1003
sg82
g687
sg75
(lp1004
g68
(g89
g70
NtRp1005
(dp1006
g73
(dp1007
g93
g94
ssg82
g1001
sg75
(lp1008
S'http_user_agent'
p1009
asbag68
(g89
g70
NtRp1010
(dp1011
g73
(dp1012
g100
g101
ssg82
g1001
sg75
(lp1013
S':'
asbag68
(g89
g70
NtRp1014
(dp1015
g73
(dp1016
sg82
g1001
sg75
(lp1017
g68
(g69
g70
NtRp1018
(dp1019
g73
(dp1020
g81
I4
ssg82
g1014
sg75
(lp1021
S'Mozilla/5.0 (Windows NT 6.1; WOW64; rv:11.0) Gecko/20100101 Firefox/11.0'
p1022
asbasbasbag68
(g84
g70
NtRp1023
(dp1024
g73
(dp1025
sg82
g687
sg75
(lp1026
g68
(g89
g70
NtRp1027
(dp1028
g73
(dp1029
g93
g94
ssg82
g1023
sg75
(lp1030
S'is_jython'
p1031
asbag68
(g89
g70
NtRp1032
(dp1033
g73
(dp1034
g100
g101
ssg82
g1023
sg75
(lp1035
S':'
asbag68
(g89
g70
NtRp1036
(dp1037
g73
(dp1038
sg82
g1023
sg75
(lp1039
g68
(g69
g70
NtRp1040
(dp1041
g73
(dp1042
g81
I4
ssg82
g1036
sg75
(lp1043
g111
asbasbasbag68
(g84
g70
NtRp1044
(dp1045
g73
(dp1046
sg82
g687
sg75
(lp1047
g68
(g89
g70
NtRp1048
(dp1049
g73
(dp1050
g93
g94
ssg82
g1044
sg75
(lp1051
S'is_pypy'
p1052
asbag68
(g89
g70
NtRp1053
(dp1054
g73
(dp1055
g100
g101
ssg82
g1044
sg75
(lp1056
S':'
asbag68
(g89
g70
NtRp1057
(dp1058
g73
(dp1059
sg82
g1044
sg75
(lp1060
g68
(g69
g70
NtRp1061
(dp1062
g73
(dp1063
g81
I4
ssg82
g1057
sg75
(lp1064
g111
asbasbasbag68
(g84
g70
NtRp1065
(dp1066
g73
(dp1067
sg82
g687
sg75
(lp1068
g68
(g89
g70
NtRp1069
(dp1070
g73
(dp1071
g93
g94
ssg82
g1065
sg75
(lp1072
S'path_info'
p1073
asbag68
(g89
g70
NtRp1074
(dp1075
g73
(dp1076
g100
g101
ssg82
g1065
sg75
(lp1077
S':'
asbag68
(g89
g70
NtRp1078
(dp1079
g73
(dp1080
sg82
g1065
sg75
(lp1081
g68
(g69
g70
NtRp1082
(dp1083
g73
(dp1084
g81
I4
ssg82
g1078
sg75
(lp1085
S'/init/default/prueba/read/movimientos/20'
p1086
asbasbasbag68
(g84
g70
NtRp1087
(dp1088
g73
(dp1089
sg82
g687
sg75
(lp1090
g68
(g89
g70
NtRp1091
(dp1092
g73
(dp1093
g93
g94
ssg82
g1087
sg75
(lp1094
S'query_string'
p1095
asbag68
(g89
g70
NtRp1096
(dp1097
g73
(dp1098
g100
g101
ssg82
g1087
sg75
(lp1099
S':'
asbag68
(g89
g70
NtRp1100
(dp1101
g73
(dp1102
sg82
g1087
sg75
(lp1103
g68
(g69
g70
NtRp1104
(dp1105
g73
(dp1106
g81
I4
ssg82
g1100
sg75
(lp1107
S''
asbasbasbag68
(g84
g70
NtRp1108
(dp1109
g73
(dp1110
sg82
g687
sg75
(lp1111
g68
(g89
g70
NtRp1112
(dp1113
g73
(dp1114
g93
g94
ssg82
g1108
sg75
(lp1115
S'remote_addr'
p1116
asbag68
(g89
g70
NtRp1117
(dp1118
g73
(dp1119
g100
g101
ssg82
g1108
sg75
(lp1120
S':'
asbag68
(g89
g70
NtRp1121
(dp1122
g73
(dp1123
sg82
g1108
sg75
(lp1124
g68
(g69
g70
NtRp1125
(dp1126
g73
(dp1127
g81
I4
ssg82
g1121
sg75
(lp1128
g240
asbasbasbag68
(g84
g70
NtRp1129
(dp1130
g73
(dp1131
sg82
g687
sg75
(lp1132
g68
(g89
g70
NtRp1133
(dp1134
g73
(dp1135
g93
g94
ssg82
g1129
sg75
(lp1136
S'remote_port'
p1137
asbag68
(g89
g70
NtRp1138
(dp1139
g73
(dp1140
g100
g101
ssg82
g1129
sg75
(lp1141
S':'
asbag68
(g89
g70
NtRp1142
(dp1143
g73
(dp1144
sg82
g1129
sg75
(lp1145
g68
(g69
g70
NtRp1146
(dp1147
g73
(dp1148
g81
I4
ssg82
g1142
sg75
(lp1149
S'50185'
p1150
asbasbasbag68
(g84
g70
NtRp1151
(dp1152
g73
(dp1153
sg82
g687
sg75
(lp1154
g68
(g89
g70
NtRp1155
(dp1156
g73
(dp1157
g93
g94
ssg82
g1151
sg75
(lp1158
S'request_method'
p1159
asbag68
(g89
g70
NtRp1160
(dp1161
g73
(dp1162
g100
g101
ssg82
g1151
sg75
(lp1163
S':'
asbag68
(g89
g70
NtRp1164
(dp1165
g73
(dp1166
sg82
g1151
sg75
(lp1167
g68
(g69
g70
NtRp1168
(dp1169
g73
(dp1170
g81
I4
ssg82
g1164
sg75
(lp1171
S'GET'
p1172
asbasbasbag68
(g84
g70
NtRp1173
(dp1174
g73
(dp1175
sg82
g687
sg75
(lp1176
g68
(g89
g70
NtRp1177
(dp1178
g73
(dp1179
g93
g94
ssg82
g1173
sg75
(lp1180
S'script_name'
p1181
asbag68
(g89
g70
NtRp1182
(dp1183
g73
(dp1184
g100
g101
ssg82
g1173
sg75
(lp1185
S':'
asbag68
(g89
g70
NtRp1186
(dp1187
g73
(dp1188
sg82
g1173
sg75
(lp1189
g68
(g69
g70
NtRp1190
(dp1191
g73
(dp1192
g81
I4
ssg82
g1186
sg75
(lp1193
S''
asbasbasbag68
(g84
g70
NtRp1194
(dp1195
g73
(dp1196
sg82
g687
sg75
(lp1197
g68
(g89
g70
NtRp1198
(dp1199
g73
(dp1200
g93
g94
ssg82
g1194
sg75
(lp1201
S'server_name'
p1202
asbag68
(g89
g70
NtRp1203
(dp1204
g73
(dp1205
g100
g101
ssg82
g1194
sg75
(lp1206
S':'
asbag68
(g89
g70
NtRp1207
(dp1208
g73
(dp1209
sg82
g1194
sg75
(lp1210
g68
(g69
g70
NtRp1211
(dp1212
g73
(dp1213
g81
I4
ssg82
g1207
sg75
(lp1214
S'Jorge-PC'
p1215
asbasbasbag68
(g84
g70
NtRp1216
(dp1217
g73
(dp1218
sg82
g687
sg75
(lp1219
g68
(g89
g70
NtRp1220
(dp1221
g73
(dp1222
g93
g94
ssg82
g1216
sg75
(lp1223
S'server_port'
p1224
asbag68
(g89
g70
NtRp1225
(dp1226
g73
(dp1227
g100
g101
ssg82
g1216
sg75
(lp1228
S':'
asbag68
(g89
g70
NtRp1229
(dp1230
g73
(dp1231
sg82
g1216
sg75
(lp1232
g68
(g69
g70
NtRp1233
(dp1234
g73
(dp1235
g81
I4
ssg82
g1229
sg75
(lp1236
S'8000'
p1237
asbasbasbag68
(g84
g70
NtRp1238
(dp1239
g73
(dp1240
sg82
g687
sg75
(lp1241
g68
(g89
g70
NtRp1242
(dp1243
g73
(dp1244
g93
g94
ssg82
g1238
sg75
(lp1245
S'server_protocol'
p1246
asbag68
(g89
g70
NtRp1247
(dp1248
g73
(dp1249
g100
g101
ssg82
g1238
sg75
(lp1250
S':'
asbag68
(g89
g70
NtRp1251
(dp1252
g73
(dp1253
sg82
g1238
sg75
(lp1254
g68
(g69
g70
NtRp1255
(dp1256
g73
(dp1257
g81
I4
ssg82
g1251
sg75
(lp1258
S'HTTP/1.1'
p1259
asbasbasbag68
(g84
g70
NtRp1260
(dp1261
g73
(dp1262
sg82
g687
sg75
(lp1263
g68
(g89
g70
NtRp1264
(dp1265
g73
(dp1266
g93
g94
ssg82
g1260
sg75
(lp1267
S'server_software'
p1268
asbag68
(g89
g70
NtRp1269
(dp1270
g73
(dp1271
g100
g101
ssg82
g1260
sg75
(lp1272
S':'
asbag68
(g89
g70
NtRp1273
(dp1274
g73
(dp1275
sg82
g1260
sg75
(lp1276
g68
(g69
g70
NtRp1277
(dp1278
g73
(dp1279
g81
I4
ssg82
g1273
sg75
(lp1280
S'Rocket 1.2.4'
p1281
asbasbasbag68
(g84
g70
NtRp1282
(dp1283
g73
(dp1284
sg82
g687
sg75
(lp1285
g68
(g89
g70
NtRp1286
(dp1287
g73
(dp1288
g93
g94
ssg82
g1282
sg75
(lp1289
S'web2py_crontype'
p1290
asbag68
(g89
g70
NtRp1291
(dp1292
g73
(dp1293
g100
g101
ssg82
g1282
sg75
(lp1294
S':'
asbag68
(g89
g70
NtRp1295
(dp1296
g73
(dp1297
sg82
g1282
sg75
(lp1298
g68
(g69
g70
NtRp1299
(dp1300
g73
(dp1301
g81
I4
ssg82
g1295
sg75
(lp1302
S'hard'
p1303
asbasbasbag68
(g84
g70
NtRp1304
(dp1305
g73
(dp1306
sg82
g687
sg75
(lp1307
g68
(g89
g70
NtRp1308
(dp1309
g73
(dp1310
g93
g94
ssg82
g1304
sg75
(lp1311
S'web2py_path'
p1312
asbag68
(g89
g70
NtRp1313
(dp1314
g73
(dp1315
g100
g101
ssg82
g1304
sg75
(lp1316
S':'
asbag68
(g89
g70
NtRp1317
(dp1318
g73
(dp1319
sg82
g1304
sg75
(lp1320
g68
(g69
g70
NtRp1321
(dp1322
g73
(dp1323
g81
I4
ssg82
g1317
sg75
(lp1324
g734
asbasbasbag68
(g84
g70
NtRp1325
(dp1326
g73
(dp1327
sg82
g687
sg75
(lp1328
g68
(g89
g70
NtRp1329
(dp1330
g73
(dp1331
g93
g94
ssg82
g1325
sg75
(lp1332
S'web2py_version'
p1333
asbag68
(g89
g70
NtRp1334
(dp1335
g73
(dp1336
g100
g101
ssg82
g1325
sg75
(lp1337
S':'
asbag68
(g89
g70
NtRp1338
(dp1339
g73
(dp1340
sg82
g1325
sg75
(lp1341
g68
(g69
g70
NtRp1342
(dp1343
g73
(dp1344
g81
I4
ssg82
g1338
sg75
(lp1345
g68
(g77
g70
NtRp1346
(dp1347
g73
(dp1348
g81
I3
ssg82
Nsg75
(lp1349
g68
(g84
g70
NtRp1350
(dp1351
g73
(dp1352
sg82
g1346
sg75
(lp1353
g68
(g89
g70
NtRp1354
(dp1355
g73
(dp1356
sg82
g1350
sg75
(lp1357
g68
(g69
g70
NtRp1358
(dp1359
g73
(dp1360
g81
I3
ssg82
g1354
sg75
(lp1361
S'1'
asbasbasbag68
(g84
g70
NtRp1362
(dp1363
g73
(dp1364
sg82
g1346
sg75
(lp1365
g68
(g89
g70
NtRp1366
(dp1367
g73
(dp1368
sg82
g1362
sg75
(lp1369
g68
(g69
g70
NtRp1370
(dp1371
g73
(dp1372
g81
I3
ssg82
g1366
sg75
(lp1373
S'99'
p1374
asbasbasbag68
(g84
g70
NtRp1375
(dp1376
g73
(dp1377
sg82
g1346
sg75
(lp1378
g68
(g89
g70
NtRp1379
(dp1380
g73
(dp1381
sg82
g1375
sg75
(lp1382
g68
(g69
g70
NtRp1383
(dp1384
g73
(dp1385
g81
I3
ssg82
g1379
sg75
(lp1386
S'7'
asbasbasbag68
(g84
g70
NtRp1387
(dp1388
g73
(dp1389
sg82
g1346
sg75
(lp1390
g68
(g89
g70
NtRp1391
(dp1392
g73
(dp1393
sg82
g1387
sg75
(lp1394
g68
(g69
g70
NtRp1395
(dp1396
g73
(dp1397
g81
I3
ssg82
g1391
sg75
(lp1398
S'datetime.datetime(2012, 3, 4, 22, 12, 8)'
p1399
asbasbasbag68
(g84
g70
NtRp1400
(dp1401
g73
(dp1402
sg82
g1346
sg75
(lp1403
g68
(g89
g70
NtRp1404
(dp1405
g73
(dp1406
sg82
g1400
sg75
(lp1407
g68
(g69
g70
NtRp1408
(dp1409
g73
(dp1410
g81
I3
ssg82
g1404
sg75
(lp1411
S'stable'
p1412
asbasbasbasbasbasbasbag68
(g84
g70
NtRp1413
(dp1414
g73
(dp1415
sg82
g687
sg75
(lp1416
g68
(g89
g70
NtRp1417
(dp1418
g73
(dp1419
g93
g94
ssg82
g1413
sg75
(lp1420
S'wsgi_errors'
p1421
asbag68
(g89
g70
NtRp1422
(dp1423
g73
(dp1424
g100
g101
ssg82
g1413
sg75
(lp1425
S':'
asbag68
(g89
g70
NtRp1426
(dp1427
g73
(dp1428
sg82
g1413
sg75
(lp1429
g68
(g69
g70
NtRp1430
(dp1431
g73
(dp1432
g81
I4
ssg82
g1426
sg75
(lp1433
S"<open file '<stderr>', mode 'w' at 0x0000000001D361E0>"
p1434
asbasbasbag68
(g84
g70
NtRp1435
(dp1436
g73
(dp1437
sg82
g687
sg75
(lp1438
g68
(g89
g70
NtRp1439
(dp1440
g73
(dp1441
g93
g94
ssg82
g1435
sg75
(lp1442
S'wsgi_file_wrapper'
p1443
asbag68
(g89
g70
NtRp1444
(dp1445
g73
(dp1446
g100
g101
ssg82
g1435
sg75
(lp1447
S':'
asbag68
(g89
g70
NtRp1448
(dp1449
g73
(dp1450
sg82
g1435
sg75
(lp1451
g68
(g69
g70
NtRp1452
(dp1453
g73
(dp1454
g81
I4
ssg82
g1448
sg75
(lp1455
S'<class wsgiref.util.FileWrapper at 0x000000000380EC48>'
p1456
asbasbasbag68
(g84
g70
NtRp1457
(dp1458
g73
(dp1459
sg82
g687
sg75
(lp1460
g68
(g89
g70
NtRp1461
(dp1462
g73
(dp1463
g93
g94
ssg82
g1457
sg75
(lp1464
S'wsgi_input'
p1465
asbag68
(g89
g70
NtRp1466
(dp1467
g73
(dp1468
g100
g101
ssg82
g1457
sg75
(lp1469
S':'
asbag68
(g89
g70
NtRp1470
(dp1471
g73
(dp1472
sg82
g1457
sg75
(lp1473
g68
(g69
g70
NtRp1474
(dp1475
g73
(dp1476
g81
I4
ssg82
g1470
sg75
(lp1477
S'<socket._fileobject object at 0x000000000A144048>'
p1478
asbasbasbag68
(g84
g70
NtRp1479
(dp1480
g73
(dp1481
sg82
g687
sg75
(lp1482
g68
(g89
g70
NtRp1483
(dp1484
g73
(dp1485
g93
g94
ssg82
g1479
sg75
(lp1486
S'wsgi_multiprocess'
p1487
asbag68
(g89
g70
NtRp1488
(dp1489
g73
(dp1490
g100
g101
ssg82
g1479
sg75
(lp1491
S':'
asbag68
(g89
g70
NtRp1492
(dp1493
g73
(dp1494
sg82
g1479
sg75
(lp1495
g68
(g69
g70
NtRp1496
(dp1497
g73
(dp1498
g81
I4
ssg82
g1492
sg75
(lp1499
g111
asbasbasbag68
(g84
g70
NtRp1500
(dp1501
g73
(dp1502
sg82
g687
sg75
(lp1503
g68
(g89
g70
NtRp1504
(dp1505
g73
(dp1506
g93
g94
ssg82
g1500
sg75
(lp1507
S'wsgi_multithread'
p1508
asbag68
(g89
g70
NtRp1509
(dp1510
g73
(dp1511
g100
g101
ssg82
g1500
sg75
(lp1512
S':'
asbag68
(g89
g70
NtRp1513
(dp1514
g73
(dp1515
sg82
g1500
sg75
(lp1516
g68
(g69
g70
NtRp1517
(dp1518
g73
(dp1519
g81
I4
ssg82
g1513
sg75
(lp1520
S'True'
p1521
asbasbasbag68
(g84
g70
NtRp1522
(dp1523
g73
(dp1524
sg82
g687
sg75
(lp1525
g68
(g89
g70
NtRp1526
(dp1527
g73
(dp1528
g93
g94
ssg82
g1522
sg75
(lp1529
S'wsgi_run_once'
p1530
asbag68
(g89
g70
NtRp1531
(dp1532
g73
(dp1533
g100
g101
ssg82
g1522
sg75
(lp1534
S':'
asbag68
(g89
g70
NtRp1535
(dp1536
g73
(dp1537
sg82
g1522
sg75
(lp1538
g68
(g69
g70
NtRp1539
(dp1540
g73
(dp1541
g81
I4
ssg82
g1535
sg75
(lp1542
g111
asbasbasbag68
(g84
g70
NtRp1543
(dp1544
g73
(dp1545
sg82
g687
sg75
(lp1546
g68
(g89
g70
NtRp1547
(dp1548
g73
(dp1549
g93
g94
ssg82
g1543
sg75
(lp1550
S'wsgi_url_scheme'
p1551
asbag68
(g89
g70
NtRp1552
(dp1553
g73
(dp1554
g100
g101
ssg82
g1543
sg75
(lp1555
S':'
asbag68
(g89
g70
NtRp1556
(dp1557
g73
(dp1558
sg82
g1543
sg75
(lp1559
g68
(g69
g70
NtRp1560
(dp1561
g73
(dp1562
g81
I4
ssg82
g1556
sg75
(lp1563
S'http'
p1564
asbasbasbag68
(g84
g70
NtRp1565
(dp1566
g73
(dp1567
sg82
g687
sg75
(lp1568
g68
(g89
g70
NtRp1569
(dp1570
g73
(dp1571
g93
g94
ssg82
g1565
sg75
(lp1572
S'wsgi_version'
p1573
asbag68
(g89
g70
NtRp1574
(dp1575
g73
(dp1576
g100
g101
ssg82
g1565
sg75
(lp1577
S':'
asbag68
(g89
g70
NtRp1578
(dp1579
g73
(dp1580
sg82
g1565
sg75
(lp1581
g68
(g69
g70
NtRp1582
(dp1583
g73
(dp1584
g81
I4
ssg82
g1578
sg75
(lp1585
g68
(g77
g70
NtRp1586
(dp1587
g73
(dp1588
g81
I3
ssg82
Nsg75
(lp1589
g68
(g84
g70
NtRp1590
(dp1591
g73
(dp1592
sg82
g1586
sg75
(lp1593
g68
(g89
g70
NtRp1594
(dp1595
g73
(dp1596
sg82
g1590
sg75
(lp1597
g68
(g69
g70
NtRp1598
(dp1599
g73
(dp1600
g81
I3
ssg82
g1594
sg75
(lp1601
S'1'
asbasbasbag68
(g84
g70
NtRp1602
(dp1603
g73
(dp1604
sg82
g1586
sg75
(lp1605
g68
(g89
g70
NtRp1606
(dp1607
g73
(dp1608
sg82
g1602
sg75
(lp1609
g68
(g69
g70
NtRp1610
(dp1611
g73
(dp1612
g81
I3
ssg82
g1606
sg75
(lp1613
S'0'
asbasbasbasbasbasbasbasbasbasbasbag68
(g84
g70
NtRp1614
(dp1615
g73
(dp1616
sg82
g78
sg75
(lp1617
g68
(g89
g70
NtRp1618
(dp1619
g73
(dp1620
g93
g94
ssg82
g1614
sg75
(lp1621
S'extension'
p1622
asbag68
(g89
g70
NtRp1623
(dp1624
g73
(dp1625
g100
g101
ssg82
g1614
sg75
(lp1626
S':'
asbag68
(g89
g70
NtRp1627
(dp1628
g73
(dp1629
sg82
g1614
sg75
(lp1630
g68
(g69
g70
NtRp1631
(dp1632
g73
(dp1633
g81
I5
ssg82
g1627
sg75
(lp1634
S'html'
p1635
asbasbasbag68
(g84
g70
NtRp1636
(dp1637
g73
(dp1638
sg82
g78
sg75
(lp1639
g68
(g89
g70
NtRp1640
(dp1641
g73
(dp1642
g93
g94
ssg82
g1636
sg75
(lp1643
S'folder'
p1644
asbag68
(g89
g70
NtRp1645
(dp1646
g73
(dp1647
g100
g101
ssg82
g1636
sg75
(lp1648
S':'
asbag68
(g89
g70
NtRp1649
(dp1650
g73
(dp1651
sg82
g1636
sg75
(lp1652
g68
(g69
g70
NtRp1653
(dp1654
g73
(dp1655
g81
I5
ssg82
g1649
sg75
(lp1656
S'c:\\Users\\Jorge\\Downloads\\web2py_src\\web2py\\applications\\init\\'
p1657
asbasbasbag68
(g84
g70
NtRp1658
(dp1659
g73
(dp1660
sg82
g78
sg75
(lp1661
g68
(g89
g70
NtRp1662
(dp1663
g73
(dp1664
g93
g94
ssg82
g1658
sg75
(lp1665
S'function'
p1666
asbag68
(g89
g70
NtRp1667
(dp1668
g73
(dp1669
g100
g101
ssg82
g1658
sg75
(lp1670
S':'
asbag68
(g89
g70
NtRp1671
(dp1672
g73
(dp1673
sg82
g1658
sg75
(lp1674
g68
(g69
g70
NtRp1675
(dp1676
g73
(dp1677
g81
I5
ssg82
g1671
sg75
(lp1678
S'prueba'
p1679
asbasbasbag68
(g84
g70
NtRp1680
(dp1681
g73
(dp1682
sg82
g78
sg75
(lp1683
g68
(g89
g70
NtRp1684
(dp1685
g73
(dp1686
g93
g94
ssg82
g1680
sg75
(lp1687
S'get_vars'
p1688
asbag68
(g89
g70
NtRp1689
(dp1690
g73
(dp1691
g100
g101
ssg82
g1680
sg75
(lp1692
S':'
asbag68
(g89
g70
NtRp1693
(dp1694
g73
(dp1695
sg82
g1680
sg75
(lp1696
g68
(g69
g70
NtRp1697
(dp1698
g73
(dp1699
g81
I5
ssg82
g1693
sg75
(lp1700
g68
(g77
g70
NtRp1701
(dp1702
g73
(dp1703
g81
I4
ssg82
Nsg75
(lp1704
sbasbasbasbag68
(g84
g70
NtRp1705
(dp1706
g73
(dp1707
sg82
g78
sg75
(lp1708
g68
(g89
g70
NtRp1709
(dp1710
g73
(dp1711
g93
g94
ssg82
g1705
sg75
(lp1712
S'global_settings'
p1713
asbag68
(g89
g70
NtRp1714
(dp1715
g73
(dp1716
g100
g101
ssg82
g1705
sg75
(lp1717
S':'
asbag68
(g89
g70
NtRp1718
(dp1719
g73
(dp1720
sg82
g1705
sg75
(lp1721
g68
(g69
g70
NtRp1722
(dp1723
g73
(dp1724
g81
I5
ssg82
g1718
sg75
(lp1725
g68
(g77
g70
NtRp1726
(dp1727
g73
(dp1728
g81
I4
ssg82
Nsg75
(lp1729
g68
(g84
g70
NtRp1730
(dp1731
g73
(dp1732
sg82
g1726
sg75
(lp1733
g68
(g89
g70
NtRp1734
(dp1735
g73
(dp1736
g93
g94
ssg82
g1730
sg75
(lp1737
g699
asbag68
(g89
g70
NtRp1738
(dp1739
g73
(dp1740
g100
g101
ssg82
g1730
sg75
(lp1741
S':'
asbag68
(g89
g70
NtRp1742
(dp1743
g73
(dp1744
sg82
g1730
sg75
(lp1745
g68
(g69
g70
NtRp1746
(dp1747
g73
(dp1748
g81
I4
ssg82
g1742
sg75
(lp1749
S"set(['c:\\\\Users\\\\Jorge\\\\Downloads\\\\web2py_src\\\\web2py\\\\applications\\\\admin\\\\', 'c:\\\\Users\\\\Jorge\\\\Downloads\\\\web2py_src\\\\web2py\\\\applications\\\\init\\\\'])"
p1750
asbasbasbag68
(g84
g70
NtRp1751
(dp1752
g73
(dp1753
sg82
g1726
sg75
(lp1754
g68
(g89
g70
NtRp1755
(dp1756
g73
(dp1757
g93
g94
ssg82
g1751
sg75
(lp1758
g721
asbag68
(g89
g70
NtRp1759
(dp1760
g73
(dp1761
g100
g101
ssg82
g1751
sg75
(lp1762
S':'
asbag68
(g89
g70
NtRp1763
(dp1764
g73
(dp1765
sg82
g1751
sg75
(lp1766
g68
(g69
g70
NtRp1767
(dp1768
g73
(dp1769
g81
I4
ssg82
g1763
sg75
(lp1770
g734
asbasbasbag68
(g84
g70
NtRp1771
(dp1772
g73
(dp1773
sg82
g1726
sg75
(lp1774
g68
(g89
g70
NtRp1775
(dp1776
g73
(dp1777
g93
g94
ssg82
g1771
sg75
(lp1778
g743
asbag68
(g89
g70
NtRp1779
(dp1780
g73
(dp1781
g100
g101
ssg82
g1771
sg75
(lp1782
S':'
asbag68
(g89
g70
NtRp1783
(dp1784
g73
(dp1785
sg82
g1771
sg75
(lp1786
g68
(g69
g70
NtRp1787
(dp1788
g73
(dp1789
g81
I4
ssg82
g1783
sg75
(lp1790
g68
(g77
g70
NtRp1791
(dp1792
g73
(dp1793
g81
I3
ssg82
Nsg75
(lp1794
sbasbasbasbag68
(g84
g70
NtRp1795
(dp1796
g73
(dp1797
sg82
g1726
sg75
(lp1798
g68
(g89
g70
NtRp1799
(dp1800
g73
(dp1801
g93
g94
ssg82
g1795
sg75
(lp1802
g768
asbag68
(g89
g70
NtRp1803
(dp1804
g73
(dp1805
g100
g101
ssg82
g1795
sg75
(lp1806
S':'
asbag68
(g89
g70
NtRp1807
(dp1808
g73
(dp1809
sg82
g1795
sg75
(lp1810
g68
(g69
g70
NtRp1811
(dp1812
g73
(dp1813
g81
I4
ssg82
g1807
sg75
(lp1814
S"<Values at 0x374e208: {'verbose': False, 'ip': '127.0.0.1', 'shutdown_timeout': 5, 'taskbar': False, 'nocron': False, 'pid_filename': 'httpserver.pid', 'maxthreads': None, 'softcron': False, 'server_name': 'Jorge-PC', 'bpython': False, 'nogui': False, 'port': 8000, 'extcron': False, 'debuglevel': 30, 'test': None, 'folder': 'c:\\\\Users\\\\Jorge\\\\Downloads\\\\web2py_src\\\\web2py', 'config': '', 'import_models': False, 'winservice': '', 'shell': None, 'run': '', 'log_filename': 'httpserver.log', 'args': [''], 'socket_timeout': 5, 'ssl_ca_certificate': None, 'scheduler': None, 'profiler_filename': None, 'ssl_private_key': '', 'password': '<ask>', 'request_queue_size': 5, 'ssl_certificate': '', 'cronjob': False, 'numthreads': None, 'quiet': False, 'interfaces': None, 'minthreads': None, 'timeout': 10, 'plain': False, 'nobanner': False}>"
p1815
asbasbasbag68
(g84
g70
NtRp1816
(dp1817
g73
(dp1818
sg82
g1726
sg75
(lp1819
g68
(g89
g70
NtRp1820
(dp1821
g73
(dp1822
g93
g94
ssg82
g1816
sg75
(lp1823
g790
asbag68
(g89
g70
NtRp1824
(dp1825
g73
(dp1826
g100
g101
ssg82
g1816
sg75
(lp1827
S':'
asbag68
(g89
g70
NtRp1828
(dp1829
g73
(dp1830
sg82
g1816
sg75
(lp1831
g68
(g69
g70
NtRp1832
(dp1833
g73
(dp1834
g81
I4
ssg82
g1828
sg75
(lp1835
S'set([])'
p1836
asbasbasbag68
(g84
g70
NtRp1837
(dp1838
g73
(dp1839
sg82
g1726
sg75
(lp1840
g68
(g89
g70
NtRp1841
(dp1842
g73
(dp1843
g93
g94
ssg82
g1837
sg75
(lp1844
g812
asbag68
(g89
g70
NtRp1845
(dp1846
g73
(dp1847
g100
g101
ssg82
g1837
sg75
(lp1848
S':'
asbag68
(g89
g70
NtRp1849
(dp1850
g73
(dp1851
sg82
g1837
sg75
(lp1852
g68
(g69
g70
NtRp1853
(dp1854
g73
(dp1855
g81
I4
ssg82
g1849
sg75
(lp1856
g111
asbasbasbag68
(g84
g70
NtRp1857
(dp1858
g73
(dp1859
sg82
g1726
sg75
(lp1860
g68
(g89
g70
NtRp1861
(dp1862
g73
(dp1863
g93
g94
ssg82
g1857
sg75
(lp1864
g833
asbag68
(g89
g70
NtRp1865
(dp1866
g73
(dp1867
g100
g101
ssg82
g1857
sg75
(lp1868
S':'
asbag68
(g89
g70
NtRp1869
(dp1870
g73
(dp1871
sg82
g1857
sg75
(lp1872
g68
(g69
g70
NtRp1873
(dp1874
g73
(dp1875
g81
I4
ssg82
g1869
sg75
(lp1876
g846
asbasbasbag68
(g84
g70
NtRp1877
(dp1878
g73
(dp1879
sg82
g1726
sg75
(lp1880
g68
(g89
g70
NtRp1881
(dp1882
g73
(dp1883
g93
g94
ssg82
g1877
sg75
(lp1884
g1031
asbag68
(g89
g70
NtRp1885
(dp1886
g73
(dp1887
g100
g101
ssg82
g1877
sg75
(lp1888
S':'
asbag68
(g89
g70
NtRp1889
(dp1890
g73
(dp1891
sg82
g1877
sg75
(lp1892
g68
(g69
g70
NtRp1893
(dp1894
g73
(dp1895
g81
I4
ssg82
g1889
sg75
(lp1896
g111
asbasbasbag68
(g84
g70
NtRp1897
(dp1898
g73
(dp1899
sg82
g1726
sg75
(lp1900
g68
(g89
g70
NtRp1901
(dp1902
g73
(dp1903
g93
g94
ssg82
g1897
sg75
(lp1904
g1052
asbag68
(g89
g70
NtRp1905
(dp1906
g73
(dp1907
g100
g101
ssg82
g1897
sg75
(lp1908
S':'
asbag68
(g89
g70
NtRp1909
(dp1910
g73
(dp1911
sg82
g1897
sg75
(lp1912
g68
(g69
g70
NtRp1913
(dp1914
g73
(dp1915
g81
I4
ssg82
g1909
sg75
(lp1916
g111
asbasbasbag68
(g84
g70
NtRp1917
(dp1918
g73
(dp1919
sg82
g1726
sg75
(lp1920
g68
(g89
g70
NtRp1921
(dp1922
g73
(dp1923
g93
g94
ssg82
g1917
sg75
(lp1924
g1290
asbag68
(g89
g70
NtRp1925
(dp1926
g73
(dp1927
g100
g101
ssg82
g1917
sg75
(lp1928
S':'
asbag68
(g89
g70
NtRp1929
(dp1930
g73
(dp1931
sg82
g1917
sg75
(lp1932
g68
(g69
g70
NtRp1933
(dp1934
g73
(dp1935
g81
I4
ssg82
g1929
sg75
(lp1936
g1303
asbasbasbag68
(g84
g70
NtRp1937
(dp1938
g73
(dp1939
sg82
g1726
sg75
(lp1940
g68
(g89
g70
NtRp1941
(dp1942
g73
(dp1943
g93
g94
ssg82
g1937
sg75
(lp1944
g1333
asbag68
(g89
g70
NtRp1945
(dp1946
g73
(dp1947
g100
g101
ssg82
g1937
sg75
(lp1948
S':'
asbag68
(g89
g70
NtRp1949
(dp1950
g73
(dp1951
sg82
g1937
sg75
(lp1952
g68
(g69
g70
NtRp1953
(dp1954
g73
(dp1955
g81
I4
ssg82
g1949
sg75
(lp1956
g68
(g77
g70
NtRp1957
(dp1958
g73
(dp1959
g81
I3
ssg82
Nsg75
(lp1960
g68
(g84
g70
NtRp1961
(dp1962
g73
(dp1963
sg82
g1957
sg75
(lp1964
g68
(g89
g70
NtRp1965
(dp1966
g73
(dp1967
sg82
g1961
sg75
(lp1968
g68
(g69
g70
NtRp1969
(dp1970
g73
(dp1971
g81
I3
ssg82
g1965
sg75
(lp1972
S'1'
asbasbasbag68
(g84
g70
NtRp1973
(dp1974
g73
(dp1975
sg82
g1957
sg75
(lp1976
g68
(g89
g70
NtRp1977
(dp1978
g73
(dp1979
sg82
g1973
sg75
(lp1980
g68
(g69
g70
NtRp1981
(dp1982
g73
(dp1983
g81
I3
ssg82
g1977
sg75
(lp1984
S'99'
p1985
asbasbasbag68
(g84
g70
NtRp1986
(dp1987
g73
(dp1988
sg82
g1957
sg75
(lp1989
g68
(g89
g70
NtRp1990
(dp1991
g73
(dp1992
sg82
g1986
sg75
(lp1993
g68
(g69
g70
NtRp1994
(dp1995
g73
(dp1996
g81
I3
ssg82
g1990
sg75
(lp1997
S'7'
asbasbasbag68
(g84
g70
NtRp1998
(dp1999
g73
(dp2000
sg82
g1957
sg75
(lp2001
g68
(g89
g70
NtRp2002
(dp2003
g73
(dp2004
sg82
g1998
sg75
(lp2005
g68
(g69
g70
NtRp2006
(dp2007
g73
(dp2008
g81
I3
ssg82
g2002
sg75
(lp2009
S'datetime.datetime(2012, 3, 4, 22, 12, 8)'
p2010
asbasbasbag68
(g84
g70
NtRp2011
(dp2012
g73
(dp2013
sg82
g1957
sg75
(lp2014
g68
(g89
g70
NtRp2015
(dp2016
g73
(dp2017
sg82
g2011
sg75
(lp2018
g68
(g69
g70
NtRp2019
(dp2020
g73
(dp2021
g81
I3
ssg82
g2015
sg75
(lp2022
g1412
asbasbasbasbasbasbasbasbasbasbasbag68
(g84
g70
NtRp2023
(dp2024
g73
(dp2025
sg82
g78
sg75
(lp2026
g68
(g89
g70
NtRp2027
(dp2028
g73
(dp2029
g93
g94
ssg82
g2023
sg75
(lp2030
S'is_https'
p2031
asbag68
(g89
g70
NtRp2032
(dp2033
g73
(dp2034
g100
g101
ssg82
g2023
sg75
(lp2035
S':'
asbag68
(g89
g70
NtRp2036
(dp2037
g73
(dp2038
sg82
g2023
sg75
(lp2039
g68
(g69
g70
NtRp2040
(dp2041
g73
(dp2042
g81
I5
ssg82
g2036
sg75
(lp2043
g111
asbasbasbag68
(g84
g70
NtRp2044
(dp2045
g73
(dp2046
sg82
g78
sg75
(lp2047
g68
(g89
g70
NtRp2048
(dp2049
g73
(dp2050
g93
g94
ssg82
g2044
sg75
(lp2051
S'is_local'
p2052
asbag68
(g89
g70
NtRp2053
(dp2054
g73
(dp2055
g100
g101
ssg82
g2044
sg75
(lp2056
S':'
asbag68
(g89
g70
NtRp2057
(dp2058
g73
(dp2059
sg82
g2044
sg75
(lp2060
g68
(g69
g70
NtRp2061
(dp2062
g73
(dp2063
g81
I5
ssg82
g2057
sg75
(lp2064
g1521
asbasbasbag68
(g84
g70
NtRp2065
(dp2066
g73
(dp2067
sg82
g78
sg75
(lp2068
g68
(g89
g70
NtRp2069
(dp2070
g73
(dp2071
g93
g94
ssg82
g2065
sg75
(lp2072
S'is_restful'
p2073
asbag68
(g89
g70
NtRp2074
(dp2075
g73
(dp2076
g100
g101
ssg82
g2065
sg75
(lp2077
S':'
asbag68
(g89
g70
NtRp2078
(dp2079
g73
(dp2080
sg82
g2065
sg75
(lp2081
g68
(g69
g70
NtRp2082
(dp2083
g73
(dp2084
g81
I5
ssg82
g2078
sg75
(lp2085
g111
asbasbasbag68
(g84
g70
NtRp2086
(dp2087
g73
(dp2088
sg82
g78
sg75
(lp2089
g68
(g89
g70
NtRp2090
(dp2091
g73
(dp2092
g93
g94
ssg82
g2086
sg75
(lp2093
S'now'
p2094
asbag68
(g89
g70
NtRp2095
(dp2096
g73
(dp2097
g100
g101
ssg82
g2086
sg75
(lp2098
S':'
asbag68
(g89
g70
NtRp2099
(dp2100
g73
(dp2101
sg82
g2086
sg75
(lp2102
g68
(g69
g70
NtRp2103
(dp2104
g73
(dp2105
g81
I5
ssg82
g2099
sg75
(lp2106
S'datetime.datetime(2012, 4, 30, 22, 43, 17, 246000)'
p2107
asbasbasbag68
(g84
g70
NtRp2108
(dp2109
g73
(dp2110
sg82
g78
sg75
(lp2111
g68
(g89
g70
NtRp2112
(dp2113
g73
(dp2114
g93
g94
ssg82
g2108
sg75
(lp2115
S'post_vars'
p2116
asbag68
(g89
g70
NtRp2117
(dp2118
g73
(dp2119
g100
g101
ssg82
g2108
sg75
(lp2120
S':'
asbag68
(g89
g70
NtRp2121
(dp2122
g73
(dp2123
sg82
g2108
sg75
(lp2124
g68
(g69
g70
NtRp2125
(dp2126
g73
(dp2127
g81
I5
ssg82
g2121
sg75
(lp2128
g68
(g77
g70
NtRp2129
(dp2130
g73
(dp2131
g81
I4
ssg82
Nsg75
(lp2132
sbasbasbasbag68
(g84
g70
NtRp2133
(dp2134
g73
(dp2135
sg82
g78
sg75
(lp2136
g68
(g89
g70
NtRp2137
(dp2138
g73
(dp2139
g93
g94
ssg82
g2133
sg75
(lp2140
S'raw_args'
p2141
asbag68
(g89
g70
NtRp2142
(dp2143
g73
(dp2144
g100
g101
ssg82
g2133
sg75
(lp2145
S':'
asbag68
(g89
g70
NtRp2146
(dp2147
g73
(dp2148
sg82
g2133
sg75
(lp2149
g68
(g69
g70
NtRp2150
(dp2151
g73
(dp2152
g81
I5
ssg82
g2146
sg75
(lp2153
S'read/movimientos/20'
p2154
asbasbasbag68
(g84
g70
NtRp2155
(dp2156
g73
(dp2157
sg82
g78
sg75
(lp2158
g68
(g89
g70
NtRp2159
(dp2160
g73
(dp2161
g93
g94
ssg82
g2155
sg75
(lp2162
S'url'
p2163
asbag68
(g89
g70
NtRp2164
(dp2165
g73
(dp2166
g100
g101
ssg82
g2155
sg75
(lp2167
S':'
asbag68
(g89
g70
NtRp2168
(dp2169
g73
(dp2170
sg82
g2155
sg75
(lp2171
g68
(g69
g70
NtRp2172
(dp2173
g73
(dp2174
g81
I5
ssg82
g2168
sg75
(lp2175
S'/init/default/prueba/read/movimientos/20'
p2176
asbasbasbag68
(g84
g70
NtRp2177
(dp2178
g73
(dp2179
sg82
g78
sg75
(lp2180
g68
(g89
g70
NtRp2181
(dp2182
g73
(dp2183
g93
g94
ssg82
g2177
sg75
(lp2184
S'utcnow'
p2185
asbag68
(g89
g70
NtRp2186
(dp2187
g73
(dp2188
g100
g101
ssg82
g2177
sg75
(lp2189
S':'
asbag68
(g89
g70
NtRp2190
(dp2191
g73
(dp2192
sg82
g2177
sg75
(lp2193
g68
(g69
g70
NtRp2194
(dp2195
g73
(dp2196
g81
I5
ssg82
g2190
sg75
(lp2197
S'datetime.datetime(2012, 5, 1, 1, 43, 17, 246000)'
p2198
asbasbasbag68
(g84
g70
NtRp2199
(dp2200
g73
(dp2201
sg82
g78
sg75
(lp2202
g68
(g89
g70
NtRp2203
(dp2204
g73
(dp2205
g93
g94
ssg82
g2199
sg75
(lp2206
S'uuid'
p2207
asbag68
(g89
g70
NtRp2208
(dp2209
g73
(dp2210
g100
g101
ssg82
g2199
sg75
(lp2211
S':'
asbag68
(g89
g70
NtRp2212
(dp2213
g73
(dp2214
sg82
g2199
sg75
(lp2215
g68
(g69
g70
NtRp2216
(dp2217
g73
(dp2218
g81
I5
ssg82
g2212
sg75
(lp2219
S'init/127.0.0.1.2012-04-30.22-43-17.e15ab4ea-8cf3-4e33-a586-1ac2388701f0'
p2220
asbasbasbag68
(g84
g70
NtRp2221
(dp2222
g73
(dp2223
sg82
g78
sg75
(lp2224
g68
(g89
g70
NtRp2225
(dp2226
g73
(dp2227
g93
g94
ssg82
g2221
sg75
(lp2228
S'vars'
p2229
asbag68
(g89
g70
NtRp2230
(dp2231
g73
(dp2232
g100
g101
ssg82
g2221
sg75
(lp2233
S':'
asbag68
(g89
g70
NtRp2234
(dp2235
g73
(dp2236
sg82
g2221
sg75
(lp2237
g68
(g69
g70
NtRp2238
(dp2239
g73
(dp2240
g81
I5
ssg82
g2234
sg75
(lp2241
g68
(g77
g70
NtRp2242
(dp2243
g73
(dp2244
g81
I4
ssg82
Nsg75
(lp2245
sbasbasbasbag68
(g84
g70
NtRp2246
(dp2247
g73
(dp2248
sg82
g78
sg75
(lp2249
g68
(g89
g70
NtRp2250
(dp2251
g73
(dp2252
g93
g94
ssg82
g2246
sg75
(lp2253
S'wsgi'
p2254
asbag68
(g89
g70
NtRp2255
(dp2256
g73
(dp2257
g100
g101
ssg82
g2246
sg75
(lp2258
S':'
asbag68
(g89
g70
NtRp2259
(dp2260
g73
(dp2261
sg82
g2246
sg75
(lp2262
g68
(g69
g70
NtRp2263
(dp2264
g73
(dp2265
g81
I5
ssg82
g2259
sg75
(lp2266
g68
(g77
g70
NtRp2267
(dp2268
g73
(dp2269
g81
I4
ssg82
Nsg75
(lp2270
g68
(g84
g70
NtRp2271
(dp2272
g73
(dp2273
sg82
g2267
sg75
(lp2274
g68
(g89
g70
NtRp2275
(dp2276
g73
(dp2277
g93
g94
ssg82
g2271
sg75
(lp2278
S'environ'
p2279
asbag68
(g89
g70
NtRp2280
(dp2281
g73
(dp2282
g100
g101
ssg82
g2271
sg75
(lp2283
S':'
asbag68
(g89
g70
NtRp2284
(dp2285
g73
(dp2286
sg82
g2271
sg75
(lp2287
g68
(g69
g70
NtRp2288
(dp2289
g73
(dp2290
g81
I4
ssg82
g2284
sg75
(lp2291
g68
(g77
g70
NtRp2292
(dp2293
g73
(dp2294
g81
I3
ssg82
Nsg75
(lp2295
g68
(g84
g70
NtRp2296
(dp2297
g73
(dp2298
sg82
g2292
sg75
(lp2299
g68
(g89
g70
NtRp2300
(dp2301
g73
(dp2302
g93
g94
ssg82
g2296
sg75
(lp2303
S'HTTP_ACCEPT'
p2304
asbag68
(g89
g70
NtRp2305
(dp2306
g73
(dp2307
g100
g101
ssg82
g2296
sg75
(lp2308
S':'
asbag68
(g89
g70
NtRp2309
(dp2310
g73
(dp2311
sg82
g2296
sg75
(lp2312
g68
(g69
g70
NtRp2313
(dp2314
g73
(dp2315
g81
I3
ssg82
g2309
sg75
(lp2316
g868
asbasbasbag68
(g84
g70
NtRp2317
(dp2318
g73
(dp2319
sg82
g2292
sg75
(lp2320
g68
(g89
g70
NtRp2321
(dp2322
g73
(dp2323
g93
g94
ssg82
g2317
sg75
(lp2324
S'HTTP_ACCEPT_ENCODING'
p2325
asbag68
(g89
g70
NtRp2326
(dp2327
g73
(dp2328
g100
g101
ssg82
g2317
sg75
(lp2329
S':'
asbag68
(g89
g70
NtRp2330
(dp2331
g73
(dp2332
sg82
g2317
sg75
(lp2333
g68
(g69
g70
NtRp2334
(dp2335
g73
(dp2336
g81
I3
ssg82
g2330
sg75
(lp2337
g890
asbasbasbag68
(g84
g70
NtRp2338
(dp2339
g73
(dp2340
sg82
g2292
sg75
(lp2341
g68
(g89
g70
NtRp2342
(dp2343
g73
(dp2344
g93
g94
ssg82
g2338
sg75
(lp2345
S'HTTP_ACCEPT_LANGUAGE'
p2346
asbag68
(g89
g70
NtRp2347
(dp2348
g73
(dp2349
g100
g101
ssg82
g2338
sg75
(lp2350
S':'
asbag68
(g89
g70
NtRp2351
(dp2352
g73
(dp2353
sg82
g2338
sg75
(lp2354
g68
(g69
g70
NtRp2355
(dp2356
g73
(dp2357
g81
I3
ssg82
g2351
sg75
(lp2358
g912
asbasbasbag68
(g84
g70
NtRp2359
(dp2360
g73
(dp2361
sg82
g2292
sg75
(lp2362
g68
(g89
g70
NtRp2363
(dp2364
g73
(dp2365
g93
g94
ssg82
g2359
sg75
(lp2366
S'HTTP_CONNECTION'
p2367
asbag68
(g89
g70
NtRp2368
(dp2369
g73
(dp2370
g100
g101
ssg82
g2359
sg75
(lp2371
S':'
asbag68
(g89
g70
NtRp2372
(dp2373
g73
(dp2374
sg82
g2359
sg75
(lp2375
g68
(g69
g70
NtRp2376
(dp2377
g73
(dp2378
g81
I3
ssg82
g2372
sg75
(lp2379
g934
asbasbasbag68
(g84
g70
NtRp2380
(dp2381
g73
(dp2382
sg82
g2292
sg75
(lp2383
g68
(g89
g70
NtRp2384
(dp2385
g73
(dp2386
g93
g94
ssg82
g2380
sg75
(lp2387
S'HTTP_COOKIE'
p2388
asbag68
(g89
g70
NtRp2389
(dp2390
g73
(dp2391
g100
g101
ssg82
g2380
sg75
(lp2392
S':'
asbag68
(g89
g70
NtRp2393
(dp2394
g73
(dp2395
sg82
g2380
sg75
(lp2396
g68
(g69
g70
NtRp2397
(dp2398
g73
(dp2399
g81
I3
ssg82
g2393
sg75
(lp2400
g956
asbasbasbag68
(g84
g70
NtRp2401
(dp2402
g73
(dp2403
sg82
g2292
sg75
(lp2404
g68
(g89
g70
NtRp2405
(dp2406
g73
(dp2407
g93
g94
ssg82
g2401
sg75
(lp2408
S'HTTP_HOST'
p2409
asbag68
(g89
g70
NtRp2410
(dp2411
g73
(dp2412
g100
g101
ssg82
g2401
sg75
(lp2413
S':'
asbag68
(g89
g70
NtRp2414
(dp2415
g73
(dp2416
sg82
g2401
sg75
(lp2417
g68
(g69
g70
NtRp2418
(dp2419
g73
(dp2420
g81
I3
ssg82
g2414
sg75
(lp2421
g978
asbasbasbag68
(g84
g70
NtRp2422
(dp2423
g73
(dp2424
sg82
g2292
sg75
(lp2425
g68
(g89
g70
NtRp2426
(dp2427
g73
(dp2428
g93
g94
ssg82
g2422
sg75
(lp2429
S'HTTP_REFERER'
p2430
asbag68
(g89
g70
NtRp2431
(dp2432
g73
(dp2433
g100
g101
ssg82
g2422
sg75
(lp2434
S':'
asbag68
(g89
g70
NtRp2435
(dp2436
g73
(dp2437
sg82
g2422
sg75
(lp2438
g68
(g69
g70
NtRp2439
(dp2440
g73
(dp2441
g81
I3
ssg82
g2435
sg75
(lp2442
g1000
asbasbasbag68
(g84
g70
NtRp2443
(dp2444
g73
(dp2445
sg82
g2292
sg75
(lp2446
g68
(g89
g70
NtRp2447
(dp2448
g73
(dp2449
g93
g94
ssg82
g2443
sg75
(lp2450
S'HTTP_USER_AGENT'
p2451
asbag68
(g89
g70
NtRp2452
(dp2453
g73
(dp2454
g100
g101
ssg82
g2443
sg75
(lp2455
S':'
asbag68
(g89
g70
NtRp2456
(dp2457
g73
(dp2458
sg82
g2443
sg75
(lp2459
g68
(g69
g70
NtRp2460
(dp2461
g73
(dp2462
g81
I3
ssg82
g2456
sg75
(lp2463
g1022
asbasbasbag68
(g84
g70
NtRp2464
(dp2465
g73
(dp2466
sg82
g2292
sg75
(lp2467
g68
(g89
g70
NtRp2468
(dp2469
g73
(dp2470
g93
g94
ssg82
g2464
sg75
(lp2471
S'PATH_INFO'
p2472
asbag68
(g89
g70
NtRp2473
(dp2474
g73
(dp2475
g100
g101
ssg82
g2464
sg75
(lp2476
S':'
asbag68
(g89
g70
NtRp2477
(dp2478
g73
(dp2479
sg82
g2464
sg75
(lp2480
g68
(g69
g70
NtRp2481
(dp2482
g73
(dp2483
g81
I3
ssg82
g2477
sg75
(lp2484
g1086
asbasbasbag68
(g84
g70
NtRp2485
(dp2486
g73
(dp2487
sg82
g2292
sg75
(lp2488
g68
(g89
g70
NtRp2489
(dp2490
g73
(dp2491
g93
g94
ssg82
g2485
sg75
(lp2492
S'QUERY_STRING'
p2493
asbag68
(g89
g70
NtRp2494
(dp2495
g73
(dp2496
g100
g101
ssg82
g2485
sg75
(lp2497
S':'
asbag68
(g89
g70
NtRp2498
(dp2499
g73
(dp2500
sg82
g2485
sg75
(lp2501
g68
(g69
g70
NtRp2502
(dp2503
g73
(dp2504
g81
I3
ssg82
g2498
sg75
(lp2505
S''
asbasbasbag68
(g84
g70
NtRp2506
(dp2507
g73
(dp2508
sg82
g2292
sg75
(lp2509
g68
(g89
g70
NtRp2510
(dp2511
g73
(dp2512
g93
g94
ssg82
g2506
sg75
(lp2513
S'REMOTE_ADDR'
p2514
asbag68
(g89
g70
NtRp2515
(dp2516
g73
(dp2517
g100
g101
ssg82
g2506
sg75
(lp2518
S':'
asbag68
(g89
g70
NtRp2519
(dp2520
g73
(dp2521
sg82
g2506
sg75
(lp2522
g68
(g69
g70
NtRp2523
(dp2524
g73
(dp2525
g81
I3
ssg82
g2519
sg75
(lp2526
g240
asbasbasbag68
(g84
g70
NtRp2527
(dp2528
g73
(dp2529
sg82
g2292
sg75
(lp2530
g68
(g89
g70
NtRp2531
(dp2532
g73
(dp2533
g93
g94
ssg82
g2527
sg75
(lp2534
S'REMOTE_PORT'
p2535
asbag68
(g89
g70
NtRp2536
(dp2537
g73
(dp2538
g100
g101
ssg82
g2527
sg75
(lp2539
S':'
asbag68
(g89
g70
NtRp2540
(dp2541
g73
(dp2542
sg82
g2527
sg75
(lp2543
g68
(g69
g70
NtRp2544
(dp2545
g73
(dp2546
g81
I3
ssg82
g2540
sg75
(lp2547
g1150
asbasbasbag68
(g84
g70
NtRp2548
(dp2549
g73
(dp2550
sg82
g2292
sg75
(lp2551
g68
(g89
g70
NtRp2552
(dp2553
g73
(dp2554
g93
g94
ssg82
g2548
sg75
(lp2555
S'REQUEST_METHOD'
p2556
asbag68
(g89
g70
NtRp2557
(dp2558
g73
(dp2559
g100
g101
ssg82
g2548
sg75
(lp2560
S':'
asbag68
(g89
g70
NtRp2561
(dp2562
g73
(dp2563
sg82
g2548
sg75
(lp2564
g68
(g69
g70
NtRp2565
(dp2566
g73
(dp2567
g81
I3
ssg82
g2561
sg75
(lp2568
g1172
asbasbasbag68
(g84
g70
NtRp2569
(dp2570
g73
(dp2571
sg82
g2292
sg75
(lp2572
g68
(g89
g70
NtRp2573
(dp2574
g73
(dp2575
g93
g94
ssg82
g2569
sg75
(lp2576
S'SCRIPT_NAME'
p2577
asbag68
(g89
g70
NtRp2578
(dp2579
g73
(dp2580
g100
g101
ssg82
g2569
sg75
(lp2581
S':'
asbag68
(g89
g70
NtRp2582
(dp2583
g73
(dp2584
sg82
g2569
sg75
(lp2585
g68
(g69
g70
NtRp2586
(dp2587
g73
(dp2588
g81
I3
ssg82
g2582
sg75
(lp2589
S''
asbasbasbag68
(g84
g70
NtRp2590
(dp2591
g73
(dp2592
sg82
g2292
sg75
(lp2593
g68
(g89
g70
NtRp2594
(dp2595
g73
(dp2596
g93
g94
ssg82
g2590
sg75
(lp2597
S'SERVER_NAME'
p2598
asbag68
(g89
g70
NtRp2599
(dp2600
g73
(dp2601
g100
g101
ssg82
g2590
sg75
(lp2602
S':'
asbag68
(g89
g70
NtRp2603
(dp2604
g73
(dp2605
sg82
g2590
sg75
(lp2606
g68
(g69
g70
NtRp2607
(dp2608
g73
(dp2609
g81
I3
ssg82
g2603
sg75
(lp2610
g1215
asbasbasbag68
(g84
g70
NtRp2611
(dp2612
g73
(dp2613
sg82
g2292
sg75
(lp2614
g68
(g89
g70
NtRp2615
(dp2616
g73
(dp2617
g93
g94
ssg82
g2611
sg75
(lp2618
S'SERVER_PORT'
p2619
asbag68
(g89
g70
NtRp2620
(dp2621
g73
(dp2622
g100
g101
ssg82
g2611
sg75
(lp2623
S':'
asbag68
(g89
g70
NtRp2624
(dp2625
g73
(dp2626
sg82
g2611
sg75
(lp2627
g68
(g69
g70
NtRp2628
(dp2629
g73
(dp2630
g81
I3
ssg82
g2624
sg75
(lp2631
g1237
asbasbasbag68
(g84
g70
NtRp2632
(dp2633
g73
(dp2634
sg82
g2292
sg75
(lp2635
g68
(g89
g70
NtRp2636
(dp2637
g73
(dp2638
g93
g94
ssg82
g2632
sg75
(lp2639
S'SERVER_PROTOCOL'
p2640
asbag68
(g89
g70
NtRp2641
(dp2642
g73
(dp2643
g100
g101
ssg82
g2632
sg75
(lp2644
S':'
asbag68
(g89
g70
NtRp2645
(dp2646
g73
(dp2647
sg82
g2632
sg75
(lp2648
g68
(g69
g70
NtRp2649
(dp2650
g73
(dp2651
g81
I3
ssg82
g2645
sg75
(lp2652
g1259
asbasbasbag68
(g84
g70
NtRp2653
(dp2654
g73
(dp2655
sg82
g2292
sg75
(lp2656
g68
(g89
g70
NtRp2657
(dp2658
g73
(dp2659
g93
g94
ssg82
g2653
sg75
(lp2660
S'SERVER_SOFTWARE'
p2661
asbag68
(g89
g70
NtRp2662
(dp2663
g73
(dp2664
g100
g101
ssg82
g2653
sg75
(lp2665
S':'
asbag68
(g89
g70
NtRp2666
(dp2667
g73
(dp2668
sg82
g2653
sg75
(lp2669
g68
(g69
g70
NtRp2670
(dp2671
g73
(dp2672
g81
I3
ssg82
g2666
sg75
(lp2673
g1281
asbasbasbag68
(g84
g70
NtRp2674
(dp2675
g73
(dp2676
sg82
g2292
sg75
(lp2677
g68
(g89
g70
NtRp2678
(dp2679
g73
(dp2680
g93
g94
ssg82
g2674
sg75
(lp2681
S'wsgi.errors'
p2682
asbag68
(g89
g70
NtRp2683
(dp2684
g73
(dp2685
g100
g101
ssg82
g2674
sg75
(lp2686
S':'
asbag68
(g89
g70
NtRp2687
(dp2688
g73
(dp2689
sg82
g2674
sg75
(lp2690
g68
(g69
g70
NtRp2691
(dp2692
g73
(dp2693
g81
I3
ssg82
g2687
sg75
(lp2694
S"<open file '<stderr>', mode 'w' at 0x0000000001D361E0>"
p2695
asbasbasbag68
(g84
g70
NtRp2696
(dp2697
g73
(dp2698
sg82
g2292
sg75
(lp2699
g68
(g89
g70
NtRp2700
(dp2701
g73
(dp2702
g93
g94
ssg82
g2696
sg75
(lp2703
S'wsgi.file_wrapper'
p2704
asbag68
(g89
g70
NtRp2705
(dp2706
g73
(dp2707
g100
g101
ssg82
g2696
sg75
(lp2708
S':'
asbag68
(g89
g70
NtRp2709
(dp2710
g73
(dp2711
sg82
g2696
sg75
(lp2712
g68
(g69
g70
NtRp2713
(dp2714
g73
(dp2715
g81
I3
ssg82
g2709
sg75
(lp2716
S'<class wsgiref.util.FileWrapper at 0x000000000380EC48>'
p2717
asbasbasbag68
(g84
g70
NtRp2718
(dp2719
g73
(dp2720
sg82
g2292
sg75
(lp2721
g68
(g89
g70
NtRp2722
(dp2723
g73
(dp2724
g93
g94
ssg82
g2718
sg75
(lp2725
S'wsgi.input'
p2726
asbag68
(g89
g70
NtRp2727
(dp2728
g73
(dp2729
g100
g101
ssg82
g2718
sg75
(lp2730
S':'
asbag68
(g89
g70
NtRp2731
(dp2732
g73
(dp2733
sg82
g2718
sg75
(lp2734
g68
(g69
g70
NtRp2735
(dp2736
g73
(dp2737
g81
I3
ssg82
g2731
sg75
(lp2738
S'<cStringIO.StringO object at 0x000000000ABD1110>'
p2739
asbasbasbag68
(g84
g70
NtRp2740
(dp2741
g73
(dp2742
sg82
g2292
sg75
(lp2743
g68
(g89
g70
NtRp2744
(dp2745
g73
(dp2746
g93
g94
ssg82
g2740
sg75
(lp2747
S'wsgi.multiprocess'
p2748
asbag68
(g89
g70
NtRp2749
(dp2750
g73
(dp2751
g100
g101
ssg82
g2740
sg75
(lp2752
S':'
asbag68
(g89
g70
NtRp2753
(dp2754
g73
(dp2755
sg82
g2740
sg75
(lp2756
g68
(g69
g70
NtRp2757
(dp2758
g73
(dp2759
g81
I3
ssg82
g2753
sg75
(lp2760
g111
asbasbasbag68
(g84
g70
NtRp2761
(dp2762
g73
(dp2763
sg82
g2292
sg75
(lp2764
g68
(g89
g70
NtRp2765
(dp2766
g73
(dp2767
g93
g94
ssg82
g2761
sg75
(lp2768
S'wsgi.multithread'
p2769
asbag68
(g89
g70
NtRp2770
(dp2771
g73
(dp2772
g100
g101
ssg82
g2761
sg75
(lp2773
S':'
asbag68
(g89
g70
NtRp2774
(dp2775
g73
(dp2776
sg82
g2761
sg75
(lp2777
g68
(g69
g70
NtRp2778
(dp2779
g73
(dp2780
g81
I3
ssg82
g2774
sg75
(lp2781
g1521
asbasbasbag68
(g84
g70
NtRp2782
(dp2783
g73
(dp2784
sg82
g2292
sg75
(lp2785
g68
(g89
g70
NtRp2786
(dp2787
g73
(dp2788
g93
g94
ssg82
g2782
sg75
(lp2789
S'wsgi.run_once'
p2790
asbag68
(g89
g70
NtRp2791
(dp2792
g73
(dp2793
g100
g101
ssg82
g2782
sg75
(lp2794
S':'
asbag68
(g89
g70
NtRp2795
(dp2796
g73
(dp2797
sg82
g2782
sg75
(lp2798
g68
(g69
g70
NtRp2799
(dp2800
g73
(dp2801
g81
I3
ssg82
g2795
sg75
(lp2802
g111
asbasbasbag68
(g84
g70
NtRp2803
(dp2804
g73
(dp2805
sg82
g2292
sg75
(lp2806
g68
(g89
g70
NtRp2807
(dp2808
g73
(dp2809
g93
g94
ssg82
g2803
sg75
(lp2810
S'wsgi.url_scheme'
p2811
asbag68
(g89
g70
NtRp2812
(dp2813
g73
(dp2814
g100
g101
ssg82
g2803
sg75
(lp2815
S':'
asbag68
(g89
g70
NtRp2816
(dp2817
g73
(dp2818
sg82
g2803
sg75
(lp2819
g68
(g69
g70
NtRp2820
(dp2821
g73
(dp2822
g81
I3
ssg82
g2816
sg75
(lp2823
g1564
asbasbasbag68
(g84
g70
NtRp2824
(dp2825
g73
(dp2826
sg82
g2292
sg75
(lp2827
g68
(g89
g70
NtRp2828
(dp2829
g73
(dp2830
g93
g94
ssg82
g2824
sg75
(lp2831
S'wsgi.version'
p2832
asbag68
(g89
g70
NtRp2833
(dp2834
g73
(dp2835
g100
g101
ssg82
g2824
sg75
(lp2836
S':'
asbag68
(g89
g70
NtRp2837
(dp2838
g73
(dp2839
sg82
g2824
sg75
(lp2840
g68
(g69
g70
NtRp2841
(dp2842
g73
(dp2843
g81
I3
ssg82
g2837
sg75
(lp2844
S'1'
asbasbasbasbasbasbasbasbasbasbasbasbasbsS'frames'
p2845
(lp2846
(dp2847
S'file'
p2848
S'c:\\Users\\Jorge\\Downloads\\web2py_src\\web2py\\gluon\\restricted.py'
p2849
sS'dump'
p2850
(dp2851
S'code'
p2852
S'\'response.write(\\\'<!DOCTYPE html PUBLIC "-//W3C//D...end main -->\\\\n </body>\\\\n</html>\\\\n\\\', escape=False)\''
p2853
sS'layer'
p2854
S"r'c:\\Users\\Jorge\\Downloads\\web2py_src\\web2py\\applications\\init\\views\\default/prueba.html'"
p2855
sS'global compile2'
p2856
S'<function compile2>'
p2857
sS'ccode'
p2858
S'undefined'
p2859
ssS'lnum'
p2860
I204
sS'lines'
p2861
(dp2862
I199
S"    environment['__name__'] = '__restricted__'"
p2863
sI200
S'    try:'
p2864
sI201
S'        if type(code) == types.CodeType:'
p2865
sI202
S'            ccode = code'
p2866
sI203
S'        else:'
p2867
sI204
S'            ccode = compile2(code,layer)'
p2868
sI205
S'        exec ccode in environment'
p2869
sI206
S'    except HTTP:'
p2870
sI207
S'        raise'
p2871
sI208
S'    except RestrictedError:'
p2872
ssS'call'
p2873
S'(code=\'response.write(\\\'<!DOCTYPE html PUBLIC "-//W3C//D...end main -->\\\\n </body>\\\\n</html>\\\\n\\\', escape=False)\', environment={\'A\': <class \'gluon.html.A\'>, \'Auth\': <class \'gluon.tools.Auth\'>, \'B\': <class \'gluon.html.B\'>, \'BEAUTIFY\': <class \'gluon.html.BEAUTIFY\'>, \'BODY\': <class \'gluon.html.BODY\'>, \'BR\': <class \'gluon.html.BR\'>, \'BUTTON\': <class \'gluon.html.BUTTON\'>, \'CAT\': <class \'gluon.html.CAT\'>, \'CENTER\': <class \'gluon.html.CENTER\'>, \'CLEANUP\': <class \'gluon.validators.CLEANUP\'>, ...}, layer=r\'c:\\Users\\Jorge\\Downloads\\web2py_src\\web2py\\applications\\init\\views\\default/prueba.html\')'
p2874
sS'func'
p2875
S'restricted'
p2876
sa(dp2877
g2848
S'c:\\Users\\Jorge\\Downloads\\web2py_src\\web2py\\gluon\\restricted.py'
p2878
sg2850
(dp2879
S'builtincompile'
p2880
S'<built-in function compile>'
p2881
sS'code'
p2882
S'\'response.write(\\\'<!DOCTYPE html PUBLIC "-//W3C//D...end main -->\\\\n </body>\\\\n</html>\\\\n\\\', escape=False)\''
p2883
sS'code.rstrip'
p2884
S'<built-in method rstrip of str object>'
p2885
sS').replace'
p2886
g2859
sS'layer'
p2887
S"r'c:\\Users\\Jorge\\Downloads\\web2py_src\\web2py\\applications\\init\\views\\default/prueba.html'"
p2888
ssg2860
I189
sg2861
(dp2889
I192
S'    """'
p2890
sI193
S'    runs code in environment and returns the output. if an exception occurs'
p2891
sI184
S''
sI185
S'def compile2(code,layer):'
p2892
sI186
S'    """'
p2893
sI187
S"    The +'\\n' is necessary else compile fails when code ends in a comment."
p2894
sI188
S'    """'
p2895
sI189
S"    return compile(code.rstrip().replace('\\r\\n','\\n')+'\\n', layer, 'exec')"
p2896
sI190
S''
sI191
S"def restricted(code, environment=None, layer='Unknown'):"
p2897
ssg2873
S'(code=\'response.write(\\\'<!DOCTYPE html PUBLIC "-//W3C//D...end main -->\\\\n </body>\\\\n</html>\\\\n\\\', escape=False)\', layer=r\'c:\\Users\\Jorge\\Downloads\\web2py_src\\web2py\\applications\\init\\views\\default/prueba.html\')'
p2898
sg2875
S'compile2'
p2899
sasS'pyver'
p2900
S'Python 2.7.2: C:\\Python27\\python.exe'
p2901
sS'session'
p2902
g68
(g69
g70
NtRp2903
(dp2904
g73
(dp2905
sg75
(lp2906
g68
(g77
g70
NtRp2907
(dp2908
g73
(dp2909
g81
I5
ssg82
Nsg75
(lp2910
g68
(g84
g70
NtRp2911
(dp2912
g73
(dp2913
sg82
g2907
sg75
(lp2914
g68
(g89
g70
NtRp2915
(dp2916
g73
(dp2917
g93
g94
ssg82
g2911
sg75
(lp2918
S'auth'
p2919
asbag68
(g89
g70
NtRp2920
(dp2921
g73
(dp2922
g100
g101
ssg82
g2911
sg75
(lp2923
S':'
asbag68
(g89
g70
NtRp2924
(dp2925
g73
(dp2926
sg82
g2911
sg75
(lp2927
g68
(g69
g70
NtRp2928
(dp2929
g73
(dp2930
g81
I5
ssg82
g2924
sg75
(lp2931
g68
(g77
g70
NtRp2932
(dp2933
g73
(dp2934
g81
I4
ssg82
Nsg75
(lp2935
g68
(g84
g70
NtRp2936
(dp2937
g73
(dp2938
sg82
g2932
sg75
(lp2939
g68
(g89
g70
NtRp2940
(dp2941
g73
(dp2942
g93
g94
ssg82
g2936
sg75
(lp2943
S'expiration'
p2944
asbag68
(g89
g70
NtRp2945
(dp2946
g73
(dp2947
g100
g101
ssg82
g2936
sg75
(lp2948
S':'
asbag68
(g89
g70
NtRp2949
(dp2950
g73
(dp2951
sg82
g2936
sg75
(lp2952
g68
(g69
g70
NtRp2953
(dp2954
g73
(dp2955
g81
I4
ssg82
g2949
sg75
(lp2956
S'3600'
p2957
asbasbasbag68
(g84
g70
NtRp2958
(dp2959
g73
(dp2960
sg82
g2932
sg75
(lp2961
g68
(g89
g70
NtRp2962
(dp2963
g73
(dp2964
g93
g94
ssg82
g2958
sg75
(lp2965
S'hmac_key'
p2966
asbag68
(g89
g70
NtRp2967
(dp2968
g73
(dp2969
g100
g101
ssg82
g2958
sg75
(lp2970
S':'
asbag68
(g89
g70
NtRp2971
(dp2972
g73
(dp2973
sg82
g2958
sg75
(lp2974
g68
(g69
g70
NtRp2975
(dp2976
g73
(dp2977
g81
I4
ssg82
g2971
sg75
(lp2978
S'df6450f8-dea7-4055-8229-826d84195553'
p2979
asbasbasbag68
(g84
g70
NtRp2980
(dp2981
g73
(dp2982
sg82
g2932
sg75
(lp2983
g68
(g89
g70
NtRp2984
(dp2985
g73
(dp2986
g93
g94
ssg82
g2980
sg75
(lp2987
S'last_visit'
p2988
asbag68
(g89
g70
NtRp2989
(dp2990
g73
(dp2991
g100
g101
ssg82
g2980
sg75
(lp2992
S':'
asbag68
(g89
g70
NtRp2993
(dp2994
g73
(dp2995
sg82
g2980
sg75
(lp2996
g68
(g69
g70
NtRp2997
(dp2998
g73
(dp2999
g81
I4
ssg82
g2993
sg75
(lp3000
S'datetime.datetime(2012, 4, 30, 22, 43, 14, 382000)'
p3001
asbasbasbag68
(g84
g70
NtRp3002
(dp3003
g73
(dp3004
sg82
g2932
sg75
(lp3005
g68
(g89
g70
NtRp3006
(dp3007
g73
(dp3008
g93
g94
ssg82
g3002
sg75
(lp3009
S'remember'
p3010
asbag68
(g89
g70
NtRp3011
(dp3012
g73
(dp3013
g100
g101
ssg82
g3002
sg75
(lp3014
S':'
asbag68
(g89
g70
NtRp3015
(dp3016
g73
(dp3017
sg82
g3002
sg75
(lp3018
g68
(g69
g70
NtRp3019
(dp3020
g73
(dp3021
g81
I4
ssg82
g3015
sg75
(lp3022
g111
asbasbasbag68
(g84
g70
NtRp3023
(dp3024
g73
(dp3025
sg82
g2932
sg75
(lp3026
g68
(g89
g70
NtRp3027
(dp3028
g73
(dp3029
g93
g94
ssg82
g3023
sg75
(lp3030
S'user'
p3031
asbag68
(g89
g70
NtRp3032
(dp3033
g73
(dp3034
g100
g101
ssg82
g3023
sg75
(lp3035
S':'
asbag68
(g89
g70
NtRp3036
(dp3037
g73
(dp3038
sg82
g3023
sg75
(lp3039
g68
(g69
g70
NtRp3040
(dp3041
g73
(dp3042
g81
I4
ssg82
g3036
sg75
(lp3043
g68
(g77
g70
NtRp3044
(dp3045
g73
(dp3046
g81
I3
ssg82
Nsg75
(lp3047
g68
(g84
g70
NtRp3048
(dp3049
g73
(dp3050
sg82
g3044
sg75
(lp3051
g68
(g89
g70
NtRp3052
(dp3053
g73
(dp3054
g93
g94
ssg82
g3048
sg75
(lp3055
S'created_on'
p3056
asbag68
(g89
g70
NtRp3057
(dp3058
g73
(dp3059
g100
g101
ssg82
g3048
sg75
(lp3060
S':'
asbag68
(g89
g70
NtRp3061
(dp3062
g73
(dp3063
sg82
g3048
sg75
(lp3064
g68
(g69
g70
NtRp3065
(dp3066
g73
(dp3067
g81
I3
ssg82
g3061
sg75
(lp3068
S'datetime.datetime(2012, 4, 14, 20, 20, 15)'
p3069
asbasbasbag68
(g84
g70
NtRp3070
(dp3071
g73
(dp3072
sg82
g3044
sg75
(lp3073
g68
(g89
g70
NtRp3074
(dp3075
g73
(dp3076
g93
g94
ssg82
g3070
sg75
(lp3077
S'email'
p3078
asbag68
(g89
g70
NtRp3079
(dp3080
g73
(dp3081
g100
g101
ssg82
g3070
sg75
(lp3082
S':'
asbag68
(g89
g70
NtRp3083
(dp3084
g73
(dp3085
sg82
g3070
sg75
(lp3086
g68
(g69
g70
NtRp3087
(dp3088
g73
(dp3089
g81
I3
ssg82
g3083
sg75
(lp3090
S'maximiliano.alcaraz@aeg.com.ar'
p3091
asbasbasbag68
(g84
g70
NtRp3092
(dp3093
g73
(dp3094
sg82
g3044
sg75
(lp3095
g68
(g89
g70
NtRp3096
(dp3097
g73
(dp3098
g93
g94
ssg82
g3092
sg75
(lp3099
S'first_name'
p3100
asbag68
(g89
g70
NtRp3101
(dp3102
g73
(dp3103
g100
g101
ssg82
g3092
sg75
(lp3104
S':'
asbag68
(g89
g70
NtRp3105
(dp3106
g73
(dp3107
sg82
g3092
sg75
(lp3108
g68
(g69
g70
NtRp3109
(dp3110
g73
(dp3111
g81
I3
ssg82
g3105
sg75
(lp3112
S'Maximiliano'
p3113
asbasbasbag68
(g84
g70
NtRp3114
(dp3115
g73
(dp3116
sg82
g3044
sg75
(lp3117
g68
(g89
g70
NtRp3118
(dp3119
g73
(dp3120
g93
g94
ssg82
g3114
sg75
(lp3121
S'id'
p3122
asbag68
(g89
g70
NtRp3123
(dp3124
g73
(dp3125
g100
g101
ssg82
g3114
sg75
(lp3126
S':'
asbag68
(g89
g70
NtRp3127
(dp3128
g73
(dp3129
sg82
g3114
sg75
(lp3130
g68
(g69
g70
NtRp3131
(dp3132
g73
(dp3133
g81
I3
ssg82
g3127
sg75
(lp3134
S'15'
p3135
asbasbasbag68
(g84
g70
NtRp3136
(dp3137
g73
(dp3138
sg82
g3044
sg75
(lp3139
g68
(g89
g70
NtRp3140
(dp3141
g73
(dp3142
g93
g94
ssg82
g3136
sg75
(lp3143
S'last_name'
p3144
asbag68
(g89
g70
NtRp3145
(dp3146
g73
(dp3147
g100
g101
ssg82
g3136
sg75
(lp3148
S':'
asbag68
(g89
g70
NtRp3149
(dp3150
g73
(dp3151
sg82
g3136
sg75
(lp3152
g68
(g69
g70
NtRp3153
(dp3154
g73
(dp3155
g81
I3
ssg82
g3149
sg75
(lp3156
S'Alcaraz'
p3157
asbasbasbag68
(g84
g70
NtRp3158
(dp3159
g73
(dp3160
sg82
g3044
sg75
(lp3161
g68
(g89
g70
NtRp3162
(dp3163
g73
(dp3164
g93
g94
ssg82
g3158
sg75
(lp3165
S'modified_on'
p3166
asbag68
(g89
g70
NtRp3167
(dp3168
g73
(dp3169
g100
g101
ssg82
g3158
sg75
(lp3170
S':'
asbag68
(g89
g70
NtRp3171
(dp3172
g73
(dp3173
sg82
g3158
sg75
(lp3174
g68
(g69
g70
NtRp3175
(dp3176
g73
(dp3177
g81
I3
ssg82
g3171
sg75
(lp3178
S'datetime.datetime(2012, 4, 14, 20, 20, 15)'
p3179
asbasbasbag68
(g84
g70
NtRp3180
(dp3181
g73
(dp3182
sg82
g3044
sg75
(lp3183
g68
(g89
g70
NtRp3184
(dp3185
g73
(dp3186
g93
g94
ssg82
g3180
sg75
(lp3187
S'password'
p3188
asbag68
(g89
g70
NtRp3189
(dp3190
g73
(dp3191
g100
g101
ssg82
g3180
sg75
(lp3192
S':'
asbag68
(g89
g70
NtRp3193
(dp3194
g73
(dp3195
sg82
g3180
sg75
(lp3196
g68
(g69
g70
NtRp3197
(dp3198
g73
(dp3199
g81
I3
ssg82
g3193
sg75
(lp3200
S'3b00954a2acd03e4a32d91f4bdebb4b7'
p3201
asbasbasbag68
(g84
g70
NtRp3202
(dp3203
g73
(dp3204
sg82
g3044
sg75
(lp3205
g68
(g89
g70
NtRp3206
(dp3207
g73
(dp3208
g93
g94
ssg82
g3202
sg75
(lp3209
S'registration_id'
p3210
asbag68
(g89
g70
NtRp3211
(dp3212
g73
(dp3213
g100
g101
ssg82
g3202
sg75
(lp3214
S':'
asbag68
(g89
g70
NtRp3215
(dp3216
g73
(dp3217
sg82
g3202
sg75
(lp3218
g68
(g69
g70
NtRp3219
(dp3220
g73
(dp3221
g81
I3
ssg82
g3215
sg75
(lp3222
S''
asbasbasbag68
(g84
g70
NtRp3223
(dp3224
g73
(dp3225
sg82
g3044
sg75
(lp3226
g68
(g89
g70
NtRp3227
(dp3228
g73
(dp3229
g93
g94
ssg82
g3223
sg75
(lp3230
S'registration_key'
p3231
asbag68
(g89
g70
NtRp3232
(dp3233
g73
(dp3234
g100
g101
ssg82
g3223
sg75
(lp3235
S':'
asbag68
(g89
g70
NtRp3236
(dp3237
g73
(dp3238
sg82
g3223
sg75
(lp3239
g68
(g69
g70
NtRp3240
(dp3241
g73
(dp3242
g81
I3
ssg82
g3236
sg75
(lp3243
S''
asbasbasbag68
(g84
g70
NtRp3244
(dp3245
g73
(dp3246
sg82
g3044
sg75
(lp3247
g68
(g89
g70
NtRp3248
(dp3249
g73
(dp3250
g93
g94
ssg82
g3244
sg75
(lp3251
S'reset_password_key'
p3252
asbag68
(g89
g70
NtRp3253
(dp3254
g73
(dp3255
g100
g101
ssg82
g3244
sg75
(lp3256
S':'
asbag68
(g89
g70
NtRp3257
(dp3258
g73
(dp3259
sg82
g3244
sg75
(lp3260
g68
(g69
g70
NtRp3261
(dp3262
g73
(dp3263
g81
I3
ssg82
g3257
sg75
(lp3264
S''
asbasbasbag68
(g84
g70
NtRp3265
(dp3266
g73
(dp3267
sg82
g3044
sg75
(lp3268
g68
(g89
g70
NtRp3269
(dp3270
g73
(dp3271
g93
g94
ssg82
g3265
sg75
(lp3272
S'username'
p3273
asbag68
(g89
g70
NtRp3274
(dp3275
g73
(dp3276
g100
g101
ssg82
g3265
sg75
(lp3277
S':'
asbag68
(g89
g70
NtRp3278
(dp3279
g73
(dp3280
sg82
g3265
sg75
(lp3281
g68
(g69
g70
NtRp3282
(dp3283
g73
(dp3284
g81
I3
ssg82
g3278
sg75
(lp3285
S'maxi'
p3286
asbasbasbasbasbasbasbag68
(g84
g70
NtRp3287
(dp3288
g73
(dp3289
sg82
g2932
sg75
(lp3290
g68
(g89
g70
NtRp3291
(dp3292
g73
(dp3293
g93
g94
ssg82
g3287
sg75
(lp3294
S'user_groups'
p3295
asbag68
(g89
g70
NtRp3296
(dp3297
g73
(dp3298
g100
g101
ssg82
g3287
sg75
(lp3299
S':'
asbag68
(g89
g70
NtRp3300
(dp3301
g73
(dp3302
sg82
g3287
sg75
(lp3303
g68
(g69
g70
NtRp3304
(dp3305
g73
(dp3306
g81
I4
ssg82
g3300
sg75
(lp3307
g68
(g77
g70
NtRp3308
(dp3309
g73
(dp3310
g81
I3
ssg82
Nsg75
(lp3311
g68
(g84
g70
NtRp3312
(dp3313
g73
(dp3314
sg82
g3308
sg75
(lp3315
g68
(g89
g70
NtRp3316
(dp3317
g73
(dp3318
g93
g94
ssg82
g3312
sg75
(lp3319
S'5'
asbag68
(g89
g70
NtRp3320
(dp3321
g73
(dp3322
g100
g101
ssg82
g3312
sg75
(lp3323
S':'
asbag68
(g89
g70
NtRp3324
(dp3325
g73
(dp3326
sg82
g3312
sg75
(lp3327
g68
(g69
g70
NtRp3328
(dp3329
g73
(dp3330
g81
I3
ssg82
g3324
sg75
(lp3331
S'Admin'
p3332
asbasbasbasbasbasbasbasbasbasbasbasbasbsS'etype'
p3333
S"<type 'exceptions.SyntaxError'>"
p3334
sS'date'
p3335
S'Mon Apr 30 22:44:15 2012'
p3336
sS'response'
p3337
g68
(g69
g70
NtRp3338
(dp3339
g73
(dp3340
sg75
(lp3341
g68
(g77
g70
NtRp3342
(dp3343
g73
(dp3344
g81
I5
ssg82
Nsg75
(lp3345
g68
(g84
g70
NtRp3346
(dp3347
g73
(dp3348
sg82
g3342
sg75
(lp3349
g68
(g89
g70
NtRp3350
(dp3351
g73
(dp3352
g93
g94
ssg82
g3346
sg75
(lp3353
g205
asbag68
(g89
g70
NtRp3354
(dp3355
g73
(dp3356
g100
g101
ssg82
g3346
sg75
(lp3357
S':'
asbag68
(g89
g70
NtRp3358
(dp3359
g73
(dp3360
sg82
g3346
sg75
(lp3361
g68
(g69
g70
NtRp3362
(dp3363
g73
(dp3364
g81
I5
ssg82
g3358
sg75
(lp3365
S'<cStringIO.StringO object at 0x000000000ABCEC38>'
p3366
asbasbasbag68
(g84
g70
NtRp3367
(dp3368
g73
(dp3369
sg82
g3342
sg75
(lp3370
g68
(g89
g70
NtRp3371
(dp3372
g73
(dp3373
g93
g94
ssg82
g3367
sg75
(lp3374
g271
asbag68
(g89
g70
NtRp3375
(dp3376
g73
(dp3377
g100
g101
ssg82
g3367
sg75
(lp3378
S':'
asbag68
(g89
g70
NtRp3379
(dp3380
g73
(dp3381
sg82
g3367
sg75
(lp3382
g68
(g69
g70
NtRp3383
(dp3384
g73
(dp3385
g81
I5
ssg82
g3379
sg75
(lp3386
g68
(g77
g70
NtRp3387
(dp3388
g73
(dp3389
g81
I4
ssg82
Nsg75
(lp3390
g68
(g84
g70
NtRp3391
(dp3392
g73
(dp3393
sg82
g3387
sg75
(lp3394
g68
(g89
g70
NtRp3395
(dp3396
g73
(dp3397
g93
g94
ssg82
g3391
sg75
(lp3398
S'session_id_init'
p3399
asbag68
(g89
g70
NtRp3400
(dp3401
g73
(dp3402
g100
g101
ssg82
g3391
sg75
(lp3403
S':'
asbag68
(g89
g70
NtRp3404
(dp3405
g73
(dp3406
sg82
g3391
sg75
(lp3407
g68
(g69
g70
NtRp3408
(dp3409
g73
(dp3410
g81
I4
ssg82
g3404
sg75
(lp3411
g68
(g77
g70
NtRp3412
(dp3413
g73
(dp3414
g81
I3
ssg82
Nsg75
(lp3415
g68
(g84
g70
NtRp3416
(dp3417
g73
(dp3418
sg82
g3412
sg75
(lp3419
g68
(g89
g70
NtRp3420
(dp3421
g73
(dp3422
g93
g94
ssg82
g3416
sg75
(lp3423
g321
asbag68
(g89
g70
NtRp3424
(dp3425
g73
(dp3426
g100
g101
ssg82
g3416
sg75
(lp3427
S':'
asbag68
(g89
g70
NtRp3428
(dp3429
g73
(dp3430
sg82
g3416
sg75
(lp3431
g68
(g69
g70
NtRp3432
(dp3433
g73
(dp3434
g81
I3
ssg82
g3428
sg75
(lp3435
S''
asbasbasbag68
(g84
g70
NtRp3436
(dp3437
g73
(dp3438
sg82
g3412
sg75
(lp3439
g68
(g89
g70
NtRp3440
(dp3441
g73
(dp3442
g93
g94
ssg82
g3436
sg75
(lp3443
g342
asbag68
(g89
g70
NtRp3444
(dp3445
g73
(dp3446
g100
g101
ssg82
g3436
sg75
(lp3447
S':'
asbag68
(g89
g70
NtRp3448
(dp3449
g73
(dp3450
sg82
g3436
sg75
(lp3451
g68
(g69
g70
NtRp3452
(dp3453
g73
(dp3454
g81
I3
ssg82
g3448
sg75
(lp3455
S''
asbasbasbag68
(g84
g70
NtRp3456
(dp3457
g73
(dp3458
sg82
g3412
sg75
(lp3459
g68
(g89
g70
NtRp3460
(dp3461
g73
(dp3462
g93
g94
ssg82
g3456
sg75
(lp3463
g363
asbag68
(g89
g70
NtRp3464
(dp3465
g73
(dp3466
g100
g101
ssg82
g3456
sg75
(lp3467
S':'
asbag68
(g89
g70
NtRp3468
(dp3469
g73
(dp3470
sg82
g3456
sg75
(lp3471
g68
(g69
g70
NtRp3472
(dp3473
g73
(dp3474
g81
I3
ssg82
g3468
sg75
(lp3475
S''
asbasbasbag68
(g84
g70
NtRp3476
(dp3477
g73
(dp3478
sg82
g3412
sg75
(lp3479
g68
(g89
g70
NtRp3480
(dp3481
g73
(dp3482
g93
g94
ssg82
g3476
sg75
(lp3483
g384
asbag68
(g89
g70
NtRp3484
(dp3485
g73
(dp3486
g100
g101
ssg82
g3476
sg75
(lp3487
S':'
asbag68
(g89
g70
NtRp3488
(dp3489
g73
(dp3490
sg82
g3476
sg75
(lp3491
g68
(g69
g70
NtRp3492
(dp3493
g73
(dp3494
g81
I3
ssg82
g3488
sg75
(lp3495
S''
asbasbasbag68
(g84
g70
NtRp3496
(dp3497
g73
(dp3498
sg82
g3412
sg75
(lp3499
g68
(g89
g70
NtRp3500
(dp3501
g73
(dp3502
g93
g94
ssg82
g3496
sg75
(lp3503
g405
asbag68
(g89
g70
NtRp3504
(dp3505
g73
(dp3506
g100
g101
ssg82
g3496
sg75
(lp3507
S':'
asbag68
(g89
g70
NtRp3508
(dp3509
g73
(dp3510
sg82
g3496
sg75
(lp3511
g68
(g69
g70
NtRp3512
(dp3513
g73
(dp3514
g81
I3
ssg82
g3508
sg75
(lp3515
S''
asbasbasbag68
(g84
g70
NtRp3516
(dp3517
g73
(dp3518
sg82
g3412
sg75
(lp3519
g68
(g89
g70
NtRp3520
(dp3521
g73
(dp3522
g93
g94
ssg82
g3516
sg75
(lp3523
g426
asbag68
(g89
g70
NtRp3524
(dp3525
g73
(dp3526
g100
g101
ssg82
g3516
sg75
(lp3527
S':'
asbag68
(g89
g70
NtRp3528
(dp3529
g73
(dp3530
sg82
g3516
sg75
(lp3531
g68
(g69
g70
NtRp3532
(dp3533
g73
(dp3534
g81
I3
ssg82
g3528
sg75
(lp3535
S'/'
asbasbasbag68
(g84
g70
NtRp3536
(dp3537
g73
(dp3538
sg82
g3412
sg75
(lp3539
g68
(g89
g70
NtRp3540
(dp3541
g73
(dp3542
g93
g94
ssg82
g3536
sg75
(lp3543
g447
asbag68
(g89
g70
NtRp3544
(dp3545
g73
(dp3546
g100
g101
ssg82
g3536
sg75
(lp3547
S':'
asbag68
(g89
g70
NtRp3548
(dp3549
g73
(dp3550
sg82
g3536
sg75
(lp3551
g68
(g69
g70
NtRp3552
(dp3553
g73
(dp3554
g81
I3
ssg82
g3548
sg75
(lp3555
S''
asbasbasbag68
(g84
g70
NtRp3556
(dp3557
g73
(dp3558
sg82
g3412
sg75
(lp3559
g68
(g89
g70
NtRp3560
(dp3561
g73
(dp3562
g93
g94
ssg82
g3556
sg75
(lp3563
g468
asbag68
(g89
g70
NtRp3564
(dp3565
g73
(dp3566
g100
g101
ssg82
g3556
sg75
(lp3567
S':'
asbag68
(g89
g70
NtRp3568
(dp3569
g73
(dp3570
sg82
g3556
sg75
(lp3571
g68
(g69
g70
NtRp3572
(dp3573
g73
(dp3574
g81
I3
ssg82
g3568
sg75
(lp3575
S''
asbasbasbasbasbasbasbasbasbasbasbag68
(g84
g70
NtRp3576
(dp3577
g73
(dp3578
sg82
g3342
sg75
(lp3579
g68
(g89
g70
NtRp3580
(dp3581
g73
(dp3582
g93
g94
ssg82
g3576
sg75
(lp3583
S'delimiters'
p3584
asbag68
(g89
g70
NtRp3585
(dp3586
g73
(dp3587
g100
g101
ssg82
g3576
sg75
(lp3588
S':'
asbag68
(g89
g70
NtRp3589
(dp3590
g73
(dp3591
sg82
g3576
sg75
(lp3592
g68
(g69
g70
NtRp3593
(dp3594
g73
(dp3595
g81
I5
ssg82
g3589
sg75
(lp3596
g68
(g77
g70
NtRp3597
(dp3598
g73
(dp3599
g81
I4
ssg82
Nsg75
(lp3600
g68
(g84
g70
NtRp3601
(dp3602
g73
(dp3603
sg82
g3597
sg75
(lp3604
g68
(g89
g70
NtRp3605
(dp3606
g73
(dp3607
sg82
g3601
sg75
(lp3608
g68
(g69
g70
NtRp3609
(dp3610
g73
(dp3611
g81
I4
ssg82
g3605
sg75
(lp3612
S'{{'
p3613
asbasbasbag68
(g84
g70
NtRp3614
(dp3615
g73
(dp3616
sg82
g3597
sg75
(lp3617
g68
(g89
g70
NtRp3618
(dp3619
g73
(dp3620
sg82
g3614
sg75
(lp3621
g68
(g69
g70
NtRp3622
(dp3623
g73
(dp3624
g81
I4
ssg82
g3618
sg75
(lp3625
S'}}'
p3626
asbasbasbasbasbasbasbag68
(g84
g70
NtRp3627
(dp3628
g73
(dp3629
sg82
g3342
sg75
(lp3630
g68
(g89
g70
NtRp3631
(dp3632
g73
(dp3633
g93
g94
ssg82
g3627
sg75
(lp3634
S'files'
p3635
asbag68
(g89
g70
NtRp3636
(dp3637
g73
(dp3638
g100
g101
ssg82
g3627
sg75
(lp3639
S':'
asbag68
(g89
g70
NtRp3640
(dp3641
g73
(dp3642
sg82
g3627
sg75
(lp3643
g68
(g69
g70
NtRp3644
(dp3645
g73
(dp3646
g81
I5
ssg82
g3640
sg75
(lp3647
g68
(g77
g70
NtRp3648
(dp3649
g73
(dp3650
g81
I4
ssg82
Nsg75
(lp3651
sbasbasbasbag68
(g84
g70
NtRp3652
(dp3653
g73
(dp3654
sg82
g3342
sg75
(lp3655
g68
(g89
g70
NtRp3656
(dp3657
g73
(dp3658
g93
g94
ssg82
g3652
sg75
(lp3659
S'flash'
p3660
asbag68
(g89
g70
NtRp3661
(dp3662
g73
(dp3663
g100
g101
ssg82
g3652
sg75
(lp3664
S':'
asbag68
(g89
g70
NtRp3665
(dp3666
g73
(dp3667
sg82
g3652
sg75
(lp3668
g68
(g69
g70
NtRp3669
(dp3670
g73
(dp3671
g81
I5
ssg82
g3665
sg75
(lp3672
S'please fill the form  ${id}'
p3673
asbasbasbag68
(g84
g70
NtRp3674
(dp3675
g73
(dp3676
sg82
g3342
sg75
(lp3677
g68
(g89
g70
NtRp3678
(dp3679
g73
(dp3680
g93
g94
ssg82
g3674
sg75
(lp3681
S'generic_patterns'
p3682
asbag68
(g89
g70
NtRp3683
(dp3684
g73
(dp3685
g100
g101
ssg82
g3674
sg75
(lp3686
S':'
asbag68
(g89
g70
NtRp3687
(dp3688
g73
(dp3689
sg82
g3674
sg75
(lp3690
g68
(g69
g70
NtRp3691
(dp3692
g73
(dp3693
g81
I5
ssg82
g3687
sg75
(lp3694
g68
(g77
g70
NtRp3695
(dp3696
g73
(dp3697
g81
I4
ssg82
Nsg75
(lp3698
g68
(g84
g70
NtRp3699
(dp3700
g73
(dp3701
sg82
g3695
sg75
(lp3702
g68
(g89
g70
NtRp3703
(dp3704
g73
(dp3705
sg82
g3699
sg75
(lp3706
g68
(g69
g70
NtRp3707
(dp3708
g73
(dp3709
g81
I4
ssg82
g3703
sg75
(lp3710
S'*'
asbasbasbasbasbasbasbag68
(g84
g70
NtRp3711
(dp3712
g73
(dp3713
sg82
g3342
sg75
(lp3714
g68
(g89
g70
NtRp3715
(dp3716
g73
(dp3717
g93
g94
ssg82
g3711
sg75
(lp3718
S'headers'
p3719
asbag68
(g89
g70
NtRp3720
(dp3721
g73
(dp3722
g100
g101
ssg82
g3711
sg75
(lp3723
S':'
asbag68
(g89
g70
NtRp3724
(dp3725
g73
(dp3726
sg82
g3711
sg75
(lp3727
g68
(g69
g70
NtRp3728
(dp3729
g73
(dp3730
g81
I5
ssg82
g3724
sg75
(lp3731
g68
(g77
g70
NtRp3732
(dp3733
g73
(dp3734
g81
I4
ssg82
Nsg75
(lp3735
g68
(g84
g70
NtRp3736
(dp3737
g73
(dp3738
sg82
g3732
sg75
(lp3739
g68
(g89
g70
NtRp3740
(dp3741
g73
(dp3742
g93
g94
ssg82
g3736
sg75
(lp3743
S'Cache-Control'
p3744
asbag68
(g89
g70
NtRp3745
(dp3746
g73
(dp3747
g100
g101
ssg82
g3736
sg75
(lp3748
S':'
asbag68
(g89
g70
NtRp3749
(dp3750
g73
(dp3751
sg82
g3736
sg75
(lp3752
g68
(g69
g70
NtRp3753
(dp3754
g73
(dp3755
g81
I4
ssg82
g3749
sg75
(lp3756
S'no-store, no-cache, must-revalidate, post-check=0, pre-check=0'
p3757
asbasbasbag68
(g84
g70
NtRp3758
(dp3759
g73
(dp3760
sg82
g3732
sg75
(lp3761
g68
(g89
g70
NtRp3762
(dp3763
g73
(dp3764
g93
g94
ssg82
g3758
sg75
(lp3765
S'Content-Type'
p3766
asbag68
(g89
g70
NtRp3767
(dp3768
g73
(dp3769
g100
g101
ssg82
g3758
sg75
(lp3770
S':'
asbag68
(g89
g70
NtRp3771
(dp3772
g73
(dp3773
sg82
g3758
sg75
(lp3774
g68
(g69
g70
NtRp3775
(dp3776
g73
(dp3777
g81
I4
ssg82
g3771
sg75
(lp3778
S'text/html; charset=utf-8'
p3779
asbasbasbag68
(g84
g70
NtRp3780
(dp3781
g73
(dp3782
sg82
g3732
sg75
(lp3783
g68
(g89
g70
NtRp3784
(dp3785
g73
(dp3786
g93
g94
ssg82
g3780
sg75
(lp3787
S'Expires'
p3788
asbag68
(g89
g70
NtRp3789
(dp3790
g73
(dp3791
g100
g101
ssg82
g3780
sg75
(lp3792
S':'
asbag68
(g89
g70
NtRp3793
(dp3794
g73
(dp3795
sg82
g3780
sg75
(lp3796
g68
(g69
g70
NtRp3797
(dp3798
g73
(dp3799
g81
I4
ssg82
g3793
sg75
(lp3800
S'Tue, 01 May 2012 01:43:17 GMT'
p3801
asbasbasbag68
(g84
g70
NtRp3802
(dp3803
g73
(dp3804
sg82
g3732
sg75
(lp3805
g68
(g89
g70
NtRp3806
(dp3807
g73
(dp3808
g93
g94
ssg82
g3802
sg75
(lp3809
S'Pragma'
p3810
asbag68
(g89
g70
NtRp3811
(dp3812
g73
(dp3813
g100
g101
ssg82
g3802
sg75
(lp3814
S':'
asbag68
(g89
g70
NtRp3815
(dp3816
g73
(dp3817
sg82
g3802
sg75
(lp3818
g68
(g69
g70
NtRp3819
(dp3820
g73
(dp3821
g81
I4
ssg82
g3815
sg75
(lp3822
S'no-cache'
p3823
asbasbasbag68
(g84
g70
NtRp3824
(dp3825
g73
(dp3826
sg82
g3732
sg75
(lp3827
g68
(g89
g70
NtRp3828
(dp3829
g73
(dp3830
g93
g94
ssg82
g3824
sg75
(lp3831
S'X-Powered-By'
p3832
asbag68
(g89
g70
NtRp3833
(dp3834
g73
(dp3835
g100
g101
ssg82
g3824
sg75
(lp3836
S':'
asbag68
(g89
g70
NtRp3837
(dp3838
g73
(dp3839
sg82
g3824
sg75
(lp3840
g68
(g69
g70
NtRp3841
(dp3842
g73
(dp3843
g81
I4
ssg82
g3837
sg75
(lp3844
S'web2py'
p3845
asbasbasbasbasbasbasbag68
(g84
g70
NtRp3846
(dp3847
g73
(dp3848
sg82
g3342
sg75
(lp3849
g68
(g89
g70
NtRp3850
(dp3851
g73
(dp3852
g93
g94
ssg82
g3846
sg75
(lp3853
S'menu'
p3854
asbag68
(g89
g70
NtRp3855
(dp3856
g73
(dp3857
g100
g101
ssg82
g3846
sg75
(lp3858
S':'
asbag68
(g89
g70
NtRp3859
(dp3860
g73
(dp3861
sg82
g3846
sg75
(lp3862
g68
(g69
g70
NtRp3863
(dp3864
g73
(dp3865
g81
I5
ssg82
g3859
sg75
(lp3866
g68
(g77
g70
NtRp3867
(dp3868
g73
(dp3869
g81
I4
ssg82
Nsg75
(lp3870
g68
(g84
g70
NtRp3871
(dp3872
g73
(dp3873
sg82
g3867
sg75
(lp3874
g68
(g89
g70
NtRp3875
(dp3876
g73
(dp3877
sg82
g3871
sg75
(lp3878
g68
(g69
g70
NtRp3879
(dp3880
g73
(dp3881
g81
I4
ssg82
g3875
sg75
(lp3882
g68
(g77
g70
NtRp3883
(dp3884
g73
(dp3885
g81
I3
ssg82
Nsg75
(lp3886
g68
(g84
g70
NtRp3887
(dp3888
g73
(dp3889
sg82
g3883
sg75
(lp3890
g68
(g89
g70
NtRp3891
(dp3892
g73
(dp3893
sg82
g3887
sg75
(lp3894
g68
(g69
g70
NtRp3895
(dp3896
g73
(dp3897
g81
I3
ssg82
g3891
sg75
(lp3898
cgluon.languages
lazyT_unpickle
p3899
(S't\x06\x00\x00\x00Inicio'
tRp3900
asbasbasbag68
(g84
g70
NtRp3901
(dp3902
g73
(dp3903
sg82
g3883
sg75
(lp3904
g68
(g89
g70
NtRp3905
(dp3906
g73
(dp3907
sg82
g3901
sg75
(lp3908
g68
(g69
g70
NtRp3909
(dp3910
g73
(dp3911
g81
I3
ssg82
g3905
sg75
(lp3912
g111
asbasbasbag68
(g84
g70
NtRp3913
(dp3914
g73
(dp3915
sg82
g3883
sg75
(lp3916
g68
(g89
g70
NtRp3917
(dp3918
g73
(dp3919
sg82
g3913
sg75
(lp3920
g68
(g69
g70
NtRp3921
(dp3922
g73
(dp3923
g81
I3
ssg82
g3917
sg75
(lp3924
S'/init/default/index'
p3925
asbasbasbag68
(g84
g70
NtRp3926
(dp3927
g73
(dp3928
sg82
g3883
sg75
(lp3929
g68
(g89
g70
NtRp3930
(dp3931
g73
(dp3932
sg82
g3926
sg75
(lp3933
g68
(g69
g70
NtRp3934
(dp3935
g73
(dp3936
g81
I3
ssg82
g3930
sg75
(lp3937
g68
(g77
g70
NtRp3938
(dp3939
g73
(dp3940
g81
I2
ssg82
Nsg75
(lp3941
sbasbasbasbasbasbasbasbag68
(g84
g70
NtRp3942
(dp3943
g73
(dp3944
sg82
g3867
sg75
(lp3945
g68
(g89
g70
NtRp3946
(dp3947
g73
(dp3948
sg82
g3942
sg75
(lp3949
g68
(g69
g70
NtRp3950
(dp3951
g73
(dp3952
g81
I4
ssg82
g3946
sg75
(lp3953
g68
(g77
g70
NtRp3954
(dp3955
g73
(dp3956
g81
I3
ssg82
Nsg75
(lp3957
g68
(g84
g70
NtRp3958
(dp3959
g73
(dp3960
sg82
g3954
sg75
(lp3961
g68
(g89
g70
NtRp3962
(dp3963
g73
(dp3964
sg82
g3958
sg75
(lp3965
g68
(g69
g70
NtRp3966
(dp3967
g73
(dp3968
g81
I3
ssg82
g3962
sg75
(lp3969
g3899
(S't\x07\x00\x00\x00cliente'
tRp3970
asbasbasbag68
(g84
g70
NtRp3971
(dp3972
g73
(dp3973
sg82
g3954
sg75
(lp3974
g68
(g89
g70
NtRp3975
(dp3976
g73
(dp3977
sg82
g3971
sg75
(lp3978
g68
(g69
g70
NtRp3979
(dp3980
g73
(dp3981
g81
I3
ssg82
g3975
sg75
(lp3982
g111
asbasbasbag68
(g84
g70
NtRp3983
(dp3984
g73
(dp3985
sg82
g3954
sg75
(lp3986
g68
(g89
g70
NtRp3987
(dp3988
g73
(dp3989
sg82
g3983
sg75
(lp3990
g68
(g69
g70
NtRp3991
(dp3992
g73
(dp3993
g81
I3
ssg82
g3987
sg75
(lp3994
S'/init/default/cliente'
p3995
asbasbasbag68
(g84
g70
NtRp3996
(dp3997
g73
(dp3998
sg82
g3954
sg75
(lp3999
g68
(g89
g70
NtRp4000
(dp4001
g73
(dp4002
sg82
g3996
sg75
(lp4003
g68
(g69
g70
NtRp4004
(dp4005
g73
(dp4006
g81
I3
ssg82
g4000
sg75
(lp4007
g68
(g77
g70
NtRp4008
(dp4009
g73
(dp4010
g81
I2
ssg82
Nsg75
(lp4011
sbasbasbasbasbasbasbasbag68
(g84
g70
NtRp4012
(dp4013
g73
(dp4014
sg82
g3867
sg75
(lp4015
g68
(g89
g70
NtRp4016
(dp4017
g73
(dp4018
sg82
g4012
sg75
(lp4019
g68
(g69
g70
NtRp4020
(dp4021
g73
(dp4022
g81
I4
ssg82
g4016
sg75
(lp4023
g68
(g77
g70
NtRp4024
(dp4025
g73
(dp4026
g81
I3
ssg82
Nsg75
(lp4027
g68
(g84
g70
NtRp4028
(dp4029
g73
(dp4030
sg82
g4024
sg75
(lp4031
g68
(g89
g70
NtRp4032
(dp4033
g73
(dp4034
sg82
g4028
sg75
(lp4035
g68
(g69
g70
NtRp4036
(dp4037
g73
(dp4038
g81
I3
ssg82
g4032
sg75
(lp4039
g3899
(S't\t\x00\x00\x00categoria'
tRp4040
asbasbasbag68
(g84
g70
NtRp4041
(dp4042
g73
(dp4043
sg82
g4024
sg75
(lp4044
g68
(g89
g70
NtRp4045
(dp4046
g73
(dp4047
sg82
g4041
sg75
(lp4048
g68
(g69
g70
NtRp4049
(dp4050
g73
(dp4051
g81
I3
ssg82
g4045
sg75
(lp4052
g111
asbasbasbag68
(g84
g70
NtRp4053
(dp4054
g73
(dp4055
sg82
g4024
sg75
(lp4056
g68
(g89
g70
NtRp4057
(dp4058
g73
(dp4059
sg82
g4053
sg75
(lp4060
g68
(g69
g70
NtRp4061
(dp4062
g73
(dp4063
g81
I3
ssg82
g4057
sg75
(lp4064
S'/init/default/categoria'
p4065
asbasbasbag68
(g84
g70
NtRp4066
(dp4067
g73
(dp4068
sg82
g4024
sg75
(lp4069
g68
(g89
g70
NtRp4070
(dp4071
g73
(dp4072
sg82
g4066
sg75
(lp4073
g68
(g69
g70
NtRp4074
(dp4075
g73
(dp4076
g81
I3
ssg82
g4070
sg75
(lp4077
g68
(g77
g70
NtRp4078
(dp4079
g73
(dp4080
g81
I2
ssg82
Nsg75
(lp4081
sbasbasbasbasbasbasbasbag68
(g84
g70
NtRp4082
(dp4083
g73
(dp4084
sg82
g3867
sg75
(lp4085
g68
(g89
g70
NtRp4086
(dp4087
g73
(dp4088
sg82
g4082
sg75
(lp4089
g68
(g69
g70
NtRp4090
(dp4091
g73
(dp4092
g81
I4
ssg82
g4086
sg75
(lp4093
g68
(g77
g70
NtRp4094
(dp4095
g73
(dp4096
g81
I3
ssg82
Nsg75
(lp4097
g68
(g84
g70
NtRp4098
(dp4099
g73
(dp4100
sg82
g4094
sg75
(lp4101
g68
(g89
g70
NtRp4102
(dp4103
g73
(dp4104
sg82
g4098
sg75
(lp4105
g68
(g69
g70
NtRp4106
(dp4107
g73
(dp4108
g81
I3
ssg82
g4102
sg75
(lp4109
g3899
(S't\t\x00\x00\x00articulos'
tRp4110
asbasbasbag68
(g84
g70
NtRp4111
(dp4112
g73
(dp4113
sg82
g4094
sg75
(lp4114
g68
(g89
g70
NtRp4115
(dp4116
g73
(dp4117
sg82
g4111
sg75
(lp4118
g68
(g69
g70
NtRp4119
(dp4120
g73
(dp4121
g81
I3
ssg82
g4115
sg75
(lp4122
g111
asbasbasbag68
(g84
g70
NtRp4123
(dp4124
g73
(dp4125
sg82
g4094
sg75
(lp4126
g68
(g89
g70
NtRp4127
(dp4128
g73
(dp4129
sg82
g4123
sg75
(lp4130
g68
(g69
g70
NtRp4131
(dp4132
g73
(dp4133
g81
I3
ssg82
g4127
sg75
(lp4134
S'/init/default/articulo'
p4135
asbasbasbag68
(g84
g70
NtRp4136
(dp4137
g73
(dp4138
sg82
g4094
sg75
(lp4139
g68
(g89
g70
NtRp4140
(dp4141
g73
(dp4142
sg82
g4136
sg75
(lp4143
g68
(g69
g70
NtRp4144
(dp4145
g73
(dp4146
g81
I3
ssg82
g4140
sg75
(lp4147
g68
(g77
g70
NtRp4148
(dp4149
g73
(dp4150
g81
I2
ssg82
Nsg75
(lp4151
sbasbasbasbasbasbasbasbag68
(g84
g70
NtRp4152
(dp4153
g73
(dp4154
sg82
g3867
sg75
(lp4155
g68
(g89
g70
NtRp4156
(dp4157
g73
(dp4158
sg82
g4152
sg75
(lp4159
g68
(g69
g70
NtRp4160
(dp4161
g73
(dp4162
g81
I4
ssg82
g4156
sg75
(lp4163
g68
(g77
g70
NtRp4164
(dp4165
g73
(dp4166
g81
I3
ssg82
Nsg75
(lp4167
g68
(g84
g70
NtRp4168
(dp4169
g73
(dp4170
sg82
g4164
sg75
(lp4171
g68
(g89
g70
NtRp4172
(dp4173
g73
(dp4174
sg82
g4168
sg75
(lp4175
g68
(g69
g70
NtRp4176
(dp4177
g73
(dp4178
g81
I3
ssg82
g4172
sg75
(lp4179
g3899
(S's\x13\x00\x00\x00Lista de Pendientes'
tRp4180
asbasbasbag68
(g84
g70
NtRp4181
(dp4182
g73
(dp4183
sg82
g4164
sg75
(lp4184
g68
(g89
g70
NtRp4185
(dp4186
g73
(dp4187
sg82
g4181
sg75
(lp4188
g68
(g69
g70
NtRp4189
(dp4190
g73
(dp4191
g81
I3
ssg82
g4185
sg75
(lp4192
g111
asbasbasbag68
(g84
g70
NtRp4193
(dp4194
g73
(dp4195
sg82
g4164
sg75
(lp4196
g68
(g89
g70
NtRp4197
(dp4198
g73
(dp4199
sg82
g4193
sg75
(lp4200
g68
(g69
g70
NtRp4201
(dp4202
g73
(dp4203
g81
I3
ssg82
g4197
sg75
(lp4204
S'/init/default/presupuestos2'
p4205
asbasbasbag68
(g84
g70
NtRp4206
(dp4207
g73
(dp4208
sg82
g4164
sg75
(lp4209
g68
(g89
g70
NtRp4210
(dp4211
g73
(dp4212
sg82
g4206
sg75
(lp4213
g68
(g69
g70
NtRp4214
(dp4215
g73
(dp4216
g81
I3
ssg82
g4210
sg75
(lp4217
g68
(g77
g70
NtRp4218
(dp4219
g73
(dp4220
g81
I2
ssg82
Nsg75
(lp4221
sbasbasbasbasbasbasbasbag68
(g84
g70
NtRp4222
(dp4223
g73
(dp4224
sg82
g3867
sg75
(lp4225
g68
(g89
g70
NtRp4226
(dp4227
g73
(dp4228
sg82
g4222
sg75
(lp4229
g68
(g69
g70
NtRp4230
(dp4231
g73
(dp4232
g81
I4
ssg82
g4226
sg75
(lp4233
g68
(g77
g70
NtRp4234
(dp4235
g73
(dp4236
g81
I3
ssg82
Nsg75
(lp4237
g68
(g84
g70
NtRp4238
(dp4239
g73
(dp4240
sg82
g4234
sg75
(lp4241
g68
(g89
g70
NtRp4242
(dp4243
g73
(dp4244
sg82
g4238
sg75
(lp4245
g68
(g69
g70
NtRp4246
(dp4247
g73
(dp4248
g81
I3
ssg82
g4242
sg75
(lp4249
g3899
(S't\x0c\x00\x00\x00Modificacion'
tRp4250
asbasbasbag68
(g84
g70
NtRp4251
(dp4252
g73
(dp4253
sg82
g4234
sg75
(lp4254
g68
(g89
g70
NtRp4255
(dp4256
g73
(dp4257
sg82
g4251
sg75
(lp4258
g68
(g69
g70
NtRp4259
(dp4260
g73
(dp4261
g81
I3
ssg82
g4255
sg75
(lp4262
g111
asbasbasbag68
(g84
g70
NtRp4263
(dp4264
g73
(dp4265
sg82
g4234
sg75
(lp4266
g68
(g89
g70
NtRp4267
(dp4268
g73
(dp4269
sg82
g4263
sg75
(lp4270
g68
(g69
g70
NtRp4271
(dp4272
g73
(dp4273
g81
I3
ssg82
g4267
sg75
(lp4274
S'/init/default/presupuestos'
p4275
asbasbasbag68
(g84
g70
NtRp4276
(dp4277
g73
(dp4278
sg82
g4234
sg75
(lp4279
g68
(g89
g70
NtRp4280
(dp4281
g73
(dp4282
sg82
g4276
sg75
(lp4283
g68
(g69
g70
NtRp4284
(dp4285
g73
(dp4286
g81
I3
ssg82
g4280
sg75
(lp4287
g68
(g77
g70
NtRp4288
(dp4289
g73
(dp4290
g81
I2
ssg82
Nsg75
(lp4291
sbasbasbasbasbasbasbasbag68
(g84
g70
NtRp4292
(dp4293
g73
(dp4294
sg82
g3867
sg75
(lp4295
g68
(g89
g70
NtRp4296
(dp4297
g73
(dp4298
sg82
g4292
sg75
(lp4299
g68
(g69
g70
NtRp4300
(dp4301
g73
(dp4302
g81
I4
ssg82
g4296
sg75
(lp4303
g68
(g77
g70
NtRp4304
(dp4305
g73
(dp4306
g81
I3
ssg82
Nsg75
(lp4307
g68
(g84
g70
NtRp4308
(dp4309
g73
(dp4310
sg82
g4304
sg75
(lp4311
g68
(g89
g70
NtRp4312
(dp4313
g73
(dp4314
sg82
g4308
sg75
(lp4315
g68
(g69
g70
NtRp4316
(dp4317
g73
(dp4318
g81
I3
ssg82
g4312
sg75
(lp4319
g3899
(S's\x0c\x00\x00\x00Nueva Salida'
tRp4320
asbasbasbag68
(g84
g70
NtRp4321
(dp4322
g73
(dp4323
sg82
g4304
sg75
(lp4324
g68
(g89
g70
NtRp4325
(dp4326
g73
(dp4327
sg82
g4321
sg75
(lp4328
g68
(g69
g70
NtRp4329
(dp4330
g73
(dp4331
g81
I3
ssg82
g4325
sg75
(lp4332
g111
asbasbasbag68
(g84
g70
NtRp4333
(dp4334
g73
(dp4335
sg82
g4304
sg75
(lp4336
g68
(g89
g70
NtRp4337
(dp4338
g73
(dp4339
sg82
g4333
sg75
(lp4340
g68
(g69
g70
NtRp4341
(dp4342
g73
(dp4343
g81
I3
ssg82
g4337
sg75
(lp4344
S'/init/default/movimientos'
p4345
asbasbasbag68
(g84
g70
NtRp4346
(dp4347
g73
(dp4348
sg82
g4304
sg75
(lp4349
g68
(g89
g70
NtRp4350
(dp4351
g73
(dp4352
sg82
g4346
sg75
(lp4353
g68
(g69
g70
NtRp4354
(dp4355
g73
(dp4356
g81
I3
ssg82
g4350
sg75
(lp4357
g68
(g77
g70
NtRp4358
(dp4359
g73
(dp4360
g81
I2
ssg82
Nsg75
(lp4361
sbasbasbasbasbasbasbasbasbasbasbasbag68
(g84
g70
NtRp4362
(dp4363
g73
(dp4364
sg82
g3342
sg75
(lp4365
g68
(g89
g70
NtRp4366
(dp4367
g73
(dp4368
g93
g94
ssg82
g4362
sg75
(lp4369
S'meta'
p4370
asbag68
(g89
g70
NtRp4371
(dp4372
g73
(dp4373
g100
g101
ssg82
g4362
sg75
(lp4374
S':'
asbag68
(g89
g70
NtRp4375
(dp4376
g73
(dp4377
sg82
g4362
sg75
(lp4378
g68
(g69
g70
NtRp4379
(dp4380
g73
(dp4381
g81
I5
ssg82
g4375
sg75
(lp4382
g68
(g77
g70
NtRp4383
(dp4384
g73
(dp4385
g81
I4
ssg82
Nsg75
(lp4386
g68
(g84
g70
NtRp4387
(dp4388
g73
(dp4389
sg82
g4383
sg75
(lp4390
g68
(g89
g70
NtRp4391
(dp4392
g73
(dp4393
g93
g94
ssg82
g4387
sg75
(lp4394
S'author'
p4395
asbag68
(g89
g70
NtRp4396
(dp4397
g73
(dp4398
g100
g101
ssg82
g4387
sg75
(lp4399
S':'
asbag68
(g89
g70
NtRp4400
(dp4401
g73
(dp4402
sg82
g4387
sg75
(lp4403
g68
(g69
g70
NtRp4404
(dp4405
g73
(dp4406
g81
I4
ssg82
g4400
sg75
(lp4407
S'jorge a <jorge.agua@gmail.com>'
p4408
asbasbasbag68
(g84
g70
NtRp4409
(dp4410
g73
(dp4411
sg82
g4383
sg75
(lp4412
g68
(g89
g70
NtRp4413
(dp4414
g73
(dp4415
g93
g94
ssg82
g4409
sg75
(lp4416
S'description'
p4417
asbag68
(g89
g70
NtRp4418
(dp4419
g73
(dp4420
g100
g101
ssg82
g4409
sg75
(lp4421
S':'
asbag68
(g89
g70
NtRp4422
(dp4423
g73
(dp4424
sg82
g4409
sg75
(lp4425
g68
(g69
g70
NtRp4426
(dp4427
g73
(dp4428
g81
I4
ssg82
g4422
sg75
(lp4429
S''
asbasbasbag68
(g84
g70
NtRp4430
(dp4431
g73
(dp4432
sg82
g4383
sg75
(lp4433
g68
(g89
g70
NtRp4434
(dp4435
g73
(dp4436
g93
g94
ssg82
g4430
sg75
(lp4437
S'keywords'
p4438
asbag68
(g89
g70
NtRp4439
(dp4440
g73
(dp4441
g100
g101
ssg82
g4430
sg75
(lp4442
S':'
asbag68
(g89
g70
NtRp4443
(dp4444
g73
(dp4445
sg82
g4430
sg75
(lp4446
g68
(g69
g70
NtRp4447
(dp4448
g73
(dp4449
g81
I4
ssg82
g4443
sg75
(lp4450
S''
asbasbasbasbasbasbasbag68
(g84
g70
NtRp4451
(dp4452
g73
(dp4453
sg82
g3342
sg75
(lp4454
g68
(g89
g70
NtRp4455
(dp4456
g73
(dp4457
g93
g94
ssg82
g4451
sg75
(lp4458
S'postprocessing'
p4459
asbag68
(g89
g70
NtRp4460
(dp4461
g73
(dp4462
g100
g101
ssg82
g4451
sg75
(lp4463
S':'
asbag68
(g89
g70
NtRp4464
(dp4465
g73
(dp4466
sg82
g4451
sg75
(lp4467
g68
(g69
g70
NtRp4468
(dp4469
g73
(dp4470
g81
I5
ssg82
g4464
sg75
(lp4471
g68
(g77
g70
NtRp4472
(dp4473
g73
(dp4474
g81
I4
ssg82
Nsg75
(lp4475
sbasbasbasbag68
(g84
g70
NtRp4476
(dp4477
g73
(dp4478
sg82
g3342
sg75
(lp4479
g68
(g89
g70
NtRp4480
(dp4481
g73
(dp4482
g93
g94
ssg82
g4476
sg75
(lp4483
S'session_file'
p4484
asbag68
(g89
g70
NtRp4485
(dp4486
g73
(dp4487
g100
g101
ssg82
g4476
sg75
(lp4488
S':'
asbag68
(g89
g70
NtRp4489
(dp4490
g73
(dp4491
sg82
g4476
sg75
(lp4492
g68
(g69
g70
NtRp4493
(dp4494
g73
(dp4495
g81
I5
ssg82
g4489
sg75
(lp4496
S"<open file 'c:\\Users\\Jorge\\Downloads\\web2py_src\\web2py\\applications\\init\\sessions\\127.0.0.1-db1a5172-e0eb-4779-bead-3eff2ec2fe17', mode 'rb+' at 0x000000000A801D20>"
p4497
asbasbasbag68
(g84
g70
NtRp4498
(dp4499
g73
(dp4500
sg82
g3342
sg75
(lp4501
g68
(g89
g70
NtRp4502
(dp4503
g73
(dp4504
g93
g94
ssg82
g4498
sg75
(lp4505
S'session_filename'
p4506
asbag68
(g89
g70
NtRp4507
(dp4508
g73
(dp4509
g100
g101
ssg82
g4498
sg75
(lp4510
S':'
asbag68
(g89
g70
NtRp4511
(dp4512
g73
(dp4513
sg82
g4498
sg75
(lp4514
g68
(g69
g70
NtRp4515
(dp4516
g73
(dp4517
g81
I5
ssg82
g4511
sg75
(lp4518
S'c:\\Users\\Jorge\\Downloads\\web2py_src\\web2py\\applications\\init\\sessions\\127.0.0.1-db1a5172-e0eb-4779-bead-3eff2ec2fe17'
p4519
asbasbasbag68
(g84
g70
NtRp4520
(dp4521
g73
(dp4522
sg82
g3342
sg75
(lp4523
g68
(g89
g70
NtRp4524
(dp4525
g73
(dp4526
g93
g94
ssg82
g4520
sg75
(lp4527
S'session_id'
p4528
asbag68
(g89
g70
NtRp4529
(dp4530
g73
(dp4531
g100
g101
ssg82
g4520
sg75
(lp4532
S':'
asbag68
(g89
g70
NtRp4533
(dp4534
g73
(dp4535
sg82
g4520
sg75
(lp4536
g68
(g69
g70
NtRp4537
(dp4538
g73
(dp4539
g81
I5
ssg82
g4533
sg75
(lp4540
S'127.0.0.1-db1a5172-e0eb-4779-bead-3eff2ec2fe17'
p4541
asbasbasbag68
(g84
g70
NtRp4542
(dp4543
g73
(dp4544
sg82
g3342
sg75
(lp4545
g68
(g89
g70
NtRp4546
(dp4547
g73
(dp4548
g93
g94
ssg82
g4542
sg75
(lp4549
S'session_id_name'
p4550
asbag68
(g89
g70
NtRp4551
(dp4552
g73
(dp4553
g100
g101
ssg82
g4542
sg75
(lp4554
S':'
asbag68
(g89
g70
NtRp4555
(dp4556
g73
(dp4557
sg82
g4542
sg75
(lp4558
g68
(g69
g70
NtRp4559
(dp4560
g73
(dp4561
g81
I5
ssg82
g4555
sg75
(lp4562
g3399
asbasbasbag68
(g84
g70
NtRp4563
(dp4564
g73
(dp4565
sg82
g3342
sg75
(lp4566
g68
(g89
g70
NtRp4567
(dp4568
g73
(dp4569
g93
g94
ssg82
g4563
sg75
(lp4570
S'session_locked'
p4571
asbag68
(g89
g70
NtRp4572
(dp4573
g73
(dp4574
g100
g101
ssg82
g4563
sg75
(lp4575
S':'
asbag68
(g89
g70
NtRp4576
(dp4577
g73
(dp4578
sg82
g4563
sg75
(lp4579
g68
(g69
g70
NtRp4580
(dp4581
g73
(dp4582
g81
I5
ssg82
g4576
sg75
(lp4583
g1521
asbasbasbag68
(g84
g70
NtRp4584
(dp4585
g73
(dp4586
sg82
g3342
sg75
(lp4587
g68
(g89
g70
NtRp4588
(dp4589
g73
(dp4590
g93
g94
ssg82
g4584
sg75
(lp4591
S'session_new'
p4592
asbag68
(g89
g70
NtRp4593
(dp4594
g73
(dp4595
g100
g101
ssg82
g4584
sg75
(lp4596
S':'
asbag68
(g89
g70
NtRp4597
(dp4598
g73
(dp4599
sg82
g4584
sg75
(lp4600
g68
(g69
g70
NtRp4601
(dp4602
g73
(dp4603
g81
I5
ssg82
g4597
sg75
(lp4604
g111
asbasbasbag68
(g84
g70
NtRp4605
(dp4606
g73
(dp4607
sg82
g3342
sg75
(lp4608
g68
(g89
g70
NtRp4609
(dp4610
g73
(dp4611
g93
g94
ssg82
g4605
sg75
(lp4612
S'status'
p4613
asbag68
(g89
g70
NtRp4614
(dp4615
g73
(dp4616
g100
g101
ssg82
g4605
sg75
(lp4617
S':'
asbag68
(g89
g70
NtRp4618
(dp4619
g73
(dp4620
sg82
g4605
sg75
(lp4621
g68
(g69
g70
NtRp4622
(dp4623
g73
(dp4624
g81
I5
ssg82
g4618
sg75
(lp4625
S'200'
p4626
asbasbasbag68
(g84
g70
NtRp4627
(dp4628
g73
(dp4629
sg82
g3342
sg75
(lp4630
g68
(g89
g70
NtRp4631
(dp4632
g73
(dp4633
g93
g94
ssg82
g4627
sg75
(lp4634
S'subtitle'
p4635
asbag68
(g89
g70
NtRp4636
(dp4637
g73
(dp4638
g100
g101
ssg82
g4627
sg75
(lp4639
S':'
asbag68
(g89
g70
NtRp4640
(dp4641
g73
(dp4642
sg82
g4627
sg75
(lp4643
g68
(g69
g70
NtRp4644
(dp4645
g73
(dp4646
g81
I5
ssg82
g4640
sg75
(lp4647
S'powered by jorge'
p4648
asbasbasbag68
(g84
g70
NtRp4649
(dp4650
g73
(dp4651
sg82
g3342
sg75
(lp4652
g68
(g89
g70
NtRp4653
(dp4654
g73
(dp4655
g93
g94
ssg82
g4649
sg75
(lp4656
S'title'
p4657
asbag68
(g89
g70
NtRp4658
(dp4659
g73
(dp4660
g100
g101
ssg82
g4649
sg75
(lp4661
S':'
asbag68
(g89
g70
NtRp4662
(dp4663
g73
(dp4664
sg82
g4649
sg75
(lp4665
g68
(g69
g70
NtRp4666
(dp4667
g73
(dp4668
g81
I5
ssg82
g4662
sg75
(lp4669
S'mi nueva app'
p4670
asbasbasbag68
(g84
g70
NtRp4671
(dp4672
g73
(dp4673
sg82
g3342
sg75
(lp4674
g68
(g89
g70
NtRp4675
(dp4676
g73
(dp4677
g93
g94
ssg82
g4671
sg75
(lp4678
g2207
asbag68
(g89
g70
NtRp4679
(dp4680
g73
(dp4681
g100
g101
ssg82
g4671
sg75
(lp4682
S':'
asbag68
(g89
g70
NtRp4683
(dp4684
g73
(dp4685
sg82
g4671
sg75
(lp4686
g68
(g69
g70
NtRp4687
(dp4688
g73
(dp4689
g81
I5
ssg82
g4683
sg75
(lp4690
g2220
asbasbasbag68
(g84
g70
NtRp4691
(dp4692
g73
(dp4693
sg82
g3342
sg75
(lp4694
g68
(g89
g70
NtRp4695
(dp4696
g73
(dp4697
g93
g94
ssg82
g4691
sg75
(lp4698
S'view'
p4699
asbag68
(g89
g70
NtRp4700
(dp4701
g73
(dp4702
g100
g101
ssg82
g4691
sg75
(lp4703
S':'
asbag68
(g89
g70
NtRp4704
(dp4705
g73
(dp4706
sg82
g4691
sg75
(lp4707
g68
(g69
g70
NtRp4708
(dp4709
g73
(dp4710
g81
I5
ssg82
g4704
sg75
(lp4711
S'default/prueba.html'
p4712
asbasbasbasbasbsS'locals'
p4713
(dp4714
g4
S"r'c:\\Users\\Jorge\\Downloads\\web2py_src\\web2py\\applications\\init\\views\\default/prueba.html'"
p4715
sg6
S'\'response.write(\\\'<!DOCTYPE html PUBLIC "-//W3C//D...end main -->\\\\n </body>\\\\n</html>\\\\n\\\', escape=False)\''
p4716
sssS'traceback'
p4717
S'Traceback (most recent call last):\n  File "c:\\Users\\Jorge\\Downloads\\web2py_src\\web2py\\gluon\\restricted.py", line 204, in restricted\n    ccode = compile2(code,layer)\n  File "c:\\Users\\Jorge\\Downloads\\web2py_src\\web2py\\gluon\\restricted.py", line 189, in compile2\n    return compile(code.rstrip().replace(\'\\r\\n\',\'\\n\')+\'\\n\', layer, \'exec\')\n  File "c:\\Users\\Jorge\\Downloads\\web2py_src\\web2py\\applications\\init\\views\\default/prueba.html", line 32\n    ${id\n    ^\nSyntaxError: invalid syntax\n'
p4718
s.