(dp1
S'output'
p2
S"<type 'exceptions.SyntaxError'> invalid syntax (controllers/default.py, line 266)"
p3
sS'layer'
p4
S'c:\\Users\\Jorge\\Downloads\\web2py_src\\web2py\\applications\\init\\controllers/default.py'
p5
sS'code'
p6
S'# -*- coding: utf-8 -*-\nif 0:\n    from gluon.globals import *\n    from gluon.html import *\n    from gluon.http import *\n    from gluon.tools import Auth\n    from gluon.sqlhtml import SQLFORM, SQLTABLE, form_factory\n    session = Session()\n    request = Request()\n    response = Response()\n\n### required - do no delete\ndef user(): return dict(form=auth())\ndef download(): return response.download(request,db)\ndef call(): return service()\n### end requires\n\n\n\ndef index():\n    return dict()\n\ndef error():\n    return dict()\n\n@auth.requires_login()\ndef cliente():\n    # presentacion de listado de clientes\n    datasource = db(db.cliente.id>0).select()\n    powerTable = plugins.powerTable\n    powerTable.datasource = datasource\n    powerTable.headers = \'labels\'\n    powerTable.showkeycolumn = False\n    powerTable.dtfeatures[\'bJQueryUI\'] = request.vars.get(\'jqueryui\',True)\n    powerTable.uitheme = request.vars.get(\'theme\',\'Smoothness\')\n    powerTable.dtfeatures["sScrollY"] = "100%"\n    powerTable.dtfeatures["sScrollX"] = "100%"\n    powerTable.dtfeatures[\'sPaginationType\'] = \'full_numbers\'\n    powerTable.dtfeatures["iDisplayLength"] = 20\n    # alta de clientes \n    mystep = [dict(title=\'NUEVO CLIENTE\',Legend=\'Ingrese los datos del nuevo cliente\',\n                   fields=[\'empresa\',\'contacto\',\'telefono\',\'correo\'])]\n    from plugin_PowerFormWizard import PowerFormWizard\n    options = {\'description\':False,\'legend\':True,\'validate\':True}\n    form = PowerFormWizard(db.cliente, steps=mystep, options=options)\n    \n    if form.accepts(request.vars, session):\n        response.flash = "registro aceptado"\n    elif form.errors:\n        form.step_validation()\n        response.flash = "error en los datos"\n    return dict( table=powerTable.create(),form=form)    \n   \n@auth.requires_login()\ndef categoria():\n    # presentacion de categorias de articulos\n    datasource = db(db.categoria.id>0).select()\n    powerTable = plugins.powerTable\n    powerTable.datasource = datasource\n    powerTable.headers = \'labels\'\n    powerTable.showkeycolumn = False\n    powerTable.dtfeatures[\'bJQueryUI\'] = request.vars.get(\'jqueryui\',True)\n    powerTable.uitheme = request.vars.get(\'theme\',\'Smoothness\')\n    powerTable.dtfeatures["sScrollY"] = "100%"\n    powerTable.dtfeatures["sScrollX"] = "100%"\n    powerTable.dtfeatures[\'sPaginationType\'] = \'full_numbers\'\n    powerTable.dtfeatures["iDisplayLength"] = 30\n    # alta de categoria de articulos\n    mystep = [dict(title=\'NUEVAS CATEGORIAS\',Legend=\'Ingrese una Categoria para Agrupar art\xc3\xadculos\',fields=[\'name\'])]\n    from plugin_PowerFormWizard import PowerFormWizard\n    options = {\'description\':False,\'legend\':True,\'validate\':True}\n    form = PowerFormWizard(db.categoria, steps=mystep, options=options)\n    \n    if form.accepts(request.vars, session):\n        response.flash = "registro aceptado"\n    elif form.errors:\n        form.step_validation()\n        response.flash = "error en los datos"\n    return dict( table=powerTable.create(),form=form)\n\ndef editablefunction():\n    id = request.vars.row_id\n    column = request.vars.column\n    db(db.order_lines.id==id).update(column=value)\n    db.commit()\n\n@auth.requires_login()\ndef articulo():\n    \n    # presentacion de tabla de articulos ############    \n    datasource = db(db.articulo.id>0).select()\n    powerTable = plugins.powerTable\n    powerTable.datasource = datasource\n    powerTable.headers = \'labels\'\n    powerTable.showkeycolumn = False\n    powerTable.dtfeatures[\'bJQueryUI\'] = request.vars.get(\'jqueryui\',True)\n    powerTable.uitheme = request.vars.get(\'theme\',\'Smoothness\')\n    powerTable.dtfeatures["sScrollY"] = "100%"\n    powerTable.dtfeatures["sScrollX"] = "100%"\n    powerTable.dtfeatures[\'sPaginationType\'] = \'full_numbers\'\n    powerTable.dtfeatures["iDisplayLength"] = 10\n    powerTable.extrajs = dict(autoresize={},\n                             tooltip={},\n                             details={\'detailscolumns\':\'articulo.memo\'}\n                             )\n    powerTable.keycolumn = \'articulo.id\'\n    powerTable.columns = [\'articulo.descripcion\',\'articulo.link\',\n                          \'articulo.precio\',\'articulo.categoria\']\n    # alta de articulos ####################    \n    mystep = [dict(title=\'NUEVOS ARTICULOS\',Legend=\'Ingrese los datos del articulo\',\n                   fields=[\'descripcion\',\'memo\',\'iva\',\'precio\',\'categoria\'])]\n    from plugin_PowerFormWizard import PowerFormWizard\n    options = {\'description\':False,\'legend\':True,\'validate\':True}\n    form = PowerFormWizard(db.articulo, steps=mystep, options=options)\n    \n    if form.accepts(request.vars, session):\n        response.flash = "registro aceptado"\n    elif form.errors:\n        form.step_validation()\n        response.flash = "error en los datos"\n    return dict( table=powerTable.create(),form=form)\n\n\ndef features():\n    from plugin_PowerGrid.CallBack import CallBack        \n    return CallBack(db.movimientos.id>0 and db.movimientos.fecha_devuelta==None)\n\n@auth.requires(auth.has_membership(role=\'Admin\'))   \ndef presupuestos():\n            \n    from plugin_PowerGrid.PowerGrid import PowerGrid\n    p = PowerGrid(\n                  callback=URL(\'default\',\'features\', extension=\'json\'),\n                  buttons=[\n                            #(\'details\',URL(\'plugin_PowerGrid\',\'data\',args=[\'read\',\'products\'])+\'/${id}\',\'_blank\',\'Details of Record ${id}\',\'modal positive left button\',\'magnifier\',[600,500]),\n                            (\'cargar comprobante\',URL(\'default\',\'prueba\',args=[\'read\',\'movimientos\'])+\'/${id}\',\'_blank\',\'Editando Registro ${id}\',\'refreshmodal middle button\', \'pen\',[600,800]),\n                            #(\'delete\',URL(\'plugin_PowerGrid\',\'data\',args=[\'delete\',\'products\'])+\'/${id}\',\'_blank\',\'Are you sure you want to delete record ${id}\',\'confirmationmodal right negative button\', \'cross\'),\n                          \n                         ],\n                  addurl=URL(\'plugin_PowerGrid\',\'data\',args=[\'create\',\'features\']), \n                  addLabel=\'Add New Record\',   \n                  addTitle=\'You are adding a new record\',              \n                  headers=[[\'id\',\'Codigo\'],[\'entregado_x\',\'Entrega: \'], [\'retirado_x\',\'Retira\'],\n                           ],\n                  \n                  #headers=[[\'entregado_x\',\'Entrega: \'], [\'retirado_x\',\'Retira\'], [\'id_articulo\',\'Articulo\'],[\'cantidad\',\'Cantidad\'],\n                           #[\'cliente\',\'Usado en\']],\n                  #hidecontrolbuttons=True,\n                  #hiderefreshbutton=True,\n                  hideaddbutton=True,\n                  #_id="banana",\n                  #target="melancia",\n                  #searchBy=\'equal\',\n                  minH=800,\n                  options=dict(#colsWidth=[60,60,60],\n                               #width=700,\n                               #buttonBackTitle=\'Back\',\n                               #buttonMax=4,\n                               #buttonNextTitle=\'Next\',\n                               #success="""js[function(){alert(\'Executed on success\');}]js""",\n                               #before="""js[function(){alert(\'Executed before\');}]js""",\n                               #error="""js[function(){alert(\'Executed on load error\');}]js""",\n                               #buttonOption=False,\n                               #buttonsWidth=200\n                               #buttonTitle=\'oi\',\n                               #clickFx=False,\n                               #debug=True,\n                               #find=\'name\',search=\'J\',\n                               #searchOption=False,\n                               searchButtonLabel=\'Buscar\',\n                               searchButtonTitle=\'Clique para buscar\',\n                               searchFocus=True,\n                               #cache=True,\n                               #contentType=\'application/x-www-form-urlencoded; charset=utf-8\',\n                               #type=\'get\',\n                               #dataType=\'jsonp\',\n                               #jsonp=True,\n                               #jsonpCallback=\'callback\',\n                               #findsName=[[\'name\',\'name\']],\n                               #hoverFx=False,\n                               #loadingOption=True,\n                               #loadingText=\'Carregando...\',\n                               #messageOption=False,\n                               #noResultOption=False,\n                               noResultText=\'no se encontraron datos \',\n                               #page=1,\n                               #rows=3,\n                               #rowsNumber=[3,25],\n                               #params=\'&blablabla=45\',\n                               #resize=False,\n                               #resultOption=False,\n                               #resultText= \'Exibindo {from} - {to} de {total} registros\',\n                               #scroll=True,height=100,\n                               #searchText=\'Busque aqui\',\n                               #sortName=\'name\',\n                               #sortOrder=\'asc\',\n                               #template=\'template\',\n                               #templateStyle=\'blabla\',\n\n\n\n                                   ),\n                  )\n\n    return dict(p=p)\n\n@auth.requires_login()\ndef presupuestos2():\n            \n    class Virtual(object):\n        @virtualsettings(label=T(\'Informacion: \'))\n        def virtualtooltip(self):\n            return T(\'se retiro para  <strong>%s</strong>, en concepto de <strong>%s</strong>\' %\n                     (self.cliente.empresa,self.movimientos.concepto))\n        \n    datasource = db(db.movimientos.cliente==db.cliente.id).select() \n    powerTable = plugins.powerTable\n    powerTable.datasource = datasource\n    powerTable.virtualfields = Virtual()\n    powerTable.headers = \'labels\'\n    powerTable.showkeycolumn = True\n    powerTable.dtfeatures[\'bJQueryUI\'] = request.vars.get(\'jqueryui\',True)\n    powerTable.uitheme = request.vars.get(\'theme\',\'Smoothness\')\n    powerTable.dtfeatures[\'sScrollX\'] = \'100%\'\n    powerTable.dtfeatures[\'sPaginationType\'] = request.vars.get(\'pager\',\'scrolling\')\n    powerTable.extrajs = dict(autoresize={},\n                               tooltip={},\n                               )\n    powerTable.columns = [\'movimientos.id\',\n                         \'movimientos.entregado_x\',\n                         \'movimientos.retirado_x\',\n                         \'movimientos.id_articulo\',\n                         \'movimientos.cantidad\',\n                         \'movimientos.Comprobante\',\n                         \'movimientos.fecha_pedido\',\n                         \'movimientos.fecha_devuelta\'\n                         ]\n    return dict(table=powerTable.create())\n\n@auth.requires(auth.has_membership(role=\'Admin\'))  \ndef movimientos():\n    mystep = [dict(title=\'MOVIMIENTOS\',Legend=\'Ingrese los datos solicitados\',\n                   fields=[\'entregado_x\',\'retirado_x\',\'id_articulo\',\'cantidad\',\n                           \'estado\',\'Comprobante\',\n                           \'cliente\',\'concepto\'])]\n    from plugin_PowerFormWizard import PowerFormWizard\n    options = {\'description\':False,\'legend\':True,\'validate\':True}\n    form = PowerFormWizard(db.movimientos, steps=mystep, options=options)\n    \n    if form.accepts(request.vars, session):\n        response.flash = "registro aceptado"\n        #rows = db(db.movimientos.id>0).select()\n        #last_row = rows.last()\n        #a=db.memomovi.insert(referencia=last_row.id,entregado_x=last_row.entregado_x,\n                             #retirado_x=last_row.retirado_x,id_articulo=last_row.id_articulo,\n                             #cantidad=last_row.cantidad,fecha_pedido=last_row.fecha_pedido,\n                             #fecha_devuelta=last_row.fecha_devuelta,estado=last_row.estado,\n                             #Comprobante=last_row.Comprobante,cliente=last_row.cliente)\n        #db.commit()\n    elif form.errors:\n        form.step_validation()\n        response.flash = "error en los datos"\n    return dict(form=form)\n\ndef prueba():\n    indice = \n    form=FORM(\'Your name:\',\n              INPUT(_name=\'name\', requires=IS_NOT_EMPTY()),\n              INPUT(_type=\'submit\'))\n    if form.accepts(request.vars, session):\n        response.flash = \'form accepted \'\n    elif form.errors:\n        response.flash = \'form has errors  _id\'\n    else:\n        response.flash = \'please fill the form  ${id}\'\n    return dict(form=form)\nresponse._vars=response._caller(features)\n'
p7
sS'snapshot'
p8
(dp9
S'exception'
p10
(dp11
S'__getslice__'
p12
S"<method-wrapper '__getslice__' of exceptions.SyntaxError object>"
p13
sS'text'
p14
S"'    indice = \\n'"
p15
sS'__str__'
p16
S"<method-wrapper '__str__' of exceptions.SyntaxError object>"
p17
sS'__reduce__'
p18
S'<built-in method __reduce__ of exceptions.SyntaxError object>'
p19
sS'__dict__'
p20
S'{}'
p21
sS'__sizeof__'
p22
S'<built-in method __sizeof__ of exceptions.SyntaxError object>'
p23
sS'__init__'
p24
S"<method-wrapper '__init__' of exceptions.SyntaxError object>"
p25
sS'__setattr__'
p26
S"<method-wrapper '__setattr__' of exceptions.SyntaxError object>"
p27
sS'__reduce_ex__'
p28
S'<built-in method __reduce_ex__ of exceptions.SyntaxError object>'
p29
sS'__new__'
p30
S'<built-in method __new__ of type object>'
p31
sS'__format__'
p32
S'<built-in method __format__ of exceptions.SyntaxError object>'
p33
sS'__class__'
p34
S"<type 'exceptions.SyntaxError'>"
p35
sS'filename'
p36
S"r'c:\\Users\\Jorge\\Downloads\\web2py_src\\web2py\\applications\\init\\controllers/default.py'"
p37
sS'lineno'
p38
S'266'
p39
sS'msg'
p40
S"'invalid syntax'"
p41
sS'__doc__'
p42
S"'Invalid syntax.'"
p43
sS'__getitem__'
p44
S"<method-wrapper '__getitem__' of exceptions.SyntaxError object>"
p45
sS'__setstate__'
p46
S'<built-in method __setstate__ of exceptions.SyntaxError object>'
p47
sS'__getattribute__'
p48
S"<method-wrapper '__getattribute__' of exceptions.SyntaxError object>"
p49
sS'print_file_and_line'
p50
S'None'
p51
sS'args'
p52
S"('invalid syntax', (r'c:\\Users\\Jorge\\Downloads\\web2py_src\\web2py\\applications\\init\\controllers/default.py', 266, 14, '    indice = \\n'))"
p53
sS'__subclasshook__'
p54
S'<built-in method __subclasshook__ of type object>'
p55
sS'offset'
p56
S'14'
p57
sS'__unicode__'
p58
S'<built-in method __unicode__ of exceptions.SyntaxError object>'
p59
sS'__delattr__'
p60
S"<method-wrapper '__delattr__' of exceptions.SyntaxError object>"
p61
sS'__repr__'
p62
S"<method-wrapper '__repr__' of exceptions.SyntaxError object>"
p63
sS'__hash__'
p64
S"<method-wrapper '__hash__' of exceptions.SyntaxError object>"
p65
ssS'evalue'
p66
S'invalid syntax (controllers/default.py, line 266)'
p67
sS'request'
p68
ccopy_reg
_reconstructor
p69
(cgluon.html
BEAUTIFY
p70
c__builtin__
object
p71
NtRp72
(dp73
S'attributes'
p74
(dp75
sS'components'
p76
(lp77
g69
(cgluon.html
TABLE
p78
g71
NtRp79
(dp80
g74
(dp81
S'level'
p82
I5
ssS'parent'
p83
Nsg76
(lp84
g69
(cgluon.html
TR
p85
g71
NtRp86
(dp87
g74
(dp88
sg83
g79
sg76
(lp89
g69
(cgluon.html
TD
p90
g71
NtRp91
(dp92
g74
(dp93
S'_style'
p94
S'font-weight:bold;vertical-align:top'
p95
ssg83
g86
sg76
(lp96
S'ajax'
p97
asbag69
(g90
g71
NtRp98
(dp99
g74
(dp100
S'_valign'
p101
S'top'
p102
ssg83
g86
sg76
(lp103
S':'
asbag69
(g90
g71
NtRp104
(dp105
g74
(dp106
sg83
g86
sg76
(lp107
g69
(g70
g71
NtRp108
(dp109
g74
(dp110
g82
I5
ssg83
g104
sg76
(lp111
S'True'
p112
asbasbasbag69
(g85
g71
NtRp113
(dp114
g74
(dp115
sg83
g79
sg76
(lp116
g69
(g90
g71
NtRp117
(dp118
g74
(dp119
g94
g95
ssg83
g113
sg76
(lp120
S'application'
p121
asbag69
(g90
g71
NtRp122
(dp123
g74
(dp124
g101
g102
ssg83
g113
sg76
(lp125
S':'
asbag69
(g90
g71
NtRp126
(dp127
g74
(dp128
sg83
g113
sg76
(lp129
g69
(g70
g71
NtRp130
(dp131
g74
(dp132
g82
I5
ssg83
g126
sg76
(lp133
S'init'
p134
asbasbasbag69
(g85
g71
NtRp135
(dp136
g74
(dp137
sg83
g79
sg76
(lp138
g69
(g90
g71
NtRp139
(dp140
g74
(dp141
g94
g95
ssg83
g135
sg76
(lp142
g52
asbag69
(g90
g71
NtRp143
(dp144
g74
(dp145
g101
g102
ssg83
g135
sg76
(lp146
S':'
asbag69
(g90
g71
NtRp147
(dp148
g74
(dp149
sg83
g135
sg76
(lp150
g69
(g70
g71
NtRp151
(dp152
g74
(dp153
g82
I5
ssg83
g147
sg76
(lp154
g69
(g78
g71
NtRp155
(dp156
g74
(dp157
g82
I4
ssg83
Nsg76
(lp158
sbasbasbasbag69
(g85
g71
NtRp159
(dp160
g74
(dp161
sg83
g79
sg76
(lp162
g69
(g90
g71
NtRp163
(dp164
g74
(dp165
g94
g95
ssg83
g159
sg76
(lp166
S'body'
p167
asbag69
(g90
g71
NtRp168
(dp169
g74
(dp170
g101
g102
ssg83
g159
sg76
(lp171
S':'
asbag69
(g90
g71
NtRp172
(dp173
g74
(dp174
sg83
g159
sg76
(lp175
g69
(g70
g71
NtRp176
(dp177
g74
(dp178
g82
I5
ssg83
g172
sg76
(lp179
S"<open file '<fdopen>', mode 'w+b' at 0x0000000009CD6150>"
p180
asbasbasbag69
(g85
g71
NtRp181
(dp182
g74
(dp183
sg83
g79
sg76
(lp184
g69
(g90
g71
NtRp185
(dp186
g74
(dp187
g94
g95
ssg83
g181
sg76
(lp188
S'client'
p189
asbag69
(g90
g71
NtRp190
(dp191
g74
(dp192
g101
g102
ssg83
g181
sg76
(lp193
S':'
asbag69
(g90
g71
NtRp194
(dp195
g74
(dp196
sg83
g181
sg76
(lp197
g69
(g70
g71
NtRp198
(dp199
g74
(dp200
g82
I5
ssg83
g194
sg76
(lp201
S'127.0.0.1'
p202
asbasbasbag69
(g85
g71
NtRp203
(dp204
g74
(dp205
sg83
g79
sg76
(lp206
g69
(g90
g71
NtRp207
(dp208
g74
(dp209
g94
g95
ssg83
g203
sg76
(lp210
S'controller'
p211
asbag69
(g90
g71
NtRp212
(dp213
g74
(dp214
g101
g102
ssg83
g203
sg76
(lp215
S':'
asbag69
(g90
g71
NtRp216
(dp217
g74
(dp218
sg83
g203
sg76
(lp219
g69
(g70
g71
NtRp220
(dp221
g74
(dp222
g82
I5
ssg83
g216
sg76
(lp223
S'default'
p224
asbasbasbag69
(g85
g71
NtRp225
(dp226
g74
(dp227
sg83
g79
sg76
(lp228
g69
(g90
g71
NtRp229
(dp230
g74
(dp231
g94
g95
ssg83
g225
sg76
(lp232
S'cookies'
p233
asbag69
(g90
g71
NtRp234
(dp235
g74
(dp236
g101
g102
ssg83
g225
sg76
(lp237
S':'
asbag69
(g90
g71
NtRp238
(dp239
g74
(dp240
sg83
g225
sg76
(lp241
g69
(g70
g71
NtRp242
(dp243
g74
(dp244
g82
I5
ssg83
g238
sg76
(lp245
g69
(g78
g71
NtRp246
(dp247
g74
(dp248
g82
I4
ssg83
Nsg76
(lp249
g69
(g85
g71
NtRp250
(dp251
g74
(dp252
sg83
g246
sg76
(lp253
g69
(g90
g71
NtRp254
(dp255
g74
(dp256
g94
g95
ssg83
g250
sg76
(lp257
S'session_id_admin'
p258
asbag69
(g90
g71
NtRp259
(dp260
g74
(dp261
g101
g102
ssg83
g250
sg76
(lp262
S':'
asbag69
(g90
g71
NtRp263
(dp264
g74
(dp265
sg83
g250
sg76
(lp266
g69
(g70
g71
NtRp267
(dp268
g74
(dp269
g82
I4
ssg83
g263
sg76
(lp270
g69
(g78
g71
NtRp271
(dp272
g74
(dp273
g82
I3
ssg83
Nsg76
(lp274
g69
(g85
g71
NtRp275
(dp276
g74
(dp277
sg83
g271
sg76
(lp278
g69
(g90
g71
NtRp279
(dp280
g74
(dp281
g94
g95
ssg83
g275
sg76
(lp282
S'comment'
p283
asbag69
(g90
g71
NtRp284
(dp285
g74
(dp286
g101
g102
ssg83
g275
sg76
(lp287
S':'
asbag69
(g90
g71
NtRp288
(dp289
g74
(dp290
sg83
g275
sg76
(lp291
g69
(g70
g71
NtRp292
(dp293
g74
(dp294
g82
I3
ssg83
g288
sg76
(lp295
S''
asbasbasbag69
(g85
g71
NtRp296
(dp297
g74
(dp298
sg83
g271
sg76
(lp299
g69
(g90
g71
NtRp300
(dp301
g74
(dp302
g94
g95
ssg83
g296
sg76
(lp303
S'domain'
p304
asbag69
(g90
g71
NtRp305
(dp306
g74
(dp307
g101
g102
ssg83
g296
sg76
(lp308
S':'
asbag69
(g90
g71
NtRp309
(dp310
g74
(dp311
sg83
g296
sg76
(lp312
g69
(g70
g71
NtRp313
(dp314
g74
(dp315
g82
I3
ssg83
g309
sg76
(lp316
S''
asbasbasbag69
(g85
g71
NtRp317
(dp318
g74
(dp319
sg83
g271
sg76
(lp320
g69
(g90
g71
NtRp321
(dp322
g74
(dp323
g94
g95
ssg83
g317
sg76
(lp324
S'expires'
p325
asbag69
(g90
g71
NtRp326
(dp327
g74
(dp328
g101
g102
ssg83
g317
sg76
(lp329
S':'
asbag69
(g90
g71
NtRp330
(dp331
g74
(dp332
sg83
g317
sg76
(lp333
g69
(g70
g71
NtRp334
(dp335
g74
(dp336
g82
I3
ssg83
g330
sg76
(lp337
S''
asbasbasbag69
(g85
g71
NtRp338
(dp339
g74
(dp340
sg83
g271
sg76
(lp341
g69
(g90
g71
NtRp342
(dp343
g74
(dp344
g94
g95
ssg83
g338
sg76
(lp345
S'httponly'
p346
asbag69
(g90
g71
NtRp347
(dp348
g74
(dp349
g101
g102
ssg83
g338
sg76
(lp350
S':'
asbag69
(g90
g71
NtRp351
(dp352
g74
(dp353
sg83
g338
sg76
(lp354
g69
(g70
g71
NtRp355
(dp356
g74
(dp357
g82
I3
ssg83
g351
sg76
(lp358
S''
asbasbasbag69
(g85
g71
NtRp359
(dp360
g74
(dp361
sg83
g271
sg76
(lp362
g69
(g90
g71
NtRp363
(dp364
g74
(dp365
g94
g95
ssg83
g359
sg76
(lp366
S'max-age'
p367
asbag69
(g90
g71
NtRp368
(dp369
g74
(dp370
g101
g102
ssg83
g359
sg76
(lp371
S':'
asbag69
(g90
g71
NtRp372
(dp373
g74
(dp374
sg83
g359
sg76
(lp375
g69
(g70
g71
NtRp376
(dp377
g74
(dp378
g82
I3
ssg83
g372
sg76
(lp379
S''
asbasbasbag69
(g85
g71
NtRp380
(dp381
g74
(dp382
sg83
g271
sg76
(lp383
g69
(g90
g71
NtRp384
(dp385
g74
(dp386
g94
g95
ssg83
g380
sg76
(lp387
S'path'
p388
asbag69
(g90
g71
NtRp389
(dp390
g74
(dp391
g101
g102
ssg83
g380
sg76
(lp392
S':'
asbag69
(g90
g71
NtRp393
(dp394
g74
(dp395
sg83
g380
sg76
(lp396
g69
(g70
g71
NtRp397
(dp398
g74
(dp399
g82
I3
ssg83
g393
sg76
(lp400
S''
asbasbasbag69
(g85
g71
NtRp401
(dp402
g74
(dp403
sg83
g271
sg76
(lp404
g69
(g90
g71
NtRp405
(dp406
g74
(dp407
g94
g95
ssg83
g401
sg76
(lp408
S'secure'
p409
asbag69
(g90
g71
NtRp410
(dp411
g74
(dp412
g101
g102
ssg83
g401
sg76
(lp413
S':'
asbag69
(g90
g71
NtRp414
(dp415
g74
(dp416
sg83
g401
sg76
(lp417
g69
(g70
g71
NtRp418
(dp419
g74
(dp420
g82
I3
ssg83
g414
sg76
(lp421
S''
asbasbasbag69
(g85
g71
NtRp422
(dp423
g74
(dp424
sg83
g271
sg76
(lp425
g69
(g90
g71
NtRp426
(dp427
g74
(dp428
g94
g95
ssg83
g422
sg76
(lp429
S'version'
p430
asbag69
(g90
g71
NtRp431
(dp432
g74
(dp433
g101
g102
ssg83
g422
sg76
(lp434
S':'
asbag69
(g90
g71
NtRp435
(dp436
g74
(dp437
sg83
g422
sg76
(lp438
g69
(g70
g71
NtRp439
(dp440
g74
(dp441
g82
I3
ssg83
g435
sg76
(lp442
S''
asbasbasbasbasbasbasbag69
(g85
g71
NtRp443
(dp444
g74
(dp445
sg83
g246
sg76
(lp446
g69
(g90
g71
NtRp447
(dp448
g74
(dp449
g94
g95
ssg83
g443
sg76
(lp450
S'session_id_init'
p451
asbag69
(g90
g71
NtRp452
(dp453
g74
(dp454
g101
g102
ssg83
g443
sg76
(lp455
S':'
asbag69
(g90
g71
NtRp456
(dp457
g74
(dp458
sg83
g443
sg76
(lp459
g69
(g70
g71
NtRp460
(dp461
g74
(dp462
g82
I4
ssg83
g456
sg76
(lp463
g69
(g78
g71
NtRp464
(dp465
g74
(dp466
g82
I3
ssg83
Nsg76
(lp467
g69
(g85
g71
NtRp468
(dp469
g74
(dp470
sg83
g464
sg76
(lp471
g69
(g90
g71
NtRp472
(dp473
g74
(dp474
g94
g95
ssg83
g468
sg76
(lp475
g283
asbag69
(g90
g71
NtRp476
(dp477
g74
(dp478
g101
g102
ssg83
g468
sg76
(lp479
S':'
asbag69
(g90
g71
NtRp480
(dp481
g74
(dp482
sg83
g468
sg76
(lp483
g69
(g70
g71
NtRp484
(dp485
g74
(dp486
g82
I3
ssg83
g480
sg76
(lp487
S''
asbasbasbag69
(g85
g71
NtRp488
(dp489
g74
(dp490
sg83
g464
sg76
(lp491
g69
(g90
g71
NtRp492
(dp493
g74
(dp494
g94
g95
ssg83
g488
sg76
(lp495
g304
asbag69
(g90
g71
NtRp496
(dp497
g74
(dp498
g101
g102
ssg83
g488
sg76
(lp499
S':'
asbag69
(g90
g71
NtRp500
(dp501
g74
(dp502
sg83
g488
sg76
(lp503
g69
(g70
g71
NtRp504
(dp505
g74
(dp506
g82
I3
ssg83
g500
sg76
(lp507
S''
asbasbasbag69
(g85
g71
NtRp508
(dp509
g74
(dp510
sg83
g464
sg76
(lp511
g69
(g90
g71
NtRp512
(dp513
g74
(dp514
g94
g95
ssg83
g508
sg76
(lp515
g325
asbag69
(g90
g71
NtRp516
(dp517
g74
(dp518
g101
g102
ssg83
g508
sg76
(lp519
S':'
asbag69
(g90
g71
NtRp520
(dp521
g74
(dp522
sg83
g508
sg76
(lp523
g69
(g70
g71
NtRp524
(dp525
g74
(dp526
g82
I3
ssg83
g520
sg76
(lp527
S''
asbasbasbag69
(g85
g71
NtRp528
(dp529
g74
(dp530
sg83
g464
sg76
(lp531
g69
(g90
g71
NtRp532
(dp533
g74
(dp534
g94
g95
ssg83
g528
sg76
(lp535
g346
asbag69
(g90
g71
NtRp536
(dp537
g74
(dp538
g101
g102
ssg83
g528
sg76
(lp539
S':'
asbag69
(g90
g71
NtRp540
(dp541
g74
(dp542
sg83
g528
sg76
(lp543
g69
(g70
g71
NtRp544
(dp545
g74
(dp546
g82
I3
ssg83
g540
sg76
(lp547
S''
asbasbasbag69
(g85
g71
NtRp548
(dp549
g74
(dp550
sg83
g464
sg76
(lp551
g69
(g90
g71
NtRp552
(dp553
g74
(dp554
g94
g95
ssg83
g548
sg76
(lp555
g367
asbag69
(g90
g71
NtRp556
(dp557
g74
(dp558
g101
g102
ssg83
g548
sg76
(lp559
S':'
asbag69
(g90
g71
NtRp560
(dp561
g74
(dp562
sg83
g548
sg76
(lp563
g69
(g70
g71
NtRp564
(dp565
g74
(dp566
g82
I3
ssg83
g560
sg76
(lp567
S''
asbasbasbag69
(g85
g71
NtRp568
(dp569
g74
(dp570
sg83
g464
sg76
(lp571
g69
(g90
g71
NtRp572
(dp573
g74
(dp574
g94
g95
ssg83
g568
sg76
(lp575
g388
asbag69
(g90
g71
NtRp576
(dp577
g74
(dp578
g101
g102
ssg83
g568
sg76
(lp579
S':'
asbag69
(g90
g71
NtRp580
(dp581
g74
(dp582
sg83
g568
sg76
(lp583
g69
(g70
g71
NtRp584
(dp585
g74
(dp586
g82
I3
ssg83
g580
sg76
(lp587
S''
asbasbasbag69
(g85
g71
NtRp588
(dp589
g74
(dp590
sg83
g464
sg76
(lp591
g69
(g90
g71
NtRp592
(dp593
g74
(dp594
g94
g95
ssg83
g588
sg76
(lp595
g409
asbag69
(g90
g71
NtRp596
(dp597
g74
(dp598
g101
g102
ssg83
g588
sg76
(lp599
S':'
asbag69
(g90
g71
NtRp600
(dp601
g74
(dp602
sg83
g588
sg76
(lp603
g69
(g70
g71
NtRp604
(dp605
g74
(dp606
g82
I3
ssg83
g600
sg76
(lp607
S''
asbasbasbag69
(g85
g71
NtRp608
(dp609
g74
(dp610
sg83
g464
sg76
(lp611
g69
(g90
g71
NtRp612
(dp613
g74
(dp614
g94
g95
ssg83
g608
sg76
(lp615
g430
asbag69
(g90
g71
NtRp616
(dp617
g74
(dp618
g101
g102
ssg83
g608
sg76
(lp619
S':'
asbag69
(g90
g71
NtRp620
(dp621
g74
(dp622
sg83
g608
sg76
(lp623
g69
(g70
g71
NtRp624
(dp625
g74
(dp626
g82
I3
ssg83
g620
sg76
(lp627
S''
asbasbasbasbasbasbasbasbasbasbasbag69
(g85
g71
NtRp628
(dp629
g74
(dp630
sg83
g79
sg76
(lp631
g69
(g90
g71
NtRp632
(dp633
g74
(dp634
g94
g95
ssg83
g628
sg76
(lp635
S'env'
p636
asbag69
(g90
g71
NtRp637
(dp638
g74
(dp639
g101
g102
ssg83
g628
sg76
(lp640
S':'
asbag69
(g90
g71
NtRp641
(dp642
g74
(dp643
sg83
g628
sg76
(lp644
g69
(g70
g71
NtRp645
(dp646
g74
(dp647
g82
I5
ssg83
g641
sg76
(lp648
g69
(g78
g71
NtRp649
(dp650
g74
(dp651
g82
I4
ssg83
Nsg76
(lp652
g69
(g85
g71
NtRp653
(dp654
g74
(dp655
sg83
g649
sg76
(lp656
g69
(g90
g71
NtRp657
(dp658
g74
(dp659
g94
g95
ssg83
g653
sg76
(lp660
S'app_folders'
p661
asbag69
(g90
g71
NtRp662
(dp663
g74
(dp664
g101
g102
ssg83
g653
sg76
(lp665
S':'
asbag69
(g90
g71
NtRp666
(dp667
g74
(dp668
sg83
g653
sg76
(lp669
g69
(g70
g71
NtRp670
(dp671
g74
(dp672
g82
I4
ssg83
g666
sg76
(lp673
S"set(['c:\\\\Users\\\\Jorge\\\\Downloads\\\\web2py_src\\\\web2py\\\\applications\\\\admin\\\\', 'c:\\\\Users\\\\Jorge\\\\Downloads\\\\web2py_src\\\\web2py\\\\applications\\\\init\\\\'])"
p674
asbasbasbag69
(g85
g71
NtRp675
(dp676
g74
(dp677
sg83
g649
sg76
(lp678
g69
(g90
g71
NtRp679
(dp680
g74
(dp681
g94
g95
ssg83
g675
sg76
(lp682
S'applications_parent'
p683
asbag69
(g90
g71
NtRp684
(dp685
g74
(dp686
g101
g102
ssg83
g675
sg76
(lp687
S':'
asbag69
(g90
g71
NtRp688
(dp689
g74
(dp690
sg83
g675
sg76
(lp691
g69
(g70
g71
NtRp692
(dp693
g74
(dp694
g82
I4
ssg83
g688
sg76
(lp695
S'c:\\Users\\Jorge\\Downloads\\web2py_src\\web2py'
p696
asbasbasbag69
(g85
g71
NtRp697
(dp698
g74
(dp699
sg83
g649
sg76
(lp700
g69
(g90
g71
NtRp701
(dp702
g74
(dp703
g94
g95
ssg83
g697
sg76
(lp704
S'cmd_args'
p705
asbag69
(g90
g71
NtRp706
(dp707
g74
(dp708
g101
g102
ssg83
g697
sg76
(lp709
S':'
asbag69
(g90
g71
NtRp710
(dp711
g74
(dp712
sg83
g697
sg76
(lp713
g69
(g70
g71
NtRp714
(dp715
g74
(dp716
g82
I4
ssg83
g710
sg76
(lp717
g69
(g78
g71
NtRp718
(dp719
g74
(dp720
g82
I3
ssg83
Nsg76
(lp721
sbasbasbasbag69
(g85
g71
NtRp722
(dp723
g74
(dp724
sg83
g649
sg76
(lp725
g69
(g90
g71
NtRp726
(dp727
g74
(dp728
g94
g95
ssg83
g722
sg76
(lp729
S'cmd_options'
p730
asbag69
(g90
g71
NtRp731
(dp732
g74
(dp733
g101
g102
ssg83
g722
sg76
(lp734
S':'
asbag69
(g90
g71
NtRp735
(dp736
g74
(dp737
sg83
g722
sg76
(lp738
g69
(g70
g71
NtRp739
(dp740
g74
(dp741
g82
I4
ssg83
g735
sg76
(lp742
S"<Values at 0x374e208: {'verbose': False, 'ip': '127.0.0.1', 'shutdown_timeout': 5, 'taskbar': False, 'nocron': False, 'pid_filename': 'httpserver.pid', 'maxthreads': None, 'softcron': False, 'server_name': 'Jorge-PC', 'bpython': False, 'nogui': False, 'port': 8000, 'extcron': False, 'debuglevel': 30, 'test': None, 'folder': 'c:\\\\Users\\\\Jorge\\\\Downloads\\\\web2py_src\\\\web2py', 'config': '', 'import_models': False, 'winservice': '', 'shell': None, 'run': '', 'log_filename': 'httpserver.log', 'args': [''], 'socket_timeout': 5, 'ssl_ca_certificate': None, 'scheduler': None, 'profiler_filename': None, 'ssl_private_key': '', 'password': '<ask>', 'request_queue_size': 5, 'ssl_certificate': '', 'cronjob': False, 'numthreads': None, 'quiet': False, 'interfaces': None, 'minthreads': None, 'timeout': 10, 'plain': False, 'nobanner': False}>"
p743
asbasbasbag69
(g85
g71
NtRp744
(dp745
g74
(dp746
sg83
g649
sg76
(lp747
g69
(g90
g71
NtRp748
(dp749
g74
(dp750
g94
g95
ssg83
g744
sg76
(lp751
S'content_length'
p752
asbag69
(g90
g71
NtRp753
(dp754
g74
(dp755
g101
g102
ssg83
g744
sg76
(lp756
S':'
asbag69
(g90
g71
NtRp757
(dp758
g74
(dp759
sg83
g744
sg76
(lp760
g69
(g70
g71
NtRp761
(dp762
g74
(dp763
g82
I4
ssg83
g757
sg76
(lp764
S'65'
p765
asbasbasbag69
(g85
g71
NtRp766
(dp767
g74
(dp768
sg83
g649
sg76
(lp769
g69
(g90
g71
NtRp770
(dp771
g74
(dp772
g94
g95
ssg83
g766
sg76
(lp773
S'content_type'
p774
asbag69
(g90
g71
NtRp775
(dp776
g74
(dp777
g101
g102
ssg83
g766
sg76
(lp778
S':'
asbag69
(g90
g71
NtRp779
(dp780
g74
(dp781
sg83
g766
sg76
(lp782
g69
(g70
g71
NtRp783
(dp784
g74
(dp785
g82
I4
ssg83
g779
sg76
(lp786
S'application/x-www-form-urlencoded; charset=utf-8'
p787
asbasbasbag69
(g85
g71
NtRp788
(dp789
g74
(dp790
sg83
g649
sg76
(lp791
g69
(g90
g71
NtRp792
(dp793
g74
(dp794
g94
g95
ssg83
g788
sg76
(lp795
S'db_sessions'
p796
asbag69
(g90
g71
NtRp797
(dp798
g74
(dp799
g101
g102
ssg83
g788
sg76
(lp800
S':'
asbag69
(g90
g71
NtRp801
(dp802
g74
(dp803
sg83
g788
sg76
(lp804
g69
(g70
g71
NtRp805
(dp806
g74
(dp807
g82
I4
ssg83
g801
sg76
(lp808
S'set([])'
p809
asbasbasbag69
(g85
g71
NtRp810
(dp811
g74
(dp812
sg83
g649
sg76
(lp813
g69
(g90
g71
NtRp814
(dp815
g74
(dp816
g94
g95
ssg83
g810
sg76
(lp817
S'debugging'
p818
asbag69
(g90
g71
NtRp819
(dp820
g74
(dp821
g101
g102
ssg83
g810
sg76
(lp822
S':'
asbag69
(g90
g71
NtRp823
(dp824
g74
(dp825
sg83
g810
sg76
(lp826
g69
(g70
g71
NtRp827
(dp828
g74
(dp829
g82
I4
ssg83
g823
sg76
(lp830
S'False'
p831
asbasbasbag69
(g85
g71
NtRp832
(dp833
g74
(dp834
sg83
g649
sg76
(lp835
g69
(g90
g71
NtRp836
(dp837
g74
(dp838
g94
g95
ssg83
g832
sg76
(lp839
S'gluon_parent'
p840
asbag69
(g90
g71
NtRp841
(dp842
g74
(dp843
g101
g102
ssg83
g832
sg76
(lp844
S':'
asbag69
(g90
g71
NtRp845
(dp846
g74
(dp847
sg83
g832
sg76
(lp848
g69
(g70
g71
NtRp849
(dp850
g74
(dp851
g82
I4
ssg83
g845
sg76
(lp852
S'c:\\Users\\Jorge\\Downloads\\web2py_src\\web2py'
p853
asbasbasbag69
(g85
g71
NtRp854
(dp855
g74
(dp856
sg83
g649
sg76
(lp857
g69
(g90
g71
NtRp858
(dp859
g74
(dp860
g94
g95
ssg83
g854
sg76
(lp861
S'http_accept'
p862
asbag69
(g90
g71
NtRp863
(dp864
g74
(dp865
g101
g102
ssg83
g854
sg76
(lp866
S':'
asbag69
(g90
g71
NtRp867
(dp868
g74
(dp869
sg83
g854
sg76
(lp870
g69
(g70
g71
NtRp871
(dp872
g74
(dp873
g82
I4
ssg83
g867
sg76
(lp874
S'application/json, text/javascript, */*; q=0.01'
p875
asbasbasbag69
(g85
g71
NtRp876
(dp877
g74
(dp878
sg83
g649
sg76
(lp879
g69
(g90
g71
NtRp880
(dp881
g74
(dp882
g94
g95
ssg83
g876
sg76
(lp883
S'http_accept_encoding'
p884
asbag69
(g90
g71
NtRp885
(dp886
g74
(dp887
g101
g102
ssg83
g876
sg76
(lp888
S':'
asbag69
(g90
g71
NtRp889
(dp890
g74
(dp891
sg83
g876
sg76
(lp892
g69
(g70
g71
NtRp893
(dp894
g74
(dp895
g82
I4
ssg83
g889
sg76
(lp896
S'gzip, deflate'
p897
asbasbasbag69
(g85
g71
NtRp898
(dp899
g74
(dp900
sg83
g649
sg76
(lp901
g69
(g90
g71
NtRp902
(dp903
g74
(dp904
g94
g95
ssg83
g898
sg76
(lp905
S'http_accept_language'
p906
asbag69
(g90
g71
NtRp907
(dp908
g74
(dp909
g101
g102
ssg83
g898
sg76
(lp910
S':'
asbag69
(g90
g71
NtRp911
(dp912
g74
(dp913
sg83
g898
sg76
(lp914
g69
(g70
g71
NtRp915
(dp916
g74
(dp917
g82
I4
ssg83
g911
sg76
(lp918
S'es-es,es;q=0.8,en-us;q=0.5,en;q=0.3'
p919
asbasbasbag69
(g85
g71
NtRp920
(dp921
g74
(dp922
sg83
g649
sg76
(lp923
g69
(g90
g71
NtRp924
(dp925
g74
(dp926
g94
g95
ssg83
g920
sg76
(lp927
S'http_cache_control'
p928
asbag69
(g90
g71
NtRp929
(dp930
g74
(dp931
g101
g102
ssg83
g920
sg76
(lp932
S':'
asbag69
(g90
g71
NtRp933
(dp934
g74
(dp935
sg83
g920
sg76
(lp936
g69
(g70
g71
NtRp937
(dp938
g74
(dp939
g82
I4
ssg83
g933
sg76
(lp940
S'no-cache'
p941
asbasbasbag69
(g85
g71
NtRp942
(dp943
g74
(dp944
sg83
g649
sg76
(lp945
g69
(g90
g71
NtRp946
(dp947
g74
(dp948
g94
g95
ssg83
g942
sg76
(lp949
S'http_connection'
p950
asbag69
(g90
g71
NtRp951
(dp952
g74
(dp953
g101
g102
ssg83
g942
sg76
(lp954
S':'
asbag69
(g90
g71
NtRp955
(dp956
g74
(dp957
sg83
g942
sg76
(lp958
g69
(g70
g71
NtRp959
(dp960
g74
(dp961
g82
I4
ssg83
g955
sg76
(lp962
S'keep-alive'
p963
asbasbasbag69
(g85
g71
NtRp964
(dp965
g74
(dp966
sg83
g649
sg76
(lp967
g69
(g90
g71
NtRp968
(dp969
g74
(dp970
g94
g95
ssg83
g964
sg76
(lp971
S'http_content_length'
p972
asbag69
(g90
g71
NtRp973
(dp974
g74
(dp975
g101
g102
ssg83
g964
sg76
(lp976
S':'
asbag69
(g90
g71
NtRp977
(dp978
g74
(dp979
sg83
g964
sg76
(lp980
g69
(g70
g71
NtRp981
(dp982
g74
(dp983
g82
I4
ssg83
g977
sg76
(lp984
g765
asbasbasbag69
(g85
g71
NtRp985
(dp986
g74
(dp987
sg83
g649
sg76
(lp988
g69
(g90
g71
NtRp989
(dp990
g74
(dp991
g94
g95
ssg83
g985
sg76
(lp992
S'http_content_type'
p993
asbag69
(g90
g71
NtRp994
(dp995
g74
(dp996
g101
g102
ssg83
g985
sg76
(lp997
S':'
asbag69
(g90
g71
NtRp998
(dp999
g74
(dp1000
sg83
g985
sg76
(lp1001
g69
(g70
g71
NtRp1002
(dp1003
g74
(dp1004
g82
I4
ssg83
g998
sg76
(lp1005
g787
asbasbasbag69
(g85
g71
NtRp1006
(dp1007
g74
(dp1008
sg83
g649
sg76
(lp1009
g69
(g90
g71
NtRp1010
(dp1011
g74
(dp1012
g94
g95
ssg83
g1006
sg76
(lp1013
S'http_cookie'
p1014
asbag69
(g90
g71
NtRp1015
(dp1016
g74
(dp1017
g101
g102
ssg83
g1006
sg76
(lp1018
S':'
asbag69
(g90
g71
NtRp1019
(dp1020
g74
(dp1021
sg83
g1006
sg76
(lp1022
g69
(g70
g71
NtRp1023
(dp1024
g74
(dp1025
g82
I4
ssg83
g1019
sg76
(lp1026
S'session_id_init=127.0.0.1-db1a5172-e0eb-4779-bead-3eff2ec2fe17; session_id_admin=127.0.0.1-1af679c7-1fb7-4e3c-be5e-91b2ecc5c8df'
p1027
asbasbasbag69
(g85
g71
NtRp1028
(dp1029
g74
(dp1030
sg83
g649
sg76
(lp1031
g69
(g90
g71
NtRp1032
(dp1033
g74
(dp1034
g94
g95
ssg83
g1028
sg76
(lp1035
S'http_host'
p1036
asbag69
(g90
g71
NtRp1037
(dp1038
g74
(dp1039
g101
g102
ssg83
g1028
sg76
(lp1040
S':'
asbag69
(g90
g71
NtRp1041
(dp1042
g74
(dp1043
sg83
g1028
sg76
(lp1044
g69
(g70
g71
NtRp1045
(dp1046
g74
(dp1047
g82
I4
ssg83
g1041
sg76
(lp1048
S'127.0.0.1:8000'
p1049
asbasbasbag69
(g85
g71
NtRp1050
(dp1051
g74
(dp1052
sg83
g649
sg76
(lp1053
g69
(g90
g71
NtRp1054
(dp1055
g74
(dp1056
g94
g95
ssg83
g1050
sg76
(lp1057
S'http_pragma'
p1058
asbag69
(g90
g71
NtRp1059
(dp1060
g74
(dp1061
g101
g102
ssg83
g1050
sg76
(lp1062
S':'
asbag69
(g90
g71
NtRp1063
(dp1064
g74
(dp1065
sg83
g1050
sg76
(lp1066
g69
(g70
g71
NtRp1067
(dp1068
g74
(dp1069
g82
I4
ssg83
g1063
sg76
(lp1070
S'no-cache'
p1071
asbasbasbag69
(g85
g71
NtRp1072
(dp1073
g74
(dp1074
sg83
g649
sg76
(lp1075
g69
(g90
g71
NtRp1076
(dp1077
g74
(dp1078
g94
g95
ssg83
g1072
sg76
(lp1079
S'http_referer'
p1080
asbag69
(g90
g71
NtRp1081
(dp1082
g74
(dp1083
g101
g102
ssg83
g1072
sg76
(lp1084
S':'
asbag69
(g90
g71
NtRp1085
(dp1086
g74
(dp1087
sg83
g1072
sg76
(lp1088
g69
(g70
g71
NtRp1089
(dp1090
g74
(dp1091
g82
I4
ssg83
g1085
sg76
(lp1092
S'http://127.0.0.1:8000/init/default/presupuestos'
p1093
asbasbasbag69
(g85
g71
NtRp1094
(dp1095
g74
(dp1096
sg83
g649
sg76
(lp1097
g69
(g90
g71
NtRp1098
(dp1099
g74
(dp1100
g94
g95
ssg83
g1094
sg76
(lp1101
S'http_user_agent'
p1102
asbag69
(g90
g71
NtRp1103
(dp1104
g74
(dp1105
g101
g102
ssg83
g1094
sg76
(lp1106
S':'
asbag69
(g90
g71
NtRp1107
(dp1108
g74
(dp1109
sg83
g1094
sg76
(lp1110
g69
(g70
g71
NtRp1111
(dp1112
g74
(dp1113
g82
I4
ssg83
g1107
sg76
(lp1114
S'Mozilla/5.0 (Windows NT 6.1; WOW64; rv:11.0) Gecko/20100101 Firefox/11.0'
p1115
asbasbasbag69
(g85
g71
NtRp1116
(dp1117
g74
(dp1118
sg83
g649
sg76
(lp1119
g69
(g90
g71
NtRp1120
(dp1121
g74
(dp1122
g94
g95
ssg83
g1116
sg76
(lp1123
S'http_x_requested_with'
p1124
asbag69
(g90
g71
NtRp1125
(dp1126
g74
(dp1127
g101
g102
ssg83
g1116
sg76
(lp1128
S':'
asbag69
(g90
g71
NtRp1129
(dp1130
g74
(dp1131
sg83
g1116
sg76
(lp1132
g69
(g70
g71
NtRp1133
(dp1134
g74
(dp1135
g82
I4
ssg83
g1129
sg76
(lp1136
S'XMLHttpRequest'
p1137
asbasbasbag69
(g85
g71
NtRp1138
(dp1139
g74
(dp1140
sg83
g649
sg76
(lp1141
g69
(g90
g71
NtRp1142
(dp1143
g74
(dp1144
g94
g95
ssg83
g1138
sg76
(lp1145
S'is_jython'
p1146
asbag69
(g90
g71
NtRp1147
(dp1148
g74
(dp1149
g101
g102
ssg83
g1138
sg76
(lp1150
S':'
asbag69
(g90
g71
NtRp1151
(dp1152
g74
(dp1153
sg83
g1138
sg76
(lp1154
g69
(g70
g71
NtRp1155
(dp1156
g74
(dp1157
g82
I4
ssg83
g1151
sg76
(lp1158
g831
asbasbasbag69
(g85
g71
NtRp1159
(dp1160
g74
(dp1161
sg83
g649
sg76
(lp1162
g69
(g90
g71
NtRp1163
(dp1164
g74
(dp1165
g94
g95
ssg83
g1159
sg76
(lp1166
S'is_pypy'
p1167
asbag69
(g90
g71
NtRp1168
(dp1169
g74
(dp1170
g101
g102
ssg83
g1159
sg76
(lp1171
S':'
asbag69
(g90
g71
NtRp1172
(dp1173
g74
(dp1174
sg83
g1159
sg76
(lp1175
g69
(g70
g71
NtRp1176
(dp1177
g74
(dp1178
g82
I4
ssg83
g1172
sg76
(lp1179
g831
asbasbasbag69
(g85
g71
NtRp1180
(dp1181
g74
(dp1182
sg83
g649
sg76
(lp1183
g69
(g90
g71
NtRp1184
(dp1185
g74
(dp1186
g94
g95
ssg83
g1180
sg76
(lp1187
S'path_info'
p1188
asbag69
(g90
g71
NtRp1189
(dp1190
g74
(dp1191
g101
g102
ssg83
g1180
sg76
(lp1192
S':'
asbag69
(g90
g71
NtRp1193
(dp1194
g74
(dp1195
sg83
g1180
sg76
(lp1196
g69
(g70
g71
NtRp1197
(dp1198
g74
(dp1199
g82
I4
ssg83
g1193
sg76
(lp1200
S'/init/default/features.json'
p1201
asbasbasbag69
(g85
g71
NtRp1202
(dp1203
g74
(dp1204
sg83
g649
sg76
(lp1205
g69
(g90
g71
NtRp1206
(dp1207
g74
(dp1208
g94
g95
ssg83
g1202
sg76
(lp1209
S'query_string'
p1210
asbag69
(g90
g71
NtRp1211
(dp1212
g74
(dp1213
g101
g102
ssg83
g1202
sg76
(lp1214
S':'
asbag69
(g90
g71
NtRp1215
(dp1216
g74
(dp1217
sg83
g1202
sg76
(lp1218
g69
(g70
g71
NtRp1219
(dp1220
g74
(dp1221
g82
I4
ssg83
g1215
sg76
(lp1222
S''
asbasbasbag69
(g85
g71
NtRp1223
(dp1224
g74
(dp1225
sg83
g649
sg76
(lp1226
g69
(g90
g71
NtRp1227
(dp1228
g74
(dp1229
g94
g95
ssg83
g1223
sg76
(lp1230
S'remote_addr'
p1231
asbag69
(g90
g71
NtRp1232
(dp1233
g74
(dp1234
g101
g102
ssg83
g1223
sg76
(lp1235
S':'
asbag69
(g90
g71
NtRp1236
(dp1237
g74
(dp1238
sg83
g1223
sg76
(lp1239
g69
(g70
g71
NtRp1240
(dp1241
g74
(dp1242
g82
I4
ssg83
g1236
sg76
(lp1243
g202
asbasbasbag69
(g85
g71
NtRp1244
(dp1245
g74
(dp1246
sg83
g649
sg76
(lp1247
g69
(g90
g71
NtRp1248
(dp1249
g74
(dp1250
g94
g95
ssg83
g1244
sg76
(lp1251
S'remote_port'
p1252
asbag69
(g90
g71
NtRp1253
(dp1254
g74
(dp1255
g101
g102
ssg83
g1244
sg76
(lp1256
S':'
asbag69
(g90
g71
NtRp1257
(dp1258
g74
(dp1259
sg83
g1244
sg76
(lp1260
g69
(g70
g71
NtRp1261
(dp1262
g74
(dp1263
g82
I4
ssg83
g1257
sg76
(lp1264
S'50175'
p1265
asbasbasbag69
(g85
g71
NtRp1266
(dp1267
g74
(dp1268
sg83
g649
sg76
(lp1269
g69
(g90
g71
NtRp1270
(dp1271
g74
(dp1272
g94
g95
ssg83
g1266
sg76
(lp1273
S'request_method'
p1274
asbag69
(g90
g71
NtRp1275
(dp1276
g74
(dp1277
g101
g102
ssg83
g1266
sg76
(lp1278
S':'
asbag69
(g90
g71
NtRp1279
(dp1280
g74
(dp1281
sg83
g1266
sg76
(lp1282
g69
(g70
g71
NtRp1283
(dp1284
g74
(dp1285
g82
I4
ssg83
g1279
sg76
(lp1286
S'POST'
p1287
asbasbasbag69
(g85
g71
NtRp1288
(dp1289
g74
(dp1290
sg83
g649
sg76
(lp1291
g69
(g90
g71
NtRp1292
(dp1293
g74
(dp1294
g94
g95
ssg83
g1288
sg76
(lp1295
S'script_name'
p1296
asbag69
(g90
g71
NtRp1297
(dp1298
g74
(dp1299
g101
g102
ssg83
g1288
sg76
(lp1300
S':'
asbag69
(g90
g71
NtRp1301
(dp1302
g74
(dp1303
sg83
g1288
sg76
(lp1304
g69
(g70
g71
NtRp1305
(dp1306
g74
(dp1307
g82
I4
ssg83
g1301
sg76
(lp1308
S''
asbasbasbag69
(g85
g71
NtRp1309
(dp1310
g74
(dp1311
sg83
g649
sg76
(lp1312
g69
(g90
g71
NtRp1313
(dp1314
g74
(dp1315
g94
g95
ssg83
g1309
sg76
(lp1316
S'server_name'
p1317
asbag69
(g90
g71
NtRp1318
(dp1319
g74
(dp1320
g101
g102
ssg83
g1309
sg76
(lp1321
S':'
asbag69
(g90
g71
NtRp1322
(dp1323
g74
(dp1324
sg83
g1309
sg76
(lp1325
g69
(g70
g71
NtRp1326
(dp1327
g74
(dp1328
g82
I4
ssg83
g1322
sg76
(lp1329
S'Jorge-PC'
p1330
asbasbasbag69
(g85
g71
NtRp1331
(dp1332
g74
(dp1333
sg83
g649
sg76
(lp1334
g69
(g90
g71
NtRp1335
(dp1336
g74
(dp1337
g94
g95
ssg83
g1331
sg76
(lp1338
S'server_port'
p1339
asbag69
(g90
g71
NtRp1340
(dp1341
g74
(dp1342
g101
g102
ssg83
g1331
sg76
(lp1343
S':'
asbag69
(g90
g71
NtRp1344
(dp1345
g74
(dp1346
sg83
g1331
sg76
(lp1347
g69
(g70
g71
NtRp1348
(dp1349
g74
(dp1350
g82
I4
ssg83
g1344
sg76
(lp1351
S'8000'
p1352
asbasbasbag69
(g85
g71
NtRp1353
(dp1354
g74
(dp1355
sg83
g649
sg76
(lp1356
g69
(g90
g71
NtRp1357
(dp1358
g74
(dp1359
g94
g95
ssg83
g1353
sg76
(lp1360
S'server_protocol'
p1361
asbag69
(g90
g71
NtRp1362
(dp1363
g74
(dp1364
g101
g102
ssg83
g1353
sg76
(lp1365
S':'
asbag69
(g90
g71
NtRp1366
(dp1367
g74
(dp1368
sg83
g1353
sg76
(lp1369
g69
(g70
g71
NtRp1370
(dp1371
g74
(dp1372
g82
I4
ssg83
g1366
sg76
(lp1373
S'HTTP/1.1'
p1374
asbasbasbag69
(g85
g71
NtRp1375
(dp1376
g74
(dp1377
sg83
g649
sg76
(lp1378
g69
(g90
g71
NtRp1379
(dp1380
g74
(dp1381
g94
g95
ssg83
g1375
sg76
(lp1382
S'server_software'
p1383
asbag69
(g90
g71
NtRp1384
(dp1385
g74
(dp1386
g101
g102
ssg83
g1375
sg76
(lp1387
S':'
asbag69
(g90
g71
NtRp1388
(dp1389
g74
(dp1390
sg83
g1375
sg76
(lp1391
g69
(g70
g71
NtRp1392
(dp1393
g74
(dp1394
g82
I4
ssg83
g1388
sg76
(lp1395
S'Rocket 1.2.4'
p1396
asbasbasbag69
(g85
g71
NtRp1397
(dp1398
g74
(dp1399
sg83
g649
sg76
(lp1400
g69
(g90
g71
NtRp1401
(dp1402
g74
(dp1403
g94
g95
ssg83
g1397
sg76
(lp1404
S'web2py_crontype'
p1405
asbag69
(g90
g71
NtRp1406
(dp1407
g74
(dp1408
g101
g102
ssg83
g1397
sg76
(lp1409
S':'
asbag69
(g90
g71
NtRp1410
(dp1411
g74
(dp1412
sg83
g1397
sg76
(lp1413
g69
(g70
g71
NtRp1414
(dp1415
g74
(dp1416
g82
I4
ssg83
g1410
sg76
(lp1417
S'hard'
p1418
asbasbasbag69
(g85
g71
NtRp1419
(dp1420
g74
(dp1421
sg83
g649
sg76
(lp1422
g69
(g90
g71
NtRp1423
(dp1424
g74
(dp1425
g94
g95
ssg83
g1419
sg76
(lp1426
S'web2py_path'
p1427
asbag69
(g90
g71
NtRp1428
(dp1429
g74
(dp1430
g101
g102
ssg83
g1419
sg76
(lp1431
S':'
asbag69
(g90
g71
NtRp1432
(dp1433
g74
(dp1434
sg83
g1419
sg76
(lp1435
g69
(g70
g71
NtRp1436
(dp1437
g74
(dp1438
g82
I4
ssg83
g1432
sg76
(lp1439
g696
asbasbasbag69
(g85
g71
NtRp1440
(dp1441
g74
(dp1442
sg83
g649
sg76
(lp1443
g69
(g90
g71
NtRp1444
(dp1445
g74
(dp1446
g94
g95
ssg83
g1440
sg76
(lp1447
S'web2py_version'
p1448
asbag69
(g90
g71
NtRp1449
(dp1450
g74
(dp1451
g101
g102
ssg83
g1440
sg76
(lp1452
S':'
asbag69
(g90
g71
NtRp1453
(dp1454
g74
(dp1455
sg83
g1440
sg76
(lp1456
g69
(g70
g71
NtRp1457
(dp1458
g74
(dp1459
g82
I4
ssg83
g1453
sg76
(lp1460
g69
(g78
g71
NtRp1461
(dp1462
g74
(dp1463
g82
I3
ssg83
Nsg76
(lp1464
g69
(g85
g71
NtRp1465
(dp1466
g74
(dp1467
sg83
g1461
sg76
(lp1468
g69
(g90
g71
NtRp1469
(dp1470
g74
(dp1471
sg83
g1465
sg76
(lp1472
g69
(g70
g71
NtRp1473
(dp1474
g74
(dp1475
g82
I3
ssg83
g1469
sg76
(lp1476
S'1'
asbasbasbag69
(g85
g71
NtRp1477
(dp1478
g74
(dp1479
sg83
g1461
sg76
(lp1480
g69
(g90
g71
NtRp1481
(dp1482
g74
(dp1483
sg83
g1477
sg76
(lp1484
g69
(g70
g71
NtRp1485
(dp1486
g74
(dp1487
g82
I3
ssg83
g1481
sg76
(lp1488
S'99'
p1489
asbasbasbag69
(g85
g71
NtRp1490
(dp1491
g74
(dp1492
sg83
g1461
sg76
(lp1493
g69
(g90
g71
NtRp1494
(dp1495
g74
(dp1496
sg83
g1490
sg76
(lp1497
g69
(g70
g71
NtRp1498
(dp1499
g74
(dp1500
g82
I3
ssg83
g1494
sg76
(lp1501
S'7'
asbasbasbag69
(g85
g71
NtRp1502
(dp1503
g74
(dp1504
sg83
g1461
sg76
(lp1505
g69
(g90
g71
NtRp1506
(dp1507
g74
(dp1508
sg83
g1502
sg76
(lp1509
g69
(g70
g71
NtRp1510
(dp1511
g74
(dp1512
g82
I3
ssg83
g1506
sg76
(lp1513
S'datetime.datetime(2012, 3, 4, 22, 12, 8)'
p1514
asbasbasbag69
(g85
g71
NtRp1515
(dp1516
g74
(dp1517
sg83
g1461
sg76
(lp1518
g69
(g90
g71
NtRp1519
(dp1520
g74
(dp1521
sg83
g1515
sg76
(lp1522
g69
(g70
g71
NtRp1523
(dp1524
g74
(dp1525
g82
I3
ssg83
g1519
sg76
(lp1526
S'stable'
p1527
asbasbasbasbasbasbasbag69
(g85
g71
NtRp1528
(dp1529
g74
(dp1530
sg83
g649
sg76
(lp1531
g69
(g90
g71
NtRp1532
(dp1533
g74
(dp1534
g94
g95
ssg83
g1528
sg76
(lp1535
S'wsgi_errors'
p1536
asbag69
(g90
g71
NtRp1537
(dp1538
g74
(dp1539
g101
g102
ssg83
g1528
sg76
(lp1540
S':'
asbag69
(g90
g71
NtRp1541
(dp1542
g74
(dp1543
sg83
g1528
sg76
(lp1544
g69
(g70
g71
NtRp1545
(dp1546
g74
(dp1547
g82
I4
ssg83
g1541
sg76
(lp1548
S"<open file '<stderr>', mode 'w' at 0x0000000001D361E0>"
p1549
asbasbasbag69
(g85
g71
NtRp1550
(dp1551
g74
(dp1552
sg83
g649
sg76
(lp1553
g69
(g90
g71
NtRp1554
(dp1555
g74
(dp1556
g94
g95
ssg83
g1550
sg76
(lp1557
S'wsgi_file_wrapper'
p1558
asbag69
(g90
g71
NtRp1559
(dp1560
g74
(dp1561
g101
g102
ssg83
g1550
sg76
(lp1562
S':'
asbag69
(g90
g71
NtRp1563
(dp1564
g74
(dp1565
sg83
g1550
sg76
(lp1566
g69
(g70
g71
NtRp1567
(dp1568
g74
(dp1569
g82
I4
ssg83
g1563
sg76
(lp1570
S'<class wsgiref.util.FileWrapper at 0x000000000380EC48>'
p1571
asbasbasbag69
(g85
g71
NtRp1572
(dp1573
g74
(dp1574
sg83
g649
sg76
(lp1575
g69
(g90
g71
NtRp1576
(dp1577
g74
(dp1578
g94
g95
ssg83
g1572
sg76
(lp1579
S'wsgi_input'
p1580
asbag69
(g90
g71
NtRp1581
(dp1582
g74
(dp1583
g101
g102
ssg83
g1572
sg76
(lp1584
S':'
asbag69
(g90
g71
NtRp1585
(dp1586
g74
(dp1587
sg83
g1572
sg76
(lp1588
g69
(g70
g71
NtRp1589
(dp1590
g74
(dp1591
g82
I4
ssg83
g1585
sg76
(lp1592
S'<socket._fileobject object at 0x000000000499C8B8>'
p1593
asbasbasbag69
(g85
g71
NtRp1594
(dp1595
g74
(dp1596
sg83
g649
sg76
(lp1597
g69
(g90
g71
NtRp1598
(dp1599
g74
(dp1600
g94
g95
ssg83
g1594
sg76
(lp1601
S'wsgi_multiprocess'
p1602
asbag69
(g90
g71
NtRp1603
(dp1604
g74
(dp1605
g101
g102
ssg83
g1594
sg76
(lp1606
S':'
asbag69
(g90
g71
NtRp1607
(dp1608
g74
(dp1609
sg83
g1594
sg76
(lp1610
g69
(g70
g71
NtRp1611
(dp1612
g74
(dp1613
g82
I4
ssg83
g1607
sg76
(lp1614
g831
asbasbasbag69
(g85
g71
NtRp1615
(dp1616
g74
(dp1617
sg83
g649
sg76
(lp1618
g69
(g90
g71
NtRp1619
(dp1620
g74
(dp1621
g94
g95
ssg83
g1615
sg76
(lp1622
S'wsgi_multithread'
p1623
asbag69
(g90
g71
NtRp1624
(dp1625
g74
(dp1626
g101
g102
ssg83
g1615
sg76
(lp1627
S':'
asbag69
(g90
g71
NtRp1628
(dp1629
g74
(dp1630
sg83
g1615
sg76
(lp1631
g69
(g70
g71
NtRp1632
(dp1633
g74
(dp1634
g82
I4
ssg83
g1628
sg76
(lp1635
g112
asbasbasbag69
(g85
g71
NtRp1636
(dp1637
g74
(dp1638
sg83
g649
sg76
(lp1639
g69
(g90
g71
NtRp1640
(dp1641
g74
(dp1642
g94
g95
ssg83
g1636
sg76
(lp1643
S'wsgi_run_once'
p1644
asbag69
(g90
g71
NtRp1645
(dp1646
g74
(dp1647
g101
g102
ssg83
g1636
sg76
(lp1648
S':'
asbag69
(g90
g71
NtRp1649
(dp1650
g74
(dp1651
sg83
g1636
sg76
(lp1652
g69
(g70
g71
NtRp1653
(dp1654
g74
(dp1655
g82
I4
ssg83
g1649
sg76
(lp1656
g831
asbasbasbag69
(g85
g71
NtRp1657
(dp1658
g74
(dp1659
sg83
g649
sg76
(lp1660
g69
(g90
g71
NtRp1661
(dp1662
g74
(dp1663
g94
g95
ssg83
g1657
sg76
(lp1664
S'wsgi_url_scheme'
p1665
asbag69
(g90
g71
NtRp1666
(dp1667
g74
(dp1668
g101
g102
ssg83
g1657
sg76
(lp1669
S':'
asbag69
(g90
g71
NtRp1670
(dp1671
g74
(dp1672
sg83
g1657
sg76
(lp1673
g69
(g70
g71
NtRp1674
(dp1675
g74
(dp1676
g82
I4
ssg83
g1670
sg76
(lp1677
S'http'
p1678
asbasbasbag69
(g85
g71
NtRp1679
(dp1680
g74
(dp1681
sg83
g649
sg76
(lp1682
g69
(g90
g71
NtRp1683
(dp1684
g74
(dp1685
g94
g95
ssg83
g1679
sg76
(lp1686
S'wsgi_version'
p1687
asbag69
(g90
g71
NtRp1688
(dp1689
g74
(dp1690
g101
g102
ssg83
g1679
sg76
(lp1691
S':'
asbag69
(g90
g71
NtRp1692
(dp1693
g74
(dp1694
sg83
g1679
sg76
(lp1695
g69
(g70
g71
NtRp1696
(dp1697
g74
(dp1698
g82
I4
ssg83
g1692
sg76
(lp1699
g69
(g78
g71
NtRp1700
(dp1701
g74
(dp1702
g82
I3
ssg83
Nsg76
(lp1703
g69
(g85
g71
NtRp1704
(dp1705
g74
(dp1706
sg83
g1700
sg76
(lp1707
g69
(g90
g71
NtRp1708
(dp1709
g74
(dp1710
sg83
g1704
sg76
(lp1711
g69
(g70
g71
NtRp1712
(dp1713
g74
(dp1714
g82
I3
ssg83
g1708
sg76
(lp1715
S'1'
asbasbasbag69
(g85
g71
NtRp1716
(dp1717
g74
(dp1718
sg83
g1700
sg76
(lp1719
g69
(g90
g71
NtRp1720
(dp1721
g74
(dp1722
sg83
g1716
sg76
(lp1723
g69
(g70
g71
NtRp1724
(dp1725
g74
(dp1726
g82
I3
ssg83
g1720
sg76
(lp1727
S'0'
asbasbasbasbasbasbasbasbasbasbasbag69
(g85
g71
NtRp1728
(dp1729
g74
(dp1730
sg83
g79
sg76
(lp1731
g69
(g90
g71
NtRp1732
(dp1733
g74
(dp1734
g94
g95
ssg83
g1728
sg76
(lp1735
S'extension'
p1736
asbag69
(g90
g71
NtRp1737
(dp1738
g74
(dp1739
g101
g102
ssg83
g1728
sg76
(lp1740
S':'
asbag69
(g90
g71
NtRp1741
(dp1742
g74
(dp1743
sg83
g1728
sg76
(lp1744
g69
(g70
g71
NtRp1745
(dp1746
g74
(dp1747
g82
I5
ssg83
g1741
sg76
(lp1748
S'json'
p1749
asbasbasbag69
(g85
g71
NtRp1750
(dp1751
g74
(dp1752
sg83
g79
sg76
(lp1753
g69
(g90
g71
NtRp1754
(dp1755
g74
(dp1756
g94
g95
ssg83
g1750
sg76
(lp1757
S'folder'
p1758
asbag69
(g90
g71
NtRp1759
(dp1760
g74
(dp1761
g101
g102
ssg83
g1750
sg76
(lp1762
S':'
asbag69
(g90
g71
NtRp1763
(dp1764
g74
(dp1765
sg83
g1750
sg76
(lp1766
g69
(g70
g71
NtRp1767
(dp1768
g74
(dp1769
g82
I5
ssg83
g1763
sg76
(lp1770
S'c:\\Users\\Jorge\\Downloads\\web2py_src\\web2py\\applications\\init\\'
p1771
asbasbasbag69
(g85
g71
NtRp1772
(dp1773
g74
(dp1774
sg83
g79
sg76
(lp1775
g69
(g90
g71
NtRp1776
(dp1777
g74
(dp1778
g94
g95
ssg83
g1772
sg76
(lp1779
S'function'
p1780
asbag69
(g90
g71
NtRp1781
(dp1782
g74
(dp1783
g101
g102
ssg83
g1772
sg76
(lp1784
S':'
asbag69
(g90
g71
NtRp1785
(dp1786
g74
(dp1787
sg83
g1772
sg76
(lp1788
g69
(g70
g71
NtRp1789
(dp1790
g74
(dp1791
g82
I5
ssg83
g1785
sg76
(lp1792
S'features'
p1793
asbasbasbag69
(g85
g71
NtRp1794
(dp1795
g74
(dp1796
sg83
g79
sg76
(lp1797
g69
(g90
g71
NtRp1798
(dp1799
g74
(dp1800
g94
g95
ssg83
g1794
sg76
(lp1801
S'get_vars'
p1802
asbag69
(g90
g71
NtRp1803
(dp1804
g74
(dp1805
g101
g102
ssg83
g1794
sg76
(lp1806
S':'
asbag69
(g90
g71
NtRp1807
(dp1808
g74
(dp1809
sg83
g1794
sg76
(lp1810
g69
(g70
g71
NtRp1811
(dp1812
g74
(dp1813
g82
I5
ssg83
g1807
sg76
(lp1814
g69
(g78
g71
NtRp1815
(dp1816
g74
(dp1817
g82
I4
ssg83
Nsg76
(lp1818
sbasbasbasbag69
(g85
g71
NtRp1819
(dp1820
g74
(dp1821
sg83
g79
sg76
(lp1822
g69
(g90
g71
NtRp1823
(dp1824
g74
(dp1825
g94
g95
ssg83
g1819
sg76
(lp1826
S'global_settings'
p1827
asbag69
(g90
g71
NtRp1828
(dp1829
g74
(dp1830
g101
g102
ssg83
g1819
sg76
(lp1831
S':'
asbag69
(g90
g71
NtRp1832
(dp1833
g74
(dp1834
sg83
g1819
sg76
(lp1835
g69
(g70
g71
NtRp1836
(dp1837
g74
(dp1838
g82
I5
ssg83
g1832
sg76
(lp1839
g69
(g78
g71
NtRp1840
(dp1841
g74
(dp1842
g82
I4
ssg83
Nsg76
(lp1843
g69
(g85
g71
NtRp1844
(dp1845
g74
(dp1846
sg83
g1840
sg76
(lp1847
g69
(g90
g71
NtRp1848
(dp1849
g74
(dp1850
g94
g95
ssg83
g1844
sg76
(lp1851
g661
asbag69
(g90
g71
NtRp1852
(dp1853
g74
(dp1854
g101
g102
ssg83
g1844
sg76
(lp1855
S':'
asbag69
(g90
g71
NtRp1856
(dp1857
g74
(dp1858
sg83
g1844
sg76
(lp1859
g69
(g70
g71
NtRp1860
(dp1861
g74
(dp1862
g82
I4
ssg83
g1856
sg76
(lp1863
S"set(['c:\\\\Users\\\\Jorge\\\\Downloads\\\\web2py_src\\\\web2py\\\\applications\\\\admin\\\\', 'c:\\\\Users\\\\Jorge\\\\Downloads\\\\web2py_src\\\\web2py\\\\applications\\\\init\\\\'])"
p1864
asbasbasbag69
(g85
g71
NtRp1865
(dp1866
g74
(dp1867
sg83
g1840
sg76
(lp1868
g69
(g90
g71
NtRp1869
(dp1870
g74
(dp1871
g94
g95
ssg83
g1865
sg76
(lp1872
g683
asbag69
(g90
g71
NtRp1873
(dp1874
g74
(dp1875
g101
g102
ssg83
g1865
sg76
(lp1876
S':'
asbag69
(g90
g71
NtRp1877
(dp1878
g74
(dp1879
sg83
g1865
sg76
(lp1880
g69
(g70
g71
NtRp1881
(dp1882
g74
(dp1883
g82
I4
ssg83
g1877
sg76
(lp1884
g696
asbasbasbag69
(g85
g71
NtRp1885
(dp1886
g74
(dp1887
sg83
g1840
sg76
(lp1888
g69
(g90
g71
NtRp1889
(dp1890
g74
(dp1891
g94
g95
ssg83
g1885
sg76
(lp1892
g705
asbag69
(g90
g71
NtRp1893
(dp1894
g74
(dp1895
g101
g102
ssg83
g1885
sg76
(lp1896
S':'
asbag69
(g90
g71
NtRp1897
(dp1898
g74
(dp1899
sg83
g1885
sg76
(lp1900
g69
(g70
g71
NtRp1901
(dp1902
g74
(dp1903
g82
I4
ssg83
g1897
sg76
(lp1904
g69
(g78
g71
NtRp1905
(dp1906
g74
(dp1907
g82
I3
ssg83
Nsg76
(lp1908
sbasbasbasbag69
(g85
g71
NtRp1909
(dp1910
g74
(dp1911
sg83
g1840
sg76
(lp1912
g69
(g90
g71
NtRp1913
(dp1914
g74
(dp1915
g94
g95
ssg83
g1909
sg76
(lp1916
g730
asbag69
(g90
g71
NtRp1917
(dp1918
g74
(dp1919
g101
g102
ssg83
g1909
sg76
(lp1920
S':'
asbag69
(g90
g71
NtRp1921
(dp1922
g74
(dp1923
sg83
g1909
sg76
(lp1924
g69
(g70
g71
NtRp1925
(dp1926
g74
(dp1927
g82
I4
ssg83
g1921
sg76
(lp1928
S"<Values at 0x374e208: {'verbose': False, 'ip': '127.0.0.1', 'shutdown_timeout': 5, 'taskbar': False, 'nocron': False, 'pid_filename': 'httpserver.pid', 'maxthreads': None, 'softcron': False, 'server_name': 'Jorge-PC', 'bpython': False, 'nogui': False, 'port': 8000, 'extcron': False, 'debuglevel': 30, 'test': None, 'folder': 'c:\\\\Users\\\\Jorge\\\\Downloads\\\\web2py_src\\\\web2py', 'config': '', 'import_models': False, 'winservice': '', 'shell': None, 'run': '', 'log_filename': 'httpserver.log', 'args': [''], 'socket_timeout': 5, 'ssl_ca_certificate': None, 'scheduler': None, 'profiler_filename': None, 'ssl_private_key': '', 'password': '<ask>', 'request_queue_size': 5, 'ssl_certificate': '', 'cronjob': False, 'numthreads': None, 'quiet': False, 'interfaces': None, 'minthreads': None, 'timeout': 10, 'plain': False, 'nobanner': False}>"
p1929
asbasbasbag69
(g85
g71
NtRp1930
(dp1931
g74
(dp1932
sg83
g1840
sg76
(lp1933
g69
(g90
g71
NtRp1934
(dp1935
g74
(dp1936
g94
g95
ssg83
g1930
sg76
(lp1937
g796
asbag69
(g90
g71
NtRp1938
(dp1939
g74
(dp1940
g101
g102
ssg83
g1930
sg76
(lp1941
S':'
asbag69
(g90
g71
NtRp1942
(dp1943
g74
(dp1944
sg83
g1930
sg76
(lp1945
g69
(g70
g71
NtRp1946
(dp1947
g74
(dp1948
g82
I4
ssg83
g1942
sg76
(lp1949
S'set([])'
p1950
asbasbasbag69
(g85
g71
NtRp1951
(dp1952
g74
(dp1953
sg83
g1840
sg76
(lp1954
g69
(g90
g71
NtRp1955
(dp1956
g74
(dp1957
g94
g95
ssg83
g1951
sg76
(lp1958
g818
asbag69
(g90
g71
NtRp1959
(dp1960
g74
(dp1961
g101
g102
ssg83
g1951
sg76
(lp1962
S':'
asbag69
(g90
g71
NtRp1963
(dp1964
g74
(dp1965
sg83
g1951
sg76
(lp1966
g69
(g70
g71
NtRp1967
(dp1968
g74
(dp1969
g82
I4
ssg83
g1963
sg76
(lp1970
g831
asbasbasbag69
(g85
g71
NtRp1971
(dp1972
g74
(dp1973
sg83
g1840
sg76
(lp1974
g69
(g90
g71
NtRp1975
(dp1976
g74
(dp1977
g94
g95
ssg83
g1971
sg76
(lp1978
g840
asbag69
(g90
g71
NtRp1979
(dp1980
g74
(dp1981
g101
g102
ssg83
g1971
sg76
(lp1982
S':'
asbag69
(g90
g71
NtRp1983
(dp1984
g74
(dp1985
sg83
g1971
sg76
(lp1986
g69
(g70
g71
NtRp1987
(dp1988
g74
(dp1989
g82
I4
ssg83
g1983
sg76
(lp1990
g853
asbasbasbag69
(g85
g71
NtRp1991
(dp1992
g74
(dp1993
sg83
g1840
sg76
(lp1994
g69
(g90
g71
NtRp1995
(dp1996
g74
(dp1997
g94
g95
ssg83
g1991
sg76
(lp1998
g1146
asbag69
(g90
g71
NtRp1999
(dp2000
g74
(dp2001
g101
g102
ssg83
g1991
sg76
(lp2002
S':'
asbag69
(g90
g71
NtRp2003
(dp2004
g74
(dp2005
sg83
g1991
sg76
(lp2006
g69
(g70
g71
NtRp2007
(dp2008
g74
(dp2009
g82
I4
ssg83
g2003
sg76
(lp2010
g831
asbasbasbag69
(g85
g71
NtRp2011
(dp2012
g74
(dp2013
sg83
g1840
sg76
(lp2014
g69
(g90
g71
NtRp2015
(dp2016
g74
(dp2017
g94
g95
ssg83
g2011
sg76
(lp2018
g1167
asbag69
(g90
g71
NtRp2019
(dp2020
g74
(dp2021
g101
g102
ssg83
g2011
sg76
(lp2022
S':'
asbag69
(g90
g71
NtRp2023
(dp2024
g74
(dp2025
sg83
g2011
sg76
(lp2026
g69
(g70
g71
NtRp2027
(dp2028
g74
(dp2029
g82
I4
ssg83
g2023
sg76
(lp2030
g831
asbasbasbag69
(g85
g71
NtRp2031
(dp2032
g74
(dp2033
sg83
g1840
sg76
(lp2034
g69
(g90
g71
NtRp2035
(dp2036
g74
(dp2037
g94
g95
ssg83
g2031
sg76
(lp2038
g1405
asbag69
(g90
g71
NtRp2039
(dp2040
g74
(dp2041
g101
g102
ssg83
g2031
sg76
(lp2042
S':'
asbag69
(g90
g71
NtRp2043
(dp2044
g74
(dp2045
sg83
g2031
sg76
(lp2046
g69
(g70
g71
NtRp2047
(dp2048
g74
(dp2049
g82
I4
ssg83
g2043
sg76
(lp2050
g1418
asbasbasbag69
(g85
g71
NtRp2051
(dp2052
g74
(dp2053
sg83
g1840
sg76
(lp2054
g69
(g90
g71
NtRp2055
(dp2056
g74
(dp2057
g94
g95
ssg83
g2051
sg76
(lp2058
g1448
asbag69
(g90
g71
NtRp2059
(dp2060
g74
(dp2061
g101
g102
ssg83
g2051
sg76
(lp2062
S':'
asbag69
(g90
g71
NtRp2063
(dp2064
g74
(dp2065
sg83
g2051
sg76
(lp2066
g69
(g70
g71
NtRp2067
(dp2068
g74
(dp2069
g82
I4
ssg83
g2063
sg76
(lp2070
g69
(g78
g71
NtRp2071
(dp2072
g74
(dp2073
g82
I3
ssg83
Nsg76
(lp2074
g69
(g85
g71
NtRp2075
(dp2076
g74
(dp2077
sg83
g2071
sg76
(lp2078
g69
(g90
g71
NtRp2079
(dp2080
g74
(dp2081
sg83
g2075
sg76
(lp2082
g69
(g70
g71
NtRp2083
(dp2084
g74
(dp2085
g82
I3
ssg83
g2079
sg76
(lp2086
S'1'
asbasbasbag69
(g85
g71
NtRp2087
(dp2088
g74
(dp2089
sg83
g2071
sg76
(lp2090
g69
(g90
g71
NtRp2091
(dp2092
g74
(dp2093
sg83
g2087
sg76
(lp2094
g69
(g70
g71
NtRp2095
(dp2096
g74
(dp2097
g82
I3
ssg83
g2091
sg76
(lp2098
S'99'
p2099
asbasbasbag69
(g85
g71
NtRp2100
(dp2101
g74
(dp2102
sg83
g2071
sg76
(lp2103
g69
(g90
g71
NtRp2104
(dp2105
g74
(dp2106
sg83
g2100
sg76
(lp2107
g69
(g70
g71
NtRp2108
(dp2109
g74
(dp2110
g82
I3
ssg83
g2104
sg76
(lp2111
S'7'
asbasbasbag69
(g85
g71
NtRp2112
(dp2113
g74
(dp2114
sg83
g2071
sg76
(lp2115
g69
(g90
g71
NtRp2116
(dp2117
g74
(dp2118
sg83
g2112
sg76
(lp2119
g69
(g70
g71
NtRp2120
(dp2121
g74
(dp2122
g82
I3
ssg83
g2116
sg76
(lp2123
S'datetime.datetime(2012, 3, 4, 22, 12, 8)'
p2124
asbasbasbag69
(g85
g71
NtRp2125
(dp2126
g74
(dp2127
sg83
g2071
sg76
(lp2128
g69
(g90
g71
NtRp2129
(dp2130
g74
(dp2131
sg83
g2125
sg76
(lp2132
g69
(g70
g71
NtRp2133
(dp2134
g74
(dp2135
g82
I3
ssg83
g2129
sg76
(lp2136
g1527
asbasbasbasbasbasbasbasbasbasbasbag69
(g85
g71
NtRp2137
(dp2138
g74
(dp2139
sg83
g79
sg76
(lp2140
g69
(g90
g71
NtRp2141
(dp2142
g74
(dp2143
g94
g95
ssg83
g2137
sg76
(lp2144
S'is_https'
p2145
asbag69
(g90
g71
NtRp2146
(dp2147
g74
(dp2148
g101
g102
ssg83
g2137
sg76
(lp2149
S':'
asbag69
(g90
g71
NtRp2150
(dp2151
g74
(dp2152
sg83
g2137
sg76
(lp2153
g69
(g70
g71
NtRp2154
(dp2155
g74
(dp2156
g82
I5
ssg83
g2150
sg76
(lp2157
g831
asbasbasbag69
(g85
g71
NtRp2158
(dp2159
g74
(dp2160
sg83
g79
sg76
(lp2161
g69
(g90
g71
NtRp2162
(dp2163
g74
(dp2164
g94
g95
ssg83
g2158
sg76
(lp2165
S'is_local'
p2166
asbag69
(g90
g71
NtRp2167
(dp2168
g74
(dp2169
g101
g102
ssg83
g2158
sg76
(lp2170
S':'
asbag69
(g90
g71
NtRp2171
(dp2172
g74
(dp2173
sg83
g2158
sg76
(lp2174
g69
(g70
g71
NtRp2175
(dp2176
g74
(dp2177
g82
I5
ssg83
g2171
sg76
(lp2178
g112
asbasbasbag69
(g85
g71
NtRp2179
(dp2180
g74
(dp2181
sg83
g79
sg76
(lp2182
g69
(g90
g71
NtRp2183
(dp2184
g74
(dp2185
g94
g95
ssg83
g2179
sg76
(lp2186
S'is_restful'
p2187
asbag69
(g90
g71
NtRp2188
(dp2189
g74
(dp2190
g101
g102
ssg83
g2179
sg76
(lp2191
S':'
asbag69
(g90
g71
NtRp2192
(dp2193
g74
(dp2194
sg83
g2179
sg76
(lp2195
g69
(g70
g71
NtRp2196
(dp2197
g74
(dp2198
g82
I5
ssg83
g2192
sg76
(lp2199
g831
asbasbasbag69
(g85
g71
NtRp2200
(dp2201
g74
(dp2202
sg83
g79
sg76
(lp2203
g69
(g90
g71
NtRp2204
(dp2205
g74
(dp2206
g94
g95
ssg83
g2200
sg76
(lp2207
S'now'
p2208
asbag69
(g90
g71
NtRp2209
(dp2210
g74
(dp2211
g101
g102
ssg83
g2200
sg76
(lp2212
S':'
asbag69
(g90
g71
NtRp2213
(dp2214
g74
(dp2215
sg83
g2200
sg76
(lp2216
g69
(g70
g71
NtRp2217
(dp2218
g74
(dp2219
g82
I5
ssg83
g2213
sg76
(lp2220
S'datetime.datetime(2012, 4, 30, 22, 36, 37, 445000)'
p2221
asbasbasbag69
(g85
g71
NtRp2222
(dp2223
g74
(dp2224
sg83
g79
sg76
(lp2225
g69
(g90
g71
NtRp2226
(dp2227
g74
(dp2228
g94
g95
ssg83
g2222
sg76
(lp2229
S'post_vars'
p2230
asbag69
(g90
g71
NtRp2231
(dp2232
g74
(dp2233
g101
g102
ssg83
g2222
sg76
(lp2234
S':'
asbag69
(g90
g71
NtRp2235
(dp2236
g74
(dp2237
sg83
g2222
sg76
(lp2238
g69
(g70
g71
NtRp2239
(dp2240
g74
(dp2241
g82
I5
ssg83
g2235
sg76
(lp2242
g69
(g78
g71
NtRp2243
(dp2244
g74
(dp2245
g82
I4
ssg83
Nsg76
(lp2246
g69
(g85
g71
NtRp2247
(dp2248
g74
(dp2249
sg83
g2243
sg76
(lp2250
g69
(g90
g71
NtRp2251
(dp2252
g74
(dp2253
g94
g95
ssg83
g2247
sg76
(lp2254
S'find'
p2255
asbag69
(g90
g71
NtRp2256
(dp2257
g74
(dp2258
g101
g102
ssg83
g2247
sg76
(lp2259
S':'
asbag69
(g90
g71
NtRp2260
(dp2261
g74
(dp2262
sg83
g2247
sg76
(lp2263
g69
(g70
g71
NtRp2264
(dp2265
g74
(dp2266
g82
I4
ssg83
g2260
sg76
(lp2267
S''
asbasbasbag69
(g85
g71
NtRp2268
(dp2269
g74
(dp2270
sg83
g2243
sg76
(lp2271
g69
(g90
g71
NtRp2272
(dp2273
g74
(dp2274
g94
g95
ssg83
g2268
sg76
(lp2275
S'page'
p2276
asbag69
(g90
g71
NtRp2277
(dp2278
g74
(dp2279
g101
g102
ssg83
g2268
sg76
(lp2280
S':'
asbag69
(g90
g71
NtRp2281
(dp2282
g74
(dp2283
sg83
g2268
sg76
(lp2284
g69
(g70
g71
NtRp2285
(dp2286
g74
(dp2287
g82
I4
ssg83
g2281
sg76
(lp2288
S'1'
asbasbasbag69
(g85
g71
NtRp2289
(dp2290
g74
(dp2291
sg83
g2243
sg76
(lp2292
g69
(g90
g71
NtRp2293
(dp2294
g74
(dp2295
g94
g95
ssg83
g2289
sg76
(lp2296
S'rows'
p2297
asbag69
(g90
g71
NtRp2298
(dp2299
g74
(dp2300
g101
g102
ssg83
g2289
sg76
(lp2301
S':'
asbag69
(g90
g71
NtRp2302
(dp2303
g74
(dp2304
sg83
g2289
sg76
(lp2305
g69
(g70
g71
NtRp2306
(dp2307
g74
(dp2308
g82
I4
ssg83
g2302
sg76
(lp2309
S'5'
asbasbasbag69
(g85
g71
NtRp2310
(dp2311
g74
(dp2312
sg83
g2243
sg76
(lp2313
g69
(g90
g71
NtRp2314
(dp2315
g74
(dp2316
g94
g95
ssg83
g2310
sg76
(lp2317
S'search'
p2318
asbag69
(g90
g71
NtRp2319
(dp2320
g74
(dp2321
g101
g102
ssg83
g2310
sg76
(lp2322
S':'
asbag69
(g90
g71
NtRp2323
(dp2324
g74
(dp2325
sg83
g2310
sg76
(lp2326
g69
(g70
g71
NtRp2327
(dp2328
g74
(dp2329
g82
I4
ssg83
g2323
sg76
(lp2330
S''
asbasbasbag69
(g85
g71
NtRp2331
(dp2332
g74
(dp2333
sg83
g2243
sg76
(lp2334
g69
(g90
g71
NtRp2335
(dp2336
g74
(dp2337
g94
g95
ssg83
g2331
sg76
(lp2338
S'searchBy'
p2339
asbag69
(g90
g71
NtRp2340
(dp2341
g74
(dp2342
g101
g102
ssg83
g2331
sg76
(lp2343
S':'
asbag69
(g90
g71
NtRp2344
(dp2345
g74
(dp2346
sg83
g2331
sg76
(lp2347
g69
(g70
g71
NtRp2348
(dp2349
g74
(dp2350
g82
I4
ssg83
g2344
sg76
(lp2351
S'like'
p2352
asbasbasbag69
(g85
g71
NtRp2353
(dp2354
g74
(dp2355
sg83
g2243
sg76
(lp2356
g69
(g90
g71
NtRp2357
(dp2358
g74
(dp2359
g94
g95
ssg83
g2353
sg76
(lp2360
S'sortName'
p2361
asbag69
(g90
g71
NtRp2362
(dp2363
g74
(dp2364
g101
g102
ssg83
g2353
sg76
(lp2365
S':'
asbag69
(g90
g71
NtRp2366
(dp2367
g74
(dp2368
sg83
g2353
sg76
(lp2369
g69
(g70
g71
NtRp2370
(dp2371
g74
(dp2372
g82
I4
ssg83
g2366
sg76
(lp2373
S''
asbasbasbag69
(g85
g71
NtRp2374
(dp2375
g74
(dp2376
sg83
g2243
sg76
(lp2377
g69
(g90
g71
NtRp2378
(dp2379
g74
(dp2380
g94
g95
ssg83
g2374
sg76
(lp2381
S'sortOrder'
p2382
asbag69
(g90
g71
NtRp2383
(dp2384
g74
(dp2385
g101
g102
ssg83
g2374
sg76
(lp2386
S':'
asbag69
(g90
g71
NtRp2387
(dp2388
g74
(dp2389
sg83
g2374
sg76
(lp2390
g69
(g70
g71
NtRp2391
(dp2392
g74
(dp2393
g82
I4
ssg83
g2387
sg76
(lp2394
S'asc'
p2395
asbasbasbasbasbasbasbag69
(g85
g71
NtRp2396
(dp2397
g74
(dp2398
sg83
g79
sg76
(lp2399
g69
(g90
g71
NtRp2400
(dp2401
g74
(dp2402
g94
g95
ssg83
g2396
sg76
(lp2403
S'raw_extension'
p2404
asbag69
(g90
g71
NtRp2405
(dp2406
g74
(dp2407
g101
g102
ssg83
g2396
sg76
(lp2408
S':'
asbag69
(g90
g71
NtRp2409
(dp2410
g74
(dp2411
sg83
g2396
sg76
(lp2412
g69
(g70
g71
NtRp2413
(dp2414
g74
(dp2415
g82
I5
ssg83
g2409
sg76
(lp2416
g1749
asbasbasbag69
(g85
g71
NtRp2417
(dp2418
g74
(dp2419
sg83
g79
sg76
(lp2420
g69
(g90
g71
NtRp2421
(dp2422
g74
(dp2423
g94
g95
ssg83
g2417
sg76
(lp2424
S'url'
p2425
asbag69
(g90
g71
NtRp2426
(dp2427
g74
(dp2428
g101
g102
ssg83
g2417
sg76
(lp2429
S':'
asbag69
(g90
g71
NtRp2430
(dp2431
g74
(dp2432
sg83
g2417
sg76
(lp2433
g69
(g70
g71
NtRp2434
(dp2435
g74
(dp2436
g82
I5
ssg83
g2430
sg76
(lp2437
S'/init/default/features.json'
p2438
asbasbasbag69
(g85
g71
NtRp2439
(dp2440
g74
(dp2441
sg83
g79
sg76
(lp2442
g69
(g90
g71
NtRp2443
(dp2444
g74
(dp2445
g94
g95
ssg83
g2439
sg76
(lp2446
S'utcnow'
p2447
asbag69
(g90
g71
NtRp2448
(dp2449
g74
(dp2450
g101
g102
ssg83
g2439
sg76
(lp2451
S':'
asbag69
(g90
g71
NtRp2452
(dp2453
g74
(dp2454
sg83
g2439
sg76
(lp2455
g69
(g70
g71
NtRp2456
(dp2457
g74
(dp2458
g82
I5
ssg83
g2452
sg76
(lp2459
S'datetime.datetime(2012, 5, 1, 1, 36, 37, 445000)'
p2460
asbasbasbag69
(g85
g71
NtRp2461
(dp2462
g74
(dp2463
sg83
g79
sg76
(lp2464
g69
(g90
g71
NtRp2465
(dp2466
g74
(dp2467
g94
g95
ssg83
g2461
sg76
(lp2468
S'uuid'
p2469
asbag69
(g90
g71
NtRp2470
(dp2471
g74
(dp2472
g101
g102
ssg83
g2461
sg76
(lp2473
S':'
asbag69
(g90
g71
NtRp2474
(dp2475
g74
(dp2476
sg83
g2461
sg76
(lp2477
g69
(g70
g71
NtRp2478
(dp2479
g74
(dp2480
g82
I5
ssg83
g2474
sg76
(lp2481
S'init/127.0.0.1.2012-04-30.22-36-37.d060a142-75e1-4dcc-a3b4-d036eb156ab4'
p2482
asbasbasbag69
(g85
g71
NtRp2483
(dp2484
g74
(dp2485
sg83
g79
sg76
(lp2486
g69
(g90
g71
NtRp2487
(dp2488
g74
(dp2489
g94
g95
ssg83
g2483
sg76
(lp2490
S'vars'
p2491
asbag69
(g90
g71
NtRp2492
(dp2493
g74
(dp2494
g101
g102
ssg83
g2483
sg76
(lp2495
S':'
asbag69
(g90
g71
NtRp2496
(dp2497
g74
(dp2498
sg83
g2483
sg76
(lp2499
g69
(g70
g71
NtRp2500
(dp2501
g74
(dp2502
g82
I5
ssg83
g2496
sg76
(lp2503
g69
(g78
g71
NtRp2504
(dp2505
g74
(dp2506
g82
I4
ssg83
Nsg76
(lp2507
g69
(g85
g71
NtRp2508
(dp2509
g74
(dp2510
sg83
g2504
sg76
(lp2511
g69
(g90
g71
NtRp2512
(dp2513
g74
(dp2514
g94
g95
ssg83
g2508
sg76
(lp2515
g2255
asbag69
(g90
g71
NtRp2516
(dp2517
g74
(dp2518
g101
g102
ssg83
g2508
sg76
(lp2519
S':'
asbag69
(g90
g71
NtRp2520
(dp2521
g74
(dp2522
sg83
g2508
sg76
(lp2523
g69
(g70
g71
NtRp2524
(dp2525
g74
(dp2526
g82
I4
ssg83
g2520
sg76
(lp2527
S''
asbasbasbag69
(g85
g71
NtRp2528
(dp2529
g74
(dp2530
sg83
g2504
sg76
(lp2531
g69
(g90
g71
NtRp2532
(dp2533
g74
(dp2534
g94
g95
ssg83
g2528
sg76
(lp2535
g2276
asbag69
(g90
g71
NtRp2536
(dp2537
g74
(dp2538
g101
g102
ssg83
g2528
sg76
(lp2539
S':'
asbag69
(g90
g71
NtRp2540
(dp2541
g74
(dp2542
sg83
g2528
sg76
(lp2543
g69
(g70
g71
NtRp2544
(dp2545
g74
(dp2546
g82
I4
ssg83
g2540
sg76
(lp2547
S'1'
asbasbasbag69
(g85
g71
NtRp2548
(dp2549
g74
(dp2550
sg83
g2504
sg76
(lp2551
g69
(g90
g71
NtRp2552
(dp2553
g74
(dp2554
g94
g95
ssg83
g2548
sg76
(lp2555
g2297
asbag69
(g90
g71
NtRp2556
(dp2557
g74
(dp2558
g101
g102
ssg83
g2548
sg76
(lp2559
S':'
asbag69
(g90
g71
NtRp2560
(dp2561
g74
(dp2562
sg83
g2548
sg76
(lp2563
g69
(g70
g71
NtRp2564
(dp2565
g74
(dp2566
g82
I4
ssg83
g2560
sg76
(lp2567
S'5'
asbasbasbag69
(g85
g71
NtRp2568
(dp2569
g74
(dp2570
sg83
g2504
sg76
(lp2571
g69
(g90
g71
NtRp2572
(dp2573
g74
(dp2574
g94
g95
ssg83
g2568
sg76
(lp2575
g2318
asbag69
(g90
g71
NtRp2576
(dp2577
g74
(dp2578
g101
g102
ssg83
g2568
sg76
(lp2579
S':'
asbag69
(g90
g71
NtRp2580
(dp2581
g74
(dp2582
sg83
g2568
sg76
(lp2583
g69
(g70
g71
NtRp2584
(dp2585
g74
(dp2586
g82
I4
ssg83
g2580
sg76
(lp2587
S''
asbasbasbag69
(g85
g71
NtRp2588
(dp2589
g74
(dp2590
sg83
g2504
sg76
(lp2591
g69
(g90
g71
NtRp2592
(dp2593
g74
(dp2594
g94
g95
ssg83
g2588
sg76
(lp2595
g2339
asbag69
(g90
g71
NtRp2596
(dp2597
g74
(dp2598
g101
g102
ssg83
g2588
sg76
(lp2599
S':'
asbag69
(g90
g71
NtRp2600
(dp2601
g74
(dp2602
sg83
g2588
sg76
(lp2603
g69
(g70
g71
NtRp2604
(dp2605
g74
(dp2606
g82
I4
ssg83
g2600
sg76
(lp2607
g2352
asbasbasbag69
(g85
g71
NtRp2608
(dp2609
g74
(dp2610
sg83
g2504
sg76
(lp2611
g69
(g90
g71
NtRp2612
(dp2613
g74
(dp2614
g94
g95
ssg83
g2608
sg76
(lp2615
g2361
asbag69
(g90
g71
NtRp2616
(dp2617
g74
(dp2618
g101
g102
ssg83
g2608
sg76
(lp2619
S':'
asbag69
(g90
g71
NtRp2620
(dp2621
g74
(dp2622
sg83
g2608
sg76
(lp2623
g69
(g70
g71
NtRp2624
(dp2625
g74
(dp2626
g82
I4
ssg83
g2620
sg76
(lp2627
S''
asbasbasbag69
(g85
g71
NtRp2628
(dp2629
g74
(dp2630
sg83
g2504
sg76
(lp2631
g69
(g90
g71
NtRp2632
(dp2633
g74
(dp2634
g94
g95
ssg83
g2628
sg76
(lp2635
g2382
asbag69
(g90
g71
NtRp2636
(dp2637
g74
(dp2638
g101
g102
ssg83
g2628
sg76
(lp2639
S':'
asbag69
(g90
g71
NtRp2640
(dp2641
g74
(dp2642
sg83
g2628
sg76
(lp2643
g69
(g70
g71
NtRp2644
(dp2645
g74
(dp2646
g82
I4
ssg83
g2640
sg76
(lp2647
g2395
asbasbasbasbasbasbasbag69
(g85
g71
NtRp2648
(dp2649
g74
(dp2650
sg83
g79
sg76
(lp2651
g69
(g90
g71
NtRp2652
(dp2653
g74
(dp2654
g94
g95
ssg83
g2648
sg76
(lp2655
S'wsgi'
p2656
asbag69
(g90
g71
NtRp2657
(dp2658
g74
(dp2659
g101
g102
ssg83
g2648
sg76
(lp2660
S':'
asbag69
(g90
g71
NtRp2661
(dp2662
g74
(dp2663
sg83
g2648
sg76
(lp2664
g69
(g70
g71
NtRp2665
(dp2666
g74
(dp2667
g82
I5
ssg83
g2661
sg76
(lp2668
g69
(g78
g71
NtRp2669
(dp2670
g74
(dp2671
g82
I4
ssg83
Nsg76
(lp2672
g69
(g85
g71
NtRp2673
(dp2674
g74
(dp2675
sg83
g2669
sg76
(lp2676
g69
(g90
g71
NtRp2677
(dp2678
g74
(dp2679
g94
g95
ssg83
g2673
sg76
(lp2680
S'environ'
p2681
asbag69
(g90
g71
NtRp2682
(dp2683
g74
(dp2684
g101
g102
ssg83
g2673
sg76
(lp2685
S':'
asbag69
(g90
g71
NtRp2686
(dp2687
g74
(dp2688
sg83
g2673
sg76
(lp2689
g69
(g70
g71
NtRp2690
(dp2691
g74
(dp2692
g82
I4
ssg83
g2686
sg76
(lp2693
g69
(g78
g71
NtRp2694
(dp2695
g74
(dp2696
g82
I3
ssg83
Nsg76
(lp2697
g69
(g85
g71
NtRp2698
(dp2699
g74
(dp2700
sg83
g2694
sg76
(lp2701
g69
(g90
g71
NtRp2702
(dp2703
g74
(dp2704
g94
g95
ssg83
g2698
sg76
(lp2705
S'CONTENT_LENGTH'
p2706
asbag69
(g90
g71
NtRp2707
(dp2708
g74
(dp2709
g101
g102
ssg83
g2698
sg76
(lp2710
S':'
asbag69
(g90
g71
NtRp2711
(dp2712
g74
(dp2713
sg83
g2698
sg76
(lp2714
g69
(g70
g71
NtRp2715
(dp2716
g74
(dp2717
g82
I3
ssg83
g2711
sg76
(lp2718
g765
asbasbasbag69
(g85
g71
NtRp2719
(dp2720
g74
(dp2721
sg83
g2694
sg76
(lp2722
g69
(g90
g71
NtRp2723
(dp2724
g74
(dp2725
g94
g95
ssg83
g2719
sg76
(lp2726
S'CONTENT_TYPE'
p2727
asbag69
(g90
g71
NtRp2728
(dp2729
g74
(dp2730
g101
g102
ssg83
g2719
sg76
(lp2731
S':'
asbag69
(g90
g71
NtRp2732
(dp2733
g74
(dp2734
sg83
g2719
sg76
(lp2735
g69
(g70
g71
NtRp2736
(dp2737
g74
(dp2738
g82
I3
ssg83
g2732
sg76
(lp2739
g787
asbasbasbag69
(g85
g71
NtRp2740
(dp2741
g74
(dp2742
sg83
g2694
sg76
(lp2743
g69
(g90
g71
NtRp2744
(dp2745
g74
(dp2746
g94
g95
ssg83
g2740
sg76
(lp2747
S'HTTP_ACCEPT'
p2748
asbag69
(g90
g71
NtRp2749
(dp2750
g74
(dp2751
g101
g102
ssg83
g2740
sg76
(lp2752
S':'
asbag69
(g90
g71
NtRp2753
(dp2754
g74
(dp2755
sg83
g2740
sg76
(lp2756
g69
(g70
g71
NtRp2757
(dp2758
g74
(dp2759
g82
I3
ssg83
g2753
sg76
(lp2760
g875
asbasbasbag69
(g85
g71
NtRp2761
(dp2762
g74
(dp2763
sg83
g2694
sg76
(lp2764
g69
(g90
g71
NtRp2765
(dp2766
g74
(dp2767
g94
g95
ssg83
g2761
sg76
(lp2768
S'HTTP_ACCEPT_ENCODING'
p2769
asbag69
(g90
g71
NtRp2770
(dp2771
g74
(dp2772
g101
g102
ssg83
g2761
sg76
(lp2773
S':'
asbag69
(g90
g71
NtRp2774
(dp2775
g74
(dp2776
sg83
g2761
sg76
(lp2777
g69
(g70
g71
NtRp2778
(dp2779
g74
(dp2780
g82
I3
ssg83
g2774
sg76
(lp2781
g897
asbasbasbag69
(g85
g71
NtRp2782
(dp2783
g74
(dp2784
sg83
g2694
sg76
(lp2785
g69
(g90
g71
NtRp2786
(dp2787
g74
(dp2788
g94
g95
ssg83
g2782
sg76
(lp2789
S'HTTP_ACCEPT_LANGUAGE'
p2790
asbag69
(g90
g71
NtRp2791
(dp2792
g74
(dp2793
g101
g102
ssg83
g2782
sg76
(lp2794
S':'
asbag69
(g90
g71
NtRp2795
(dp2796
g74
(dp2797
sg83
g2782
sg76
(lp2798
g69
(g70
g71
NtRp2799
(dp2800
g74
(dp2801
g82
I3
ssg83
g2795
sg76
(lp2802
g919
asbasbasbag69
(g85
g71
NtRp2803
(dp2804
g74
(dp2805
sg83
g2694
sg76
(lp2806
g69
(g90
g71
NtRp2807
(dp2808
g74
(dp2809
g94
g95
ssg83
g2803
sg76
(lp2810
S'HTTP_CACHE_CONTROL'
p2811
asbag69
(g90
g71
NtRp2812
(dp2813
g74
(dp2814
g101
g102
ssg83
g2803
sg76
(lp2815
S':'
asbag69
(g90
g71
NtRp2816
(dp2817
g74
(dp2818
sg83
g2803
sg76
(lp2819
g69
(g70
g71
NtRp2820
(dp2821
g74
(dp2822
g82
I3
ssg83
g2816
sg76
(lp2823
g941
asbasbasbag69
(g85
g71
NtRp2824
(dp2825
g74
(dp2826
sg83
g2694
sg76
(lp2827
g69
(g90
g71
NtRp2828
(dp2829
g74
(dp2830
g94
g95
ssg83
g2824
sg76
(lp2831
S'HTTP_CONNECTION'
p2832
asbag69
(g90
g71
NtRp2833
(dp2834
g74
(dp2835
g101
g102
ssg83
g2824
sg76
(lp2836
S':'
asbag69
(g90
g71
NtRp2837
(dp2838
g74
(dp2839
sg83
g2824
sg76
(lp2840
g69
(g70
g71
NtRp2841
(dp2842
g74
(dp2843
g82
I3
ssg83
g2837
sg76
(lp2844
g963
asbasbasbag69
(g85
g71
NtRp2845
(dp2846
g74
(dp2847
sg83
g2694
sg76
(lp2848
g69
(g90
g71
NtRp2849
(dp2850
g74
(dp2851
g94
g95
ssg83
g2845
sg76
(lp2852
S'HTTP_CONTENT_LENGTH'
p2853
asbag69
(g90
g71
NtRp2854
(dp2855
g74
(dp2856
g101
g102
ssg83
g2845
sg76
(lp2857
S':'
asbag69
(g90
g71
NtRp2858
(dp2859
g74
(dp2860
sg83
g2845
sg76
(lp2861
g69
(g70
g71
NtRp2862
(dp2863
g74
(dp2864
g82
I3
ssg83
g2858
sg76
(lp2865
g765
asbasbasbag69
(g85
g71
NtRp2866
(dp2867
g74
(dp2868
sg83
g2694
sg76
(lp2869
g69
(g90
g71
NtRp2870
(dp2871
g74
(dp2872
g94
g95
ssg83
g2866
sg76
(lp2873
S'HTTP_CONTENT_TYPE'
p2874
asbag69
(g90
g71
NtRp2875
(dp2876
g74
(dp2877
g101
g102
ssg83
g2866
sg76
(lp2878
S':'
asbag69
(g90
g71
NtRp2879
(dp2880
g74
(dp2881
sg83
g2866
sg76
(lp2882
g69
(g70
g71
NtRp2883
(dp2884
g74
(dp2885
g82
I3
ssg83
g2879
sg76
(lp2886
g787
asbasbasbag69
(g85
g71
NtRp2887
(dp2888
g74
(dp2889
sg83
g2694
sg76
(lp2890
g69
(g90
g71
NtRp2891
(dp2892
g74
(dp2893
g94
g95
ssg83
g2887
sg76
(lp2894
S'HTTP_COOKIE'
p2895
asbag69
(g90
g71
NtRp2896
(dp2897
g74
(dp2898
g101
g102
ssg83
g2887
sg76
(lp2899
S':'
asbag69
(g90
g71
NtRp2900
(dp2901
g74
(dp2902
sg83
g2887
sg76
(lp2903
g69
(g70
g71
NtRp2904
(dp2905
g74
(dp2906
g82
I3
ssg83
g2900
sg76
(lp2907
g1027
asbasbasbag69
(g85
g71
NtRp2908
(dp2909
g74
(dp2910
sg83
g2694
sg76
(lp2911
g69
(g90
g71
NtRp2912
(dp2913
g74
(dp2914
g94
g95
ssg83
g2908
sg76
(lp2915
S'HTTP_HOST'
p2916
asbag69
(g90
g71
NtRp2917
(dp2918
g74
(dp2919
g101
g102
ssg83
g2908
sg76
(lp2920
S':'
asbag69
(g90
g71
NtRp2921
(dp2922
g74
(dp2923
sg83
g2908
sg76
(lp2924
g69
(g70
g71
NtRp2925
(dp2926
g74
(dp2927
g82
I3
ssg83
g2921
sg76
(lp2928
g1049
asbasbasbag69
(g85
g71
NtRp2929
(dp2930
g74
(dp2931
sg83
g2694
sg76
(lp2932
g69
(g90
g71
NtRp2933
(dp2934
g74
(dp2935
g94
g95
ssg83
g2929
sg76
(lp2936
S'HTTP_PRAGMA'
p2937
asbag69
(g90
g71
NtRp2938
(dp2939
g74
(dp2940
g101
g102
ssg83
g2929
sg76
(lp2941
S':'
asbag69
(g90
g71
NtRp2942
(dp2943
g74
(dp2944
sg83
g2929
sg76
(lp2945
g69
(g70
g71
NtRp2946
(dp2947
g74
(dp2948
g82
I3
ssg83
g2942
sg76
(lp2949
g1071
asbasbasbag69
(g85
g71
NtRp2950
(dp2951
g74
(dp2952
sg83
g2694
sg76
(lp2953
g69
(g90
g71
NtRp2954
(dp2955
g74
(dp2956
g94
g95
ssg83
g2950
sg76
(lp2957
S'HTTP_REFERER'
p2958
asbag69
(g90
g71
NtRp2959
(dp2960
g74
(dp2961
g101
g102
ssg83
g2950
sg76
(lp2962
S':'
asbag69
(g90
g71
NtRp2963
(dp2964
g74
(dp2965
sg83
g2950
sg76
(lp2966
g69
(g70
g71
NtRp2967
(dp2968
g74
(dp2969
g82
I3
ssg83
g2963
sg76
(lp2970
g1093
asbasbasbag69
(g85
g71
NtRp2971
(dp2972
g74
(dp2973
sg83
g2694
sg76
(lp2974
g69
(g90
g71
NtRp2975
(dp2976
g74
(dp2977
g94
g95
ssg83
g2971
sg76
(lp2978
S'HTTP_USER_AGENT'
p2979
asbag69
(g90
g71
NtRp2980
(dp2981
g74
(dp2982
g101
g102
ssg83
g2971
sg76
(lp2983
S':'
asbag69
(g90
g71
NtRp2984
(dp2985
g74
(dp2986
sg83
g2971
sg76
(lp2987
g69
(g70
g71
NtRp2988
(dp2989
g74
(dp2990
g82
I3
ssg83
g2984
sg76
(lp2991
g1115
asbasbasbag69
(g85
g71
NtRp2992
(dp2993
g74
(dp2994
sg83
g2694
sg76
(lp2995
g69
(g90
g71
NtRp2996
(dp2997
g74
(dp2998
g94
g95
ssg83
g2992
sg76
(lp2999
S'HTTP_X_REQUESTED_WITH'
p3000
asbag69
(g90
g71
NtRp3001
(dp3002
g74
(dp3003
g101
g102
ssg83
g2992
sg76
(lp3004
S':'
asbag69
(g90
g71
NtRp3005
(dp3006
g74
(dp3007
sg83
g2992
sg76
(lp3008
g69
(g70
g71
NtRp3009
(dp3010
g74
(dp3011
g82
I3
ssg83
g3005
sg76
(lp3012
g1137
asbasbasbag69
(g85
g71
NtRp3013
(dp3014
g74
(dp3015
sg83
g2694
sg76
(lp3016
g69
(g90
g71
NtRp3017
(dp3018
g74
(dp3019
g94
g95
ssg83
g3013
sg76
(lp3020
S'PATH_INFO'
p3021
asbag69
(g90
g71
NtRp3022
(dp3023
g74
(dp3024
g101
g102
ssg83
g3013
sg76
(lp3025
S':'
asbag69
(g90
g71
NtRp3026
(dp3027
g74
(dp3028
sg83
g3013
sg76
(lp3029
g69
(g70
g71
NtRp3030
(dp3031
g74
(dp3032
g82
I3
ssg83
g3026
sg76
(lp3033
g1201
asbasbasbag69
(g85
g71
NtRp3034
(dp3035
g74
(dp3036
sg83
g2694
sg76
(lp3037
g69
(g90
g71
NtRp3038
(dp3039
g74
(dp3040
g94
g95
ssg83
g3034
sg76
(lp3041
S'QUERY_STRING'
p3042
asbag69
(g90
g71
NtRp3043
(dp3044
g74
(dp3045
g101
g102
ssg83
g3034
sg76
(lp3046
S':'
asbag69
(g90
g71
NtRp3047
(dp3048
g74
(dp3049
sg83
g3034
sg76
(lp3050
g69
(g70
g71
NtRp3051
(dp3052
g74
(dp3053
g82
I3
ssg83
g3047
sg76
(lp3054
S''
asbasbasbag69
(g85
g71
NtRp3055
(dp3056
g74
(dp3057
sg83
g2694
sg76
(lp3058
g69
(g90
g71
NtRp3059
(dp3060
g74
(dp3061
g94
g95
ssg83
g3055
sg76
(lp3062
S'REMOTE_ADDR'
p3063
asbag69
(g90
g71
NtRp3064
(dp3065
g74
(dp3066
g101
g102
ssg83
g3055
sg76
(lp3067
S':'
asbag69
(g90
g71
NtRp3068
(dp3069
g74
(dp3070
sg83
g3055
sg76
(lp3071
g69
(g70
g71
NtRp3072
(dp3073
g74
(dp3074
g82
I3
ssg83
g3068
sg76
(lp3075
g202
asbasbasbag69
(g85
g71
NtRp3076
(dp3077
g74
(dp3078
sg83
g2694
sg76
(lp3079
g69
(g90
g71
NtRp3080
(dp3081
g74
(dp3082
g94
g95
ssg83
g3076
sg76
(lp3083
S'REMOTE_PORT'
p3084
asbag69
(g90
g71
NtRp3085
(dp3086
g74
(dp3087
g101
g102
ssg83
g3076
sg76
(lp3088
S':'
asbag69
(g90
g71
NtRp3089
(dp3090
g74
(dp3091
sg83
g3076
sg76
(lp3092
g69
(g70
g71
NtRp3093
(dp3094
g74
(dp3095
g82
I3
ssg83
g3089
sg76
(lp3096
g1265
asbasbasbag69
(g85
g71
NtRp3097
(dp3098
g74
(dp3099
sg83
g2694
sg76
(lp3100
g69
(g90
g71
NtRp3101
(dp3102
g74
(dp3103
g94
g95
ssg83
g3097
sg76
(lp3104
S'REQUEST_METHOD'
p3105
asbag69
(g90
g71
NtRp3106
(dp3107
g74
(dp3108
g101
g102
ssg83
g3097
sg76
(lp3109
S':'
asbag69
(g90
g71
NtRp3110
(dp3111
g74
(dp3112
sg83
g3097
sg76
(lp3113
g69
(g70
g71
NtRp3114
(dp3115
g74
(dp3116
g82
I3
ssg83
g3110
sg76
(lp3117
g1287
asbasbasbag69
(g85
g71
NtRp3118
(dp3119
g74
(dp3120
sg83
g2694
sg76
(lp3121
g69
(g90
g71
NtRp3122
(dp3123
g74
(dp3124
g94
g95
ssg83
g3118
sg76
(lp3125
S'SCRIPT_NAME'
p3126
asbag69
(g90
g71
NtRp3127
(dp3128
g74
(dp3129
g101
g102
ssg83
g3118
sg76
(lp3130
S':'
asbag69
(g90
g71
NtRp3131
(dp3132
g74
(dp3133
sg83
g3118
sg76
(lp3134
g69
(g70
g71
NtRp3135
(dp3136
g74
(dp3137
g82
I3
ssg83
g3131
sg76
(lp3138
S''
asbasbasbag69
(g85
g71
NtRp3139
(dp3140
g74
(dp3141
sg83
g2694
sg76
(lp3142
g69
(g90
g71
NtRp3143
(dp3144
g74
(dp3145
g94
g95
ssg83
g3139
sg76
(lp3146
S'SERVER_NAME'
p3147
asbag69
(g90
g71
NtRp3148
(dp3149
g74
(dp3150
g101
g102
ssg83
g3139
sg76
(lp3151
S':'
asbag69
(g90
g71
NtRp3152
(dp3153
g74
(dp3154
sg83
g3139
sg76
(lp3155
g69
(g70
g71
NtRp3156
(dp3157
g74
(dp3158
g82
I3
ssg83
g3152
sg76
(lp3159
g1330
asbasbasbag69
(g85
g71
NtRp3160
(dp3161
g74
(dp3162
sg83
g2694
sg76
(lp3163
g69
(g90
g71
NtRp3164
(dp3165
g74
(dp3166
g94
g95
ssg83
g3160
sg76
(lp3167
S'SERVER_PORT'
p3168
asbag69
(g90
g71
NtRp3169
(dp3170
g74
(dp3171
g101
g102
ssg83
g3160
sg76
(lp3172
S':'
asbag69
(g90
g71
NtRp3173
(dp3174
g74
(dp3175
sg83
g3160
sg76
(lp3176
g69
(g70
g71
NtRp3177
(dp3178
g74
(dp3179
g82
I3
ssg83
g3173
sg76
(lp3180
g1352
asbasbasbag69
(g85
g71
NtRp3181
(dp3182
g74
(dp3183
sg83
g2694
sg76
(lp3184
g69
(g90
g71
NtRp3185
(dp3186
g74
(dp3187
g94
g95
ssg83
g3181
sg76
(lp3188
S'SERVER_PROTOCOL'
p3189
asbag69
(g90
g71
NtRp3190
(dp3191
g74
(dp3192
g101
g102
ssg83
g3181
sg76
(lp3193
S':'
asbag69
(g90
g71
NtRp3194
(dp3195
g74
(dp3196
sg83
g3181
sg76
(lp3197
g69
(g70
g71
NtRp3198
(dp3199
g74
(dp3200
g82
I3
ssg83
g3194
sg76
(lp3201
g1374
asbasbasbag69
(g85
g71
NtRp3202
(dp3203
g74
(dp3204
sg83
g2694
sg76
(lp3205
g69
(g90
g71
NtRp3206
(dp3207
g74
(dp3208
g94
g95
ssg83
g3202
sg76
(lp3209
S'SERVER_SOFTWARE'
p3210
asbag69
(g90
g71
NtRp3211
(dp3212
g74
(dp3213
g101
g102
ssg83
g3202
sg76
(lp3214
S':'
asbag69
(g90
g71
NtRp3215
(dp3216
g74
(dp3217
sg83
g3202
sg76
(lp3218
g69
(g70
g71
NtRp3219
(dp3220
g74
(dp3221
g82
I3
ssg83
g3215
sg76
(lp3222
g1396
asbasbasbag69
(g85
g71
NtRp3223
(dp3224
g74
(dp3225
sg83
g2694
sg76
(lp3226
g69
(g90
g71
NtRp3227
(dp3228
g74
(dp3229
g94
g95
ssg83
g3223
sg76
(lp3230
S'wsgi.errors'
p3231
asbag69
(g90
g71
NtRp3232
(dp3233
g74
(dp3234
g101
g102
ssg83
g3223
sg76
(lp3235
S':'
asbag69
(g90
g71
NtRp3236
(dp3237
g74
(dp3238
sg83
g3223
sg76
(lp3239
g69
(g70
g71
NtRp3240
(dp3241
g74
(dp3242
g82
I3
ssg83
g3236
sg76
(lp3243
S"<open file '<stderr>', mode 'w' at 0x0000000001D361E0>"
p3244
asbasbasbag69
(g85
g71
NtRp3245
(dp3246
g74
(dp3247
sg83
g2694
sg76
(lp3248
g69
(g90
g71
NtRp3249
(dp3250
g74
(dp3251
g94
g95
ssg83
g3245
sg76
(lp3252
S'wsgi.file_wrapper'
p3253
asbag69
(g90
g71
NtRp3254
(dp3255
g74
(dp3256
g101
g102
ssg83
g3245
sg76
(lp3257
S':'
asbag69
(g90
g71
NtRp3258
(dp3259
g74
(dp3260
sg83
g3245
sg76
(lp3261
g69
(g70
g71
NtRp3262
(dp3263
g74
(dp3264
g82
I3
ssg83
g3258
sg76
(lp3265
S'<class wsgiref.util.FileWrapper at 0x000000000380EC48>'
p3266
asbasbasbag69
(g85
g71
NtRp3267
(dp3268
g74
(dp3269
sg83
g2694
sg76
(lp3270
g69
(g90
g71
NtRp3271
(dp3272
g74
(dp3273
g94
g95
ssg83
g3267
sg76
(lp3274
S'wsgi.input'
p3275
asbag69
(g90
g71
NtRp3276
(dp3277
g74
(dp3278
g101
g102
ssg83
g3267
sg76
(lp3279
S':'
asbag69
(g90
g71
NtRp3280
(dp3281
g74
(dp3282
sg83
g3267
sg76
(lp3283
g69
(g70
g71
NtRp3284
(dp3285
g74
(dp3286
g82
I3
ssg83
g3280
sg76
(lp3287
S"<open file '<fdopen>', mode 'w+b' at 0x0000000009CD6150>"
p3288
asbasbasbag69
(g85
g71
NtRp3289
(dp3290
g74
(dp3291
sg83
g2694
sg76
(lp3292
g69
(g90
g71
NtRp3293
(dp3294
g74
(dp3295
g94
g95
ssg83
g3289
sg76
(lp3296
S'wsgi.multiprocess'
p3297
asbag69
(g90
g71
NtRp3298
(dp3299
g74
(dp3300
g101
g102
ssg83
g3289
sg76
(lp3301
S':'
asbag69
(g90
g71
NtRp3302
(dp3303
g74
(dp3304
sg83
g3289
sg76
(lp3305
g69
(g70
g71
NtRp3306
(dp3307
g74
(dp3308
g82
I3
ssg83
g3302
sg76
(lp3309
g831
asbasbasbag69
(g85
g71
NtRp3310
(dp3311
g74
(dp3312
sg83
g2694
sg76
(lp3313
g69
(g90
g71
NtRp3314
(dp3315
g74
(dp3316
g94
g95
ssg83
g3310
sg76
(lp3317
S'wsgi.multithread'
p3318
asbag69
(g90
g71
NtRp3319
(dp3320
g74
(dp3321
g101
g102
ssg83
g3310
sg76
(lp3322
S':'
asbag69
(g90
g71
NtRp3323
(dp3324
g74
(dp3325
sg83
g3310
sg76
(lp3326
g69
(g70
g71
NtRp3327
(dp3328
g74
(dp3329
g82
I3
ssg83
g3323
sg76
(lp3330
g112
asbasbasbag69
(g85
g71
NtRp3331
(dp3332
g74
(dp3333
sg83
g2694
sg76
(lp3334
g69
(g90
g71
NtRp3335
(dp3336
g74
(dp3337
g94
g95
ssg83
g3331
sg76
(lp3338
S'wsgi.run_once'
p3339
asbag69
(g90
g71
NtRp3340
(dp3341
g74
(dp3342
g101
g102
ssg83
g3331
sg76
(lp3343
S':'
asbag69
(g90
g71
NtRp3344
(dp3345
g74
(dp3346
sg83
g3331
sg76
(lp3347
g69
(g70
g71
NtRp3348
(dp3349
g74
(dp3350
g82
I3
ssg83
g3344
sg76
(lp3351
g831
asbasbasbag69
(g85
g71
NtRp3352
(dp3353
g74
(dp3354
sg83
g2694
sg76
(lp3355
g69
(g90
g71
NtRp3356
(dp3357
g74
(dp3358
g94
g95
ssg83
g3352
sg76
(lp3359
S'wsgi.url_scheme'
p3360
asbag69
(g90
g71
NtRp3361
(dp3362
g74
(dp3363
g101
g102
ssg83
g3352
sg76
(lp3364
S':'
asbag69
(g90
g71
NtRp3365
(dp3366
g74
(dp3367
sg83
g3352
sg76
(lp3368
g69
(g70
g71
NtRp3369
(dp3370
g74
(dp3371
g82
I3
ssg83
g3365
sg76
(lp3372
g1678
asbasbasbag69
(g85
g71
NtRp3373
(dp3374
g74
(dp3375
sg83
g2694
sg76
(lp3376
g69
(g90
g71
NtRp3377
(dp3378
g74
(dp3379
g94
g95
ssg83
g3373
sg76
(lp3380
S'wsgi.version'
p3381
asbag69
(g90
g71
NtRp3382
(dp3383
g74
(dp3384
g101
g102
ssg83
g3373
sg76
(lp3385
S':'
asbag69
(g90
g71
NtRp3386
(dp3387
g74
(dp3388
sg83
g3373
sg76
(lp3389
g69
(g70
g71
NtRp3390
(dp3391
g74
(dp3392
g82
I3
ssg83
g3386
sg76
(lp3393
S'1'
asbasbasbasbasbasbasbasbasbasbasbasbasbsS'frames'
p3394
(lp3395
(dp3396
S'file'
p3397
S'c:\\Users\\Jorge\\Downloads\\web2py_src\\web2py\\gluon\\restricted.py'
p3398
sS'dump'
p3399
(dp3400
S'code'
p3401
S"'# -*- coding: utf-8 -*-\\nif 0:\\n    from gluon.glo...=form)\\nresponse._vars=response._caller(features)\\n'"
p3402
sS'layer'
p3403
S"r'c:\\Users\\Jorge\\Downloads\\web2py_src\\web2py\\applications\\init\\controllers/default.py'"
p3404
sS'global compile2'
p3405
S'<function compile2>'
p3406
sS'ccode'
p3407
S'undefined'
p3408
ssS'lnum'
p3409
I204
sS'lines'
p3410
(dp3411
I199
S"    environment['__name__'] = '__restricted__'"
p3412
sI200
S'    try:'
p3413
sI201
S'        if type(code) == types.CodeType:'
p3414
sI202
S'            ccode = code'
p3415
sI203
S'        else:'
p3416
sI204
S'            ccode = compile2(code,layer)'
p3417
sI205
S'        exec ccode in environment'
p3418
sI206
S'    except HTTP:'
p3419
sI207
S'        raise'
p3420
sI208
S'    except RestrictedError:'
p3421
ssS'call'
p3422
S"(code='# -*- coding: utf-8 -*-\\nif 0:\\n    from gluon.glo...=form)\\nresponse._vars=response._caller(features)\\n', environment={'A': <class 'gluon.html.A'>, 'Auth': <class 'gluon.tools.Auth'>, 'B': <class 'gluon.html.B'>, 'BEAUTIFY': <class 'gluon.html.BEAUTIFY'>, 'BODY': <class 'gluon.html.BODY'>, 'BR': <class 'gluon.html.BR'>, 'BUTTON': <class 'gluon.html.BUTTON'>, 'CAT': <class 'gluon.html.CAT'>, 'CENTER': <class 'gluon.html.CENTER'>, 'CLEANUP': <class 'gluon.validators.CLEANUP'>, ...}, layer=r'c:\\Users\\Jorge\\Downloads\\web2py_src\\web2py\\applications\\init\\controllers/default.py')"
p3423
sS'func'
p3424
S'restricted'
p3425
sa(dp3426
g3397
S'c:\\Users\\Jorge\\Downloads\\web2py_src\\web2py\\gluon\\restricted.py'
p3427
sg3399
(dp3428
S'builtincompile'
p3429
S'<built-in function compile>'
p3430
sS'code'
p3431
S"'# -*- coding: utf-8 -*-\\nif 0:\\n    from gluon.glo...=form)\\nresponse._vars=response._caller(features)\\n'"
p3432
sS'code.rstrip'
p3433
S'<built-in method rstrip of str object>'
p3434
sS').replace'
p3435
g3408
sS'layer'
p3436
S"r'c:\\Users\\Jorge\\Downloads\\web2py_src\\web2py\\applications\\init\\controllers/default.py'"
p3437
ssg3409
I189
sg3410
(dp3438
I192
S'    """'
p3439
sI193
S'    runs code in environment and returns the output. if an exception occurs'
p3440
sI184
S''
sI185
S'def compile2(code,layer):'
p3441
sI186
S'    """'
p3442
sI187
S"    The +'\\n' is necessary else compile fails when code ends in a comment."
p3443
sI188
S'    """'
p3444
sI189
S"    return compile(code.rstrip().replace('\\r\\n','\\n')+'\\n', layer, 'exec')"
p3445
sI190
S''
sI191
S"def restricted(code, environment=None, layer='Unknown'):"
p3446
ssg3422
S"(code='# -*- coding: utf-8 -*-\\nif 0:\\n    from gluon.glo...=form)\\nresponse._vars=response._caller(features)\\n', layer=r'c:\\Users\\Jorge\\Downloads\\web2py_src\\web2py\\applications\\init\\controllers/default.py')"
p3447
sg3424
S'compile2'
p3448
sasS'pyver'
p3449
S'Python 2.7.2: C:\\Python27\\python.exe'
p3450
sS'session'
p3451
g69
(g70
g71
NtRp3452
(dp3453
g74
(dp3454
sg76
(lp3455
g69
(g78
g71
NtRp3456
(dp3457
g74
(dp3458
g82
I5
ssg83
Nsg76
(lp3459
g69
(g85
g71
NtRp3460
(dp3461
g74
(dp3462
sg83
g3456
sg76
(lp3463
g69
(g90
g71
NtRp3464
(dp3465
g74
(dp3466
g94
g95
ssg83
g3460
sg76
(lp3467
S'auth'
p3468
asbag69
(g90
g71
NtRp3469
(dp3470
g74
(dp3471
g101
g102
ssg83
g3460
sg76
(lp3472
S':'
asbag69
(g90
g71
NtRp3473
(dp3474
g74
(dp3475
sg83
g3460
sg76
(lp3476
g69
(g70
g71
NtRp3477
(dp3478
g74
(dp3479
g82
I5
ssg83
g3473
sg76
(lp3480
g69
(g78
g71
NtRp3481
(dp3482
g74
(dp3483
g82
I4
ssg83
Nsg76
(lp3484
g69
(g85
g71
NtRp3485
(dp3486
g74
(dp3487
sg83
g3481
sg76
(lp3488
g69
(g90
g71
NtRp3489
(dp3490
g74
(dp3491
g94
g95
ssg83
g3485
sg76
(lp3492
S'expiration'
p3493
asbag69
(g90
g71
NtRp3494
(dp3495
g74
(dp3496
g101
g102
ssg83
g3485
sg76
(lp3497
S':'
asbag69
(g90
g71
NtRp3498
(dp3499
g74
(dp3500
sg83
g3485
sg76
(lp3501
g69
(g70
g71
NtRp3502
(dp3503
g74
(dp3504
g82
I4
ssg83
g3498
sg76
(lp3505
S'3600'
p3506
asbasbasbag69
(g85
g71
NtRp3507
(dp3508
g74
(dp3509
sg83
g3481
sg76
(lp3510
g69
(g90
g71
NtRp3511
(dp3512
g74
(dp3513
g94
g95
ssg83
g3507
sg76
(lp3514
S'hmac_key'
p3515
asbag69
(g90
g71
NtRp3516
(dp3517
g74
(dp3518
g101
g102
ssg83
g3507
sg76
(lp3519
S':'
asbag69
(g90
g71
NtRp3520
(dp3521
g74
(dp3522
sg83
g3507
sg76
(lp3523
g69
(g70
g71
NtRp3524
(dp3525
g74
(dp3526
g82
I4
ssg83
g3520
sg76
(lp3527
S'df6450f8-dea7-4055-8229-826d84195553'
p3528
asbasbasbag69
(g85
g71
NtRp3529
(dp3530
g74
(dp3531
sg83
g3481
sg76
(lp3532
g69
(g90
g71
NtRp3533
(dp3534
g74
(dp3535
g94
g95
ssg83
g3529
sg76
(lp3536
S'last_visit'
p3537
asbag69
(g90
g71
NtRp3538
(dp3539
g74
(dp3540
g101
g102
ssg83
g3529
sg76
(lp3541
S':'
asbag69
(g90
g71
NtRp3542
(dp3543
g74
(dp3544
sg83
g3529
sg76
(lp3545
g69
(g70
g71
NtRp3546
(dp3547
g74
(dp3548
g82
I4
ssg83
g3542
sg76
(lp3549
S'datetime.datetime(2012, 4, 30, 22, 36, 37, 445000)'
p3550
asbasbasbag69
(g85
g71
NtRp3551
(dp3552
g74
(dp3553
sg83
g3481
sg76
(lp3554
g69
(g90
g71
NtRp3555
(dp3556
g74
(dp3557
g94
g95
ssg83
g3551
sg76
(lp3558
S'remember'
p3559
asbag69
(g90
g71
NtRp3560
(dp3561
g74
(dp3562
g101
g102
ssg83
g3551
sg76
(lp3563
S':'
asbag69
(g90
g71
NtRp3564
(dp3565
g74
(dp3566
sg83
g3551
sg76
(lp3567
g69
(g70
g71
NtRp3568
(dp3569
g74
(dp3570
g82
I4
ssg83
g3564
sg76
(lp3571
g831
asbasbasbag69
(g85
g71
NtRp3572
(dp3573
g74
(dp3574
sg83
g3481
sg76
(lp3575
g69
(g90
g71
NtRp3576
(dp3577
g74
(dp3578
g94
g95
ssg83
g3572
sg76
(lp3579
S'user'
p3580
asbag69
(g90
g71
NtRp3581
(dp3582
g74
(dp3583
g101
g102
ssg83
g3572
sg76
(lp3584
S':'
asbag69
(g90
g71
NtRp3585
(dp3586
g74
(dp3587
sg83
g3572
sg76
(lp3588
g69
(g70
g71
NtRp3589
(dp3590
g74
(dp3591
g82
I4
ssg83
g3585
sg76
(lp3592
g69
(g78
g71
NtRp3593
(dp3594
g74
(dp3595
g82
I3
ssg83
Nsg76
(lp3596
g69
(g85
g71
NtRp3597
(dp3598
g74
(dp3599
sg83
g3593
sg76
(lp3600
g69
(g90
g71
NtRp3601
(dp3602
g74
(dp3603
g94
g95
ssg83
g3597
sg76
(lp3604
S'created_on'
p3605
asbag69
(g90
g71
NtRp3606
(dp3607
g74
(dp3608
g101
g102
ssg83
g3597
sg76
(lp3609
S':'
asbag69
(g90
g71
NtRp3610
(dp3611
g74
(dp3612
sg83
g3597
sg76
(lp3613
g69
(g70
g71
NtRp3614
(dp3615
g74
(dp3616
g82
I3
ssg83
g3610
sg76
(lp3617
S'datetime.datetime(2012, 4, 14, 20, 20, 15)'
p3618
asbasbasbag69
(g85
g71
NtRp3619
(dp3620
g74
(dp3621
sg83
g3593
sg76
(lp3622
g69
(g90
g71
NtRp3623
(dp3624
g74
(dp3625
g94
g95
ssg83
g3619
sg76
(lp3626
S'email'
p3627
asbag69
(g90
g71
NtRp3628
(dp3629
g74
(dp3630
g101
g102
ssg83
g3619
sg76
(lp3631
S':'
asbag69
(g90
g71
NtRp3632
(dp3633
g74
(dp3634
sg83
g3619
sg76
(lp3635
g69
(g70
g71
NtRp3636
(dp3637
g74
(dp3638
g82
I3
ssg83
g3632
sg76
(lp3639
S'maximiliano.alcaraz@aeg.com.ar'
p3640
asbasbasbag69
(g85
g71
NtRp3641
(dp3642
g74
(dp3643
sg83
g3593
sg76
(lp3644
g69
(g90
g71
NtRp3645
(dp3646
g74
(dp3647
g94
g95
ssg83
g3641
sg76
(lp3648
S'first_name'
p3649
asbag69
(g90
g71
NtRp3650
(dp3651
g74
(dp3652
g101
g102
ssg83
g3641
sg76
(lp3653
S':'
asbag69
(g90
g71
NtRp3654
(dp3655
g74
(dp3656
sg83
g3641
sg76
(lp3657
g69
(g70
g71
NtRp3658
(dp3659
g74
(dp3660
g82
I3
ssg83
g3654
sg76
(lp3661
S'Maximiliano'
p3662
asbasbasbag69
(g85
g71
NtRp3663
(dp3664
g74
(dp3665
sg83
g3593
sg76
(lp3666
g69
(g90
g71
NtRp3667
(dp3668
g74
(dp3669
g94
g95
ssg83
g3663
sg76
(lp3670
S'id'
p3671
asbag69
(g90
g71
NtRp3672
(dp3673
g74
(dp3674
g101
g102
ssg83
g3663
sg76
(lp3675
S':'
asbag69
(g90
g71
NtRp3676
(dp3677
g74
(dp3678
sg83
g3663
sg76
(lp3679
g69
(g70
g71
NtRp3680
(dp3681
g74
(dp3682
g82
I3
ssg83
g3676
sg76
(lp3683
S'15'
p3684
asbasbasbag69
(g85
g71
NtRp3685
(dp3686
g74
(dp3687
sg83
g3593
sg76
(lp3688
g69
(g90
g71
NtRp3689
(dp3690
g74
(dp3691
g94
g95
ssg83
g3685
sg76
(lp3692
S'last_name'
p3693
asbag69
(g90
g71
NtRp3694
(dp3695
g74
(dp3696
g101
g102
ssg83
g3685
sg76
(lp3697
S':'
asbag69
(g90
g71
NtRp3698
(dp3699
g74
(dp3700
sg83
g3685
sg76
(lp3701
g69
(g70
g71
NtRp3702
(dp3703
g74
(dp3704
g82
I3
ssg83
g3698
sg76
(lp3705
S'Alcaraz'
p3706
asbasbasbag69
(g85
g71
NtRp3707
(dp3708
g74
(dp3709
sg83
g3593
sg76
(lp3710
g69
(g90
g71
NtRp3711
(dp3712
g74
(dp3713
g94
g95
ssg83
g3707
sg76
(lp3714
S'modified_on'
p3715
asbag69
(g90
g71
NtRp3716
(dp3717
g74
(dp3718
g101
g102
ssg83
g3707
sg76
(lp3719
S':'
asbag69
(g90
g71
NtRp3720
(dp3721
g74
(dp3722
sg83
g3707
sg76
(lp3723
g69
(g70
g71
NtRp3724
(dp3725
g74
(dp3726
g82
I3
ssg83
g3720
sg76
(lp3727
S'datetime.datetime(2012, 4, 14, 20, 20, 15)'
p3728
asbasbasbag69
(g85
g71
NtRp3729
(dp3730
g74
(dp3731
sg83
g3593
sg76
(lp3732
g69
(g90
g71
NtRp3733
(dp3734
g74
(dp3735
g94
g95
ssg83
g3729
sg76
(lp3736
S'password'
p3737
asbag69
(g90
g71
NtRp3738
(dp3739
g74
(dp3740
g101
g102
ssg83
g3729
sg76
(lp3741
S':'
asbag69
(g90
g71
NtRp3742
(dp3743
g74
(dp3744
sg83
g3729
sg76
(lp3745
g69
(g70
g71
NtRp3746
(dp3747
g74
(dp3748
g82
I3
ssg83
g3742
sg76
(lp3749
S'3b00954a2acd03e4a32d91f4bdebb4b7'
p3750
asbasbasbag69
(g85
g71
NtRp3751
(dp3752
g74
(dp3753
sg83
g3593
sg76
(lp3754
g69
(g90
g71
NtRp3755
(dp3756
g74
(dp3757
g94
g95
ssg83
g3751
sg76
(lp3758
S'registration_id'
p3759
asbag69
(g90
g71
NtRp3760
(dp3761
g74
(dp3762
g101
g102
ssg83
g3751
sg76
(lp3763
S':'
asbag69
(g90
g71
NtRp3764
(dp3765
g74
(dp3766
sg83
g3751
sg76
(lp3767
g69
(g70
g71
NtRp3768
(dp3769
g74
(dp3770
g82
I3
ssg83
g3764
sg76
(lp3771
S''
asbasbasbag69
(g85
g71
NtRp3772
(dp3773
g74
(dp3774
sg83
g3593
sg76
(lp3775
g69
(g90
g71
NtRp3776
(dp3777
g74
(dp3778
g94
g95
ssg83
g3772
sg76
(lp3779
S'registration_key'
p3780
asbag69
(g90
g71
NtRp3781
(dp3782
g74
(dp3783
g101
g102
ssg83
g3772
sg76
(lp3784
S':'
asbag69
(g90
g71
NtRp3785
(dp3786
g74
(dp3787
sg83
g3772
sg76
(lp3788
g69
(g70
g71
NtRp3789
(dp3790
g74
(dp3791
g82
I3
ssg83
g3785
sg76
(lp3792
S''
asbasbasbag69
(g85
g71
NtRp3793
(dp3794
g74
(dp3795
sg83
g3593
sg76
(lp3796
g69
(g90
g71
NtRp3797
(dp3798
g74
(dp3799
g94
g95
ssg83
g3793
sg76
(lp3800
S'reset_password_key'
p3801
asbag69
(g90
g71
NtRp3802
(dp3803
g74
(dp3804
g101
g102
ssg83
g3793
sg76
(lp3805
S':'
asbag69
(g90
g71
NtRp3806
(dp3807
g74
(dp3808
sg83
g3793
sg76
(lp3809
g69
(g70
g71
NtRp3810
(dp3811
g74
(dp3812
g82
I3
ssg83
g3806
sg76
(lp3813
S''
asbasbasbag69
(g85
g71
NtRp3814
(dp3815
g74
(dp3816
sg83
g3593
sg76
(lp3817
g69
(g90
g71
NtRp3818
(dp3819
g74
(dp3820
g94
g95
ssg83
g3814
sg76
(lp3821
S'username'
p3822
asbag69
(g90
g71
NtRp3823
(dp3824
g74
(dp3825
g101
g102
ssg83
g3814
sg76
(lp3826
S':'
asbag69
(g90
g71
NtRp3827
(dp3828
g74
(dp3829
sg83
g3814
sg76
(lp3830
g69
(g70
g71
NtRp3831
(dp3832
g74
(dp3833
g82
I3
ssg83
g3827
sg76
(lp3834
S'maxi'
p3835
asbasbasbasbasbasbasbag69
(g85
g71
NtRp3836
(dp3837
g74
(dp3838
sg83
g3481
sg76
(lp3839
g69
(g90
g71
NtRp3840
(dp3841
g74
(dp3842
g94
g95
ssg83
g3836
sg76
(lp3843
S'user_groups'
p3844
asbag69
(g90
g71
NtRp3845
(dp3846
g74
(dp3847
g101
g102
ssg83
g3836
sg76
(lp3848
S':'
asbag69
(g90
g71
NtRp3849
(dp3850
g74
(dp3851
sg83
g3836
sg76
(lp3852
g69
(g70
g71
NtRp3853
(dp3854
g74
(dp3855
g82
I4
ssg83
g3849
sg76
(lp3856
g69
(g78
g71
NtRp3857
(dp3858
g74
(dp3859
g82
I3
ssg83
Nsg76
(lp3860
g69
(g85
g71
NtRp3861
(dp3862
g74
(dp3863
sg83
g3857
sg76
(lp3864
g69
(g90
g71
NtRp3865
(dp3866
g74
(dp3867
g94
g95
ssg83
g3861
sg76
(lp3868
S'5'
asbag69
(g90
g71
NtRp3869
(dp3870
g74
(dp3871
g101
g102
ssg83
g3861
sg76
(lp3872
S':'
asbag69
(g90
g71
NtRp3873
(dp3874
g74
(dp3875
sg83
g3861
sg76
(lp3876
g69
(g70
g71
NtRp3877
(dp3878
g74
(dp3879
g82
I3
ssg83
g3873
sg76
(lp3880
S'Admin'
p3881
asbasbasbasbasbasbasbasbasbasbasbasbasbsS'etype'
p3882
S"<type 'exceptions.SyntaxError'>"
p3883
sS'date'
p3884
S'Mon Apr 30 22:39:35 2012'
p3885
sS'response'
p3886
g69
(g70
g71
NtRp3887
(dp3888
g74
(dp3889
sg76
(lp3890
g69
(g78
g71
NtRp3891
(dp3892
g74
(dp3893
g82
I5
ssg83
Nsg76
(lp3894
g69
(g85
g71
NtRp3895
(dp3896
g74
(dp3897
sg83
g3891
sg76
(lp3898
g69
(g90
g71
NtRp3899
(dp3900
g74
(dp3901
g94
g95
ssg83
g3895
sg76
(lp3902
g167
asbag69
(g90
g71
NtRp3903
(dp3904
g74
(dp3905
g101
g102
ssg83
g3895
sg76
(lp3906
S':'
asbag69
(g90
g71
NtRp3907
(dp3908
g74
(dp3909
sg83
g3895
sg76
(lp3910
g69
(g70
g71
NtRp3911
(dp3912
g74
(dp3913
g82
I5
ssg83
g3907
sg76
(lp3914
S'<cStringIO.StringO object at 0x0000000009990688>'
p3915
asbasbasbag69
(g85
g71
NtRp3916
(dp3917
g74
(dp3918
sg83
g3891
sg76
(lp3919
g69
(g90
g71
NtRp3920
(dp3921
g74
(dp3922
g94
g95
ssg83
g3916
sg76
(lp3923
g233
asbag69
(g90
g71
NtRp3924
(dp3925
g74
(dp3926
g101
g102
ssg83
g3916
sg76
(lp3927
S':'
asbag69
(g90
g71
NtRp3928
(dp3929
g74
(dp3930
sg83
g3916
sg76
(lp3931
g69
(g70
g71
NtRp3932
(dp3933
g74
(dp3934
g82
I5
ssg83
g3928
sg76
(lp3935
g69
(g78
g71
NtRp3936
(dp3937
g74
(dp3938
g82
I4
ssg83
Nsg76
(lp3939
g69
(g85
g71
NtRp3940
(dp3941
g74
(dp3942
sg83
g3936
sg76
(lp3943
g69
(g90
g71
NtRp3944
(dp3945
g74
(dp3946
g94
g95
ssg83
g3940
sg76
(lp3947
S'session_id_init'
p3948
asbag69
(g90
g71
NtRp3949
(dp3950
g74
(dp3951
g101
g102
ssg83
g3940
sg76
(lp3952
S':'
asbag69
(g90
g71
NtRp3953
(dp3954
g74
(dp3955
sg83
g3940
sg76
(lp3956
g69
(g70
g71
NtRp3957
(dp3958
g74
(dp3959
g82
I4
ssg83
g3953
sg76
(lp3960
g69
(g78
g71
NtRp3961
(dp3962
g74
(dp3963
g82
I3
ssg83
Nsg76
(lp3964
g69
(g85
g71
NtRp3965
(dp3966
g74
(dp3967
sg83
g3961
sg76
(lp3968
g69
(g90
g71
NtRp3969
(dp3970
g74
(dp3971
g94
g95
ssg83
g3965
sg76
(lp3972
g283
asbag69
(g90
g71
NtRp3973
(dp3974
g74
(dp3975
g101
g102
ssg83
g3965
sg76
(lp3976
S':'
asbag69
(g90
g71
NtRp3977
(dp3978
g74
(dp3979
sg83
g3965
sg76
(lp3980
g69
(g70
g71
NtRp3981
(dp3982
g74
(dp3983
g82
I3
ssg83
g3977
sg76
(lp3984
S''
asbasbasbag69
(g85
g71
NtRp3985
(dp3986
g74
(dp3987
sg83
g3961
sg76
(lp3988
g69
(g90
g71
NtRp3989
(dp3990
g74
(dp3991
g94
g95
ssg83
g3985
sg76
(lp3992
g304
asbag69
(g90
g71
NtRp3993
(dp3994
g74
(dp3995
g101
g102
ssg83
g3985
sg76
(lp3996
S':'
asbag69
(g90
g71
NtRp3997
(dp3998
g74
(dp3999
sg83
g3985
sg76
(lp4000
g69
(g70
g71
NtRp4001
(dp4002
g74
(dp4003
g82
I3
ssg83
g3997
sg76
(lp4004
S''
asbasbasbag69
(g85
g71
NtRp4005
(dp4006
g74
(dp4007
sg83
g3961
sg76
(lp4008
g69
(g90
g71
NtRp4009
(dp4010
g74
(dp4011
g94
g95
ssg83
g4005
sg76
(lp4012
g325
asbag69
(g90
g71
NtRp4013
(dp4014
g74
(dp4015
g101
g102
ssg83
g4005
sg76
(lp4016
S':'
asbag69
(g90
g71
NtRp4017
(dp4018
g74
(dp4019
sg83
g4005
sg76
(lp4020
g69
(g70
g71
NtRp4021
(dp4022
g74
(dp4023
g82
I3
ssg83
g4017
sg76
(lp4024
S''
asbasbasbag69
(g85
g71
NtRp4025
(dp4026
g74
(dp4027
sg83
g3961
sg76
(lp4028
g69
(g90
g71
NtRp4029
(dp4030
g74
(dp4031
g94
g95
ssg83
g4025
sg76
(lp4032
g346
asbag69
(g90
g71
NtRp4033
(dp4034
g74
(dp4035
g101
g102
ssg83
g4025
sg76
(lp4036
S':'
asbag69
(g90
g71
NtRp4037
(dp4038
g74
(dp4039
sg83
g4025
sg76
(lp4040
g69
(g70
g71
NtRp4041
(dp4042
g74
(dp4043
g82
I3
ssg83
g4037
sg76
(lp4044
S''
asbasbasbag69
(g85
g71
NtRp4045
(dp4046
g74
(dp4047
sg83
g3961
sg76
(lp4048
g69
(g90
g71
NtRp4049
(dp4050
g74
(dp4051
g94
g95
ssg83
g4045
sg76
(lp4052
g367
asbag69
(g90
g71
NtRp4053
(dp4054
g74
(dp4055
g101
g102
ssg83
g4045
sg76
(lp4056
S':'
asbag69
(g90
g71
NtRp4057
(dp4058
g74
(dp4059
sg83
g4045
sg76
(lp4060
g69
(g70
g71
NtRp4061
(dp4062
g74
(dp4063
g82
I3
ssg83
g4057
sg76
(lp4064
S''
asbasbasbag69
(g85
g71
NtRp4065
(dp4066
g74
(dp4067
sg83
g3961
sg76
(lp4068
g69
(g90
g71
NtRp4069
(dp4070
g74
(dp4071
g94
g95
ssg83
g4065
sg76
(lp4072
g388
asbag69
(g90
g71
NtRp4073
(dp4074
g74
(dp4075
g101
g102
ssg83
g4065
sg76
(lp4076
S':'
asbag69
(g90
g71
NtRp4077
(dp4078
g74
(dp4079
sg83
g4065
sg76
(lp4080
g69
(g70
g71
NtRp4081
(dp4082
g74
(dp4083
g82
I3
ssg83
g4077
sg76
(lp4084
S'/'
asbasbasbag69
(g85
g71
NtRp4085
(dp4086
g74
(dp4087
sg83
g3961
sg76
(lp4088
g69
(g90
g71
NtRp4089
(dp4090
g74
(dp4091
g94
g95
ssg83
g4085
sg76
(lp4092
g409
asbag69
(g90
g71
NtRp4093
(dp4094
g74
(dp4095
g101
g102
ssg83
g4085
sg76
(lp4096
S':'
asbag69
(g90
g71
NtRp4097
(dp4098
g74
(dp4099
sg83
g4085
sg76
(lp4100
g69
(g70
g71
NtRp4101
(dp4102
g74
(dp4103
g82
I3
ssg83
g4097
sg76
(lp4104
S''
asbasbasbag69
(g85
g71
NtRp4105
(dp4106
g74
(dp4107
sg83
g3961
sg76
(lp4108
g69
(g90
g71
NtRp4109
(dp4110
g74
(dp4111
g94
g95
ssg83
g4105
sg76
(lp4112
g430
asbag69
(g90
g71
NtRp4113
(dp4114
g74
(dp4115
g101
g102
ssg83
g4105
sg76
(lp4116
S':'
asbag69
(g90
g71
NtRp4117
(dp4118
g74
(dp4119
sg83
g4105
sg76
(lp4120
g69
(g70
g71
NtRp4121
(dp4122
g74
(dp4123
g82
I3
ssg83
g4117
sg76
(lp4124
S''
asbasbasbasbasbasbasbasbasbasbasbag69
(g85
g71
NtRp4125
(dp4126
g74
(dp4127
sg83
g3891
sg76
(lp4128
g69
(g90
g71
NtRp4129
(dp4130
g74
(dp4131
g94
g95
ssg83
g4125
sg76
(lp4132
S'delimiters'
p4133
asbag69
(g90
g71
NtRp4134
(dp4135
g74
(dp4136
g101
g102
ssg83
g4125
sg76
(lp4137
S':'
asbag69
(g90
g71
NtRp4138
(dp4139
g74
(dp4140
sg83
g4125
sg76
(lp4141
g69
(g70
g71
NtRp4142
(dp4143
g74
(dp4144
g82
I5
ssg83
g4138
sg76
(lp4145
g69
(g78
g71
NtRp4146
(dp4147
g74
(dp4148
g82
I4
ssg83
Nsg76
(lp4149
g69
(g85
g71
NtRp4150
(dp4151
g74
(dp4152
sg83
g4146
sg76
(lp4153
g69
(g90
g71
NtRp4154
(dp4155
g74
(dp4156
sg83
g4150
sg76
(lp4157
g69
(g70
g71
NtRp4158
(dp4159
g74
(dp4160
g82
I4
ssg83
g4154
sg76
(lp4161
S'{{'
p4162
asbasbasbag69
(g85
g71
NtRp4163
(dp4164
g74
(dp4165
sg83
g4146
sg76
(lp4166
g69
(g90
g71
NtRp4167
(dp4168
g74
(dp4169
sg83
g4163
sg76
(lp4170
g69
(g70
g71
NtRp4171
(dp4172
g74
(dp4173
g82
I4
ssg83
g4167
sg76
(lp4174
S'}}'
p4175
asbasbasbasbasbasbasbag69
(g85
g71
NtRp4176
(dp4177
g74
(dp4178
sg83
g3891
sg76
(lp4179
g69
(g90
g71
NtRp4180
(dp4181
g74
(dp4182
g94
g95
ssg83
g4176
sg76
(lp4183
S'files'
p4184
asbag69
(g90
g71
NtRp4185
(dp4186
g74
(dp4187
g101
g102
ssg83
g4176
sg76
(lp4188
S':'
asbag69
(g90
g71
NtRp4189
(dp4190
g74
(dp4191
sg83
g4176
sg76
(lp4192
g69
(g70
g71
NtRp4193
(dp4194
g74
(dp4195
g82
I5
ssg83
g4189
sg76
(lp4196
g69
(g78
g71
NtRp4197
(dp4198
g74
(dp4199
g82
I4
ssg83
Nsg76
(lp4200
sbasbasbasbag69
(g85
g71
NtRp4201
(dp4202
g74
(dp4203
sg83
g3891
sg76
(lp4204
g69
(g90
g71
NtRp4205
(dp4206
g74
(dp4207
g94
g95
ssg83
g4201
sg76
(lp4208
S'flash'
p4209
asbag69
(g90
g71
NtRp4210
(dp4211
g74
(dp4212
g101
g102
ssg83
g4201
sg76
(lp4213
S':'
asbag69
(g90
g71
NtRp4214
(dp4215
g74
(dp4216
sg83
g4201
sg76
(lp4217
g69
(g70
g71
NtRp4218
(dp4219
g74
(dp4220
g82
I5
ssg83
g4214
sg76
(lp4221
S''
asbasbasbag69
(g85
g71
NtRp4222
(dp4223
g74
(dp4224
sg83
g3891
sg76
(lp4225
g69
(g90
g71
NtRp4226
(dp4227
g74
(dp4228
g94
g95
ssg83
g4222
sg76
(lp4229
S'generic_patterns'
p4230
asbag69
(g90
g71
NtRp4231
(dp4232
g74
(dp4233
g101
g102
ssg83
g4222
sg76
(lp4234
S':'
asbag69
(g90
g71
NtRp4235
(dp4236
g74
(dp4237
sg83
g4222
sg76
(lp4238
g69
(g70
g71
NtRp4239
(dp4240
g74
(dp4241
g82
I5
ssg83
g4235
sg76
(lp4242
g69
(g78
g71
NtRp4243
(dp4244
g74
(dp4245
g82
I4
ssg83
Nsg76
(lp4246
g69
(g85
g71
NtRp4247
(dp4248
g74
(dp4249
sg83
g4243
sg76
(lp4250
g69
(g90
g71
NtRp4251
(dp4252
g74
(dp4253
sg83
g4247
sg76
(lp4254
g69
(g70
g71
NtRp4255
(dp4256
g74
(dp4257
g82
I4
ssg83
g4251
sg76
(lp4258
S'*'
asbasbasbasbasbasbasbag69
(g85
g71
NtRp4259
(dp4260
g74
(dp4261
sg83
g3891
sg76
(lp4262
g69
(g90
g71
NtRp4263
(dp4264
g74
(dp4265
g94
g95
ssg83
g4259
sg76
(lp4266
S'headers'
p4267
asbag69
(g90
g71
NtRp4268
(dp4269
g74
(dp4270
g101
g102
ssg83
g4259
sg76
(lp4271
S':'
asbag69
(g90
g71
NtRp4272
(dp4273
g74
(dp4274
sg83
g4259
sg76
(lp4275
g69
(g70
g71
NtRp4276
(dp4277
g74
(dp4278
g82
I5
ssg83
g4272
sg76
(lp4279
g69
(g78
g71
NtRp4280
(dp4281
g74
(dp4282
g82
I4
ssg83
Nsg76
(lp4283
g69
(g85
g71
NtRp4284
(dp4285
g74
(dp4286
sg83
g4280
sg76
(lp4287
g69
(g90
g71
NtRp4288
(dp4289
g74
(dp4290
g94
g95
ssg83
g4284
sg76
(lp4291
S'Cache-Control'
p4292
asbag69
(g90
g71
NtRp4293
(dp4294
g74
(dp4295
g101
g102
ssg83
g4284
sg76
(lp4296
S':'
asbag69
(g90
g71
NtRp4297
(dp4298
g74
(dp4299
sg83
g4284
sg76
(lp4300
g69
(g70
g71
NtRp4301
(dp4302
g74
(dp4303
g82
I4
ssg83
g4297
sg76
(lp4304
S'no-store, no-cache, must-revalidate, post-check=0, pre-check=0'
p4305
asbasbasbag69
(g85
g71
NtRp4306
(dp4307
g74
(dp4308
sg83
g4280
sg76
(lp4309
g69
(g90
g71
NtRp4310
(dp4311
g74
(dp4312
g94
g95
ssg83
g4306
sg76
(lp4313
S'Content-Type'
p4314
asbag69
(g90
g71
NtRp4315
(dp4316
g74
(dp4317
g101
g102
ssg83
g4306
sg76
(lp4318
S':'
asbag69
(g90
g71
NtRp4319
(dp4320
g74
(dp4321
sg83
g4306
sg76
(lp4322
g69
(g70
g71
NtRp4323
(dp4324
g74
(dp4325
g82
I4
ssg83
g4319
sg76
(lp4326
S'application/json'
p4327
asbasbasbag69
(g85
g71
NtRp4328
(dp4329
g74
(dp4330
sg83
g4280
sg76
(lp4331
g69
(g90
g71
NtRp4332
(dp4333
g74
(dp4334
g94
g95
ssg83
g4328
sg76
(lp4335
S'Expires'
p4336
asbag69
(g90
g71
NtRp4337
(dp4338
g74
(dp4339
g101
g102
ssg83
g4328
sg76
(lp4340
S':'
asbag69
(g90
g71
NtRp4341
(dp4342
g74
(dp4343
sg83
g4328
sg76
(lp4344
g69
(g70
g71
NtRp4345
(dp4346
g74
(dp4347
g82
I4
ssg83
g4341
sg76
(lp4348
S'Tue, 01 May 2012 01:36:37 GMT'
p4349
asbasbasbag69
(g85
g71
NtRp4350
(dp4351
g74
(dp4352
sg83
g4280
sg76
(lp4353
g69
(g90
g71
NtRp4354
(dp4355
g74
(dp4356
g94
g95
ssg83
g4350
sg76
(lp4357
S'Pragma'
p4358
asbag69
(g90
g71
NtRp4359
(dp4360
g74
(dp4361
g101
g102
ssg83
g4350
sg76
(lp4362
S':'
asbag69
(g90
g71
NtRp4363
(dp4364
g74
(dp4365
sg83
g4350
sg76
(lp4366
g69
(g70
g71
NtRp4367
(dp4368
g74
(dp4369
g82
I4
ssg83
g4363
sg76
(lp4370
S'no-cache'
p4371
asbasbasbag69
(g85
g71
NtRp4372
(dp4373
g74
(dp4374
sg83
g4280
sg76
(lp4375
g69
(g90
g71
NtRp4376
(dp4377
g74
(dp4378
g94
g95
ssg83
g4372
sg76
(lp4379
S'X-Powered-By'
p4380
asbag69
(g90
g71
NtRp4381
(dp4382
g74
(dp4383
g101
g102
ssg83
g4372
sg76
(lp4384
S':'
asbag69
(g90
g71
NtRp4385
(dp4386
g74
(dp4387
sg83
g4372
sg76
(lp4388
g69
(g70
g71
NtRp4389
(dp4390
g74
(dp4391
g82
I4
ssg83
g4385
sg76
(lp4392
S'web2py'
p4393
asbasbasbasbasbasbasbag69
(g85
g71
NtRp4394
(dp4395
g74
(dp4396
sg83
g3891
sg76
(lp4397
g69
(g90
g71
NtRp4398
(dp4399
g74
(dp4400
g94
g95
ssg83
g4394
sg76
(lp4401
S'menu'
p4402
asbag69
(g90
g71
NtRp4403
(dp4404
g74
(dp4405
g101
g102
ssg83
g4394
sg76
(lp4406
S':'
asbag69
(g90
g71
NtRp4407
(dp4408
g74
(dp4409
sg83
g4394
sg76
(lp4410
g69
(g70
g71
NtRp4411
(dp4412
g74
(dp4413
g82
I5
ssg83
g4407
sg76
(lp4414
g69
(g78
g71
NtRp4415
(dp4416
g74
(dp4417
g82
I4
ssg83
Nsg76
(lp4418
g69
(g85
g71
NtRp4419
(dp4420
g74
(dp4421
sg83
g4415
sg76
(lp4422
g69
(g90
g71
NtRp4423
(dp4424
g74
(dp4425
sg83
g4419
sg76
(lp4426
g69
(g70
g71
NtRp4427
(dp4428
g74
(dp4429
g82
I4
ssg83
g4423
sg76
(lp4430
g69
(g78
g71
NtRp4431
(dp4432
g74
(dp4433
g82
I3
ssg83
Nsg76
(lp4434
g69
(g85
g71
NtRp4435
(dp4436
g74
(dp4437
sg83
g4431
sg76
(lp4438
g69
(g90
g71
NtRp4439
(dp4440
g74
(dp4441
sg83
g4435
sg76
(lp4442
g69
(g70
g71
NtRp4443
(dp4444
g74
(dp4445
g82
I3
ssg83
g4439
sg76
(lp4446
cgluon.languages
lazyT_unpickle
p4447
(S't\x06\x00\x00\x00Inicio'
tRp4448
asbasbasbag69
(g85
g71
NtRp4449
(dp4450
g74
(dp4451
sg83
g4431
sg76
(lp4452
g69
(g90
g71
NtRp4453
(dp4454
g74
(dp4455
sg83
g4449
sg76
(lp4456
g69
(g70
g71
NtRp4457
(dp4458
g74
(dp4459
g82
I3
ssg83
g4453
sg76
(lp4460
g831
asbasbasbag69
(g85
g71
NtRp4461
(dp4462
g74
(dp4463
sg83
g4431
sg76
(lp4464
g69
(g90
g71
NtRp4465
(dp4466
g74
(dp4467
sg83
g4461
sg76
(lp4468
g69
(g70
g71
NtRp4469
(dp4470
g74
(dp4471
g82
I3
ssg83
g4465
sg76
(lp4472
S'/init/default/index.json'
p4473
asbasbasbag69
(g85
g71
NtRp4474
(dp4475
g74
(dp4476
sg83
g4431
sg76
(lp4477
g69
(g90
g71
NtRp4478
(dp4479
g74
(dp4480
sg83
g4474
sg76
(lp4481
g69
(g70
g71
NtRp4482
(dp4483
g74
(dp4484
g82
I3
ssg83
g4478
sg76
(lp4485
g69
(g78
g71
NtRp4486
(dp4487
g74
(dp4488
g82
I2
ssg83
Nsg76
(lp4489
sbasbasbasbasbasbasbasbag69
(g85
g71
NtRp4490
(dp4491
g74
(dp4492
sg83
g4415
sg76
(lp4493
g69
(g90
g71
NtRp4494
(dp4495
g74
(dp4496
sg83
g4490
sg76
(lp4497
g69
(g70
g71
NtRp4498
(dp4499
g74
(dp4500
g82
I4
ssg83
g4494
sg76
(lp4501
g69
(g78
g71
NtRp4502
(dp4503
g74
(dp4504
g82
I3
ssg83
Nsg76
(lp4505
g69
(g85
g71
NtRp4506
(dp4507
g74
(dp4508
sg83
g4502
sg76
(lp4509
g69
(g90
g71
NtRp4510
(dp4511
g74
(dp4512
sg83
g4506
sg76
(lp4513
g69
(g70
g71
NtRp4514
(dp4515
g74
(dp4516
g82
I3
ssg83
g4510
sg76
(lp4517
g4447
(S't\x07\x00\x00\x00cliente'
tRp4518
asbasbasbag69
(g85
g71
NtRp4519
(dp4520
g74
(dp4521
sg83
g4502
sg76
(lp4522
g69
(g90
g71
NtRp4523
(dp4524
g74
(dp4525
sg83
g4519
sg76
(lp4526
g69
(g70
g71
NtRp4527
(dp4528
g74
(dp4529
g82
I3
ssg83
g4523
sg76
(lp4530
g831
asbasbasbag69
(g85
g71
NtRp4531
(dp4532
g74
(dp4533
sg83
g4502
sg76
(lp4534
g69
(g90
g71
NtRp4535
(dp4536
g74
(dp4537
sg83
g4531
sg76
(lp4538
g69
(g70
g71
NtRp4539
(dp4540
g74
(dp4541
g82
I3
ssg83
g4535
sg76
(lp4542
S'/init/default/cliente.json'
p4543
asbasbasbag69
(g85
g71
NtRp4544
(dp4545
g74
(dp4546
sg83
g4502
sg76
(lp4547
g69
(g90
g71
NtRp4548
(dp4549
g74
(dp4550
sg83
g4544
sg76
(lp4551
g69
(g70
g71
NtRp4552
(dp4553
g74
(dp4554
g82
I3
ssg83
g4548
sg76
(lp4555
g69
(g78
g71
NtRp4556
(dp4557
g74
(dp4558
g82
I2
ssg83
Nsg76
(lp4559
sbasbasbasbasbasbasbasbag69
(g85
g71
NtRp4560
(dp4561
g74
(dp4562
sg83
g4415
sg76
(lp4563
g69
(g90
g71
NtRp4564
(dp4565
g74
(dp4566
sg83
g4560
sg76
(lp4567
g69
(g70
g71
NtRp4568
(dp4569
g74
(dp4570
g82
I4
ssg83
g4564
sg76
(lp4571
g69
(g78
g71
NtRp4572
(dp4573
g74
(dp4574
g82
I3
ssg83
Nsg76
(lp4575
g69
(g85
g71
NtRp4576
(dp4577
g74
(dp4578
sg83
g4572
sg76
(lp4579
g69
(g90
g71
NtRp4580
(dp4581
g74
(dp4582
sg83
g4576
sg76
(lp4583
g69
(g70
g71
NtRp4584
(dp4585
g74
(dp4586
g82
I3
ssg83
g4580
sg76
(lp4587
g4447
(S't\t\x00\x00\x00categoria'
tRp4588
asbasbasbag69
(g85
g71
NtRp4589
(dp4590
g74
(dp4591
sg83
g4572
sg76
(lp4592
g69
(g90
g71
NtRp4593
(dp4594
g74
(dp4595
sg83
g4589
sg76
(lp4596
g69
(g70
g71
NtRp4597
(dp4598
g74
(dp4599
g82
I3
ssg83
g4593
sg76
(lp4600
g831
asbasbasbag69
(g85
g71
NtRp4601
(dp4602
g74
(dp4603
sg83
g4572
sg76
(lp4604
g69
(g90
g71
NtRp4605
(dp4606
g74
(dp4607
sg83
g4601
sg76
(lp4608
g69
(g70
g71
NtRp4609
(dp4610
g74
(dp4611
g82
I3
ssg83
g4605
sg76
(lp4612
S'/init/default/categoria.json'
p4613
asbasbasbag69
(g85
g71
NtRp4614
(dp4615
g74
(dp4616
sg83
g4572
sg76
(lp4617
g69
(g90
g71
NtRp4618
(dp4619
g74
(dp4620
sg83
g4614
sg76
(lp4621
g69
(g70
g71
NtRp4622
(dp4623
g74
(dp4624
g82
I3
ssg83
g4618
sg76
(lp4625
g69
(g78
g71
NtRp4626
(dp4627
g74
(dp4628
g82
I2
ssg83
Nsg76
(lp4629
sbasbasbasbasbasbasbasbag69
(g85
g71
NtRp4630
(dp4631
g74
(dp4632
sg83
g4415
sg76
(lp4633
g69
(g90
g71
NtRp4634
(dp4635
g74
(dp4636
sg83
g4630
sg76
(lp4637
g69
(g70
g71
NtRp4638
(dp4639
g74
(dp4640
g82
I4
ssg83
g4634
sg76
(lp4641
g69
(g78
g71
NtRp4642
(dp4643
g74
(dp4644
g82
I3
ssg83
Nsg76
(lp4645
g69
(g85
g71
NtRp4646
(dp4647
g74
(dp4648
sg83
g4642
sg76
(lp4649
g69
(g90
g71
NtRp4650
(dp4651
g74
(dp4652
sg83
g4646
sg76
(lp4653
g69
(g70
g71
NtRp4654
(dp4655
g74
(dp4656
g82
I3
ssg83
g4650
sg76
(lp4657
g4447
(S't\t\x00\x00\x00articulos'
tRp4658
asbasbasbag69
(g85
g71
NtRp4659
(dp4660
g74
(dp4661
sg83
g4642
sg76
(lp4662
g69
(g90
g71
NtRp4663
(dp4664
g74
(dp4665
sg83
g4659
sg76
(lp4666
g69
(g70
g71
NtRp4667
(dp4668
g74
(dp4669
g82
I3
ssg83
g4663
sg76
(lp4670
g831
asbasbasbag69
(g85
g71
NtRp4671
(dp4672
g74
(dp4673
sg83
g4642
sg76
(lp4674
g69
(g90
g71
NtRp4675
(dp4676
g74
(dp4677
sg83
g4671
sg76
(lp4678
g69
(g70
g71
NtRp4679
(dp4680
g74
(dp4681
g82
I3
ssg83
g4675
sg76
(lp4682
S'/init/default/articulo.json'
p4683
asbasbasbag69
(g85
g71
NtRp4684
(dp4685
g74
(dp4686
sg83
g4642
sg76
(lp4687
g69
(g90
g71
NtRp4688
(dp4689
g74
(dp4690
sg83
g4684
sg76
(lp4691
g69
(g70
g71
NtRp4692
(dp4693
g74
(dp4694
g82
I3
ssg83
g4688
sg76
(lp4695
g69
(g78
g71
NtRp4696
(dp4697
g74
(dp4698
g82
I2
ssg83
Nsg76
(lp4699
sbasbasbasbasbasbasbasbag69
(g85
g71
NtRp4700
(dp4701
g74
(dp4702
sg83
g4415
sg76
(lp4703
g69
(g90
g71
NtRp4704
(dp4705
g74
(dp4706
sg83
g4700
sg76
(lp4707
g69
(g70
g71
NtRp4708
(dp4709
g74
(dp4710
g82
I4
ssg83
g4704
sg76
(lp4711
g69
(g78
g71
NtRp4712
(dp4713
g74
(dp4714
g82
I3
ssg83
Nsg76
(lp4715
g69
(g85
g71
NtRp4716
(dp4717
g74
(dp4718
sg83
g4712
sg76
(lp4719
g69
(g90
g71
NtRp4720
(dp4721
g74
(dp4722
sg83
g4716
sg76
(lp4723
g69
(g70
g71
NtRp4724
(dp4725
g74
(dp4726
g82
I3
ssg83
g4720
sg76
(lp4727
g4447
(S's\x13\x00\x00\x00Lista de Pendientes'
tRp4728
asbasbasbag69
(g85
g71
NtRp4729
(dp4730
g74
(dp4731
sg83
g4712
sg76
(lp4732
g69
(g90
g71
NtRp4733
(dp4734
g74
(dp4735
sg83
g4729
sg76
(lp4736
g69
(g70
g71
NtRp4737
(dp4738
g74
(dp4739
g82
I3
ssg83
g4733
sg76
(lp4740
g831
asbasbasbag69
(g85
g71
NtRp4741
(dp4742
g74
(dp4743
sg83
g4712
sg76
(lp4744
g69
(g90
g71
NtRp4745
(dp4746
g74
(dp4747
sg83
g4741
sg76
(lp4748
g69
(g70
g71
NtRp4749
(dp4750
g74
(dp4751
g82
I3
ssg83
g4745
sg76
(lp4752
S'/init/default/presupuestos2.json'
p4753
asbasbasbag69
(g85
g71
NtRp4754
(dp4755
g74
(dp4756
sg83
g4712
sg76
(lp4757
g69
(g90
g71
NtRp4758
(dp4759
g74
(dp4760
sg83
g4754
sg76
(lp4761
g69
(g70
g71
NtRp4762
(dp4763
g74
(dp4764
g82
I3
ssg83
g4758
sg76
(lp4765
g69
(g78
g71
NtRp4766
(dp4767
g74
(dp4768
g82
I2
ssg83
Nsg76
(lp4769
sbasbasbasbasbasbasbasbag69
(g85
g71
NtRp4770
(dp4771
g74
(dp4772
sg83
g4415
sg76
(lp4773
g69
(g90
g71
NtRp4774
(dp4775
g74
(dp4776
sg83
g4770
sg76
(lp4777
g69
(g70
g71
NtRp4778
(dp4779
g74
(dp4780
g82
I4
ssg83
g4774
sg76
(lp4781
g69
(g78
g71
NtRp4782
(dp4783
g74
(dp4784
g82
I3
ssg83
Nsg76
(lp4785
g69
(g85
g71
NtRp4786
(dp4787
g74
(dp4788
sg83
g4782
sg76
(lp4789
g69
(g90
g71
NtRp4790
(dp4791
g74
(dp4792
sg83
g4786
sg76
(lp4793
g69
(g70
g71
NtRp4794
(dp4795
g74
(dp4796
g82
I3
ssg83
g4790
sg76
(lp4797
g4447
(S't\x0c\x00\x00\x00Modificacion'
tRp4798
asbasbasbag69
(g85
g71
NtRp4799
(dp4800
g74
(dp4801
sg83
g4782
sg76
(lp4802
g69
(g90
g71
NtRp4803
(dp4804
g74
(dp4805
sg83
g4799
sg76
(lp4806
g69
(g70
g71
NtRp4807
(dp4808
g74
(dp4809
g82
I3
ssg83
g4803
sg76
(lp4810
g831
asbasbasbag69
(g85
g71
NtRp4811
(dp4812
g74
(dp4813
sg83
g4782
sg76
(lp4814
g69
(g90
g71
NtRp4815
(dp4816
g74
(dp4817
sg83
g4811
sg76
(lp4818
g69
(g70
g71
NtRp4819
(dp4820
g74
(dp4821
g82
I3
ssg83
g4815
sg76
(lp4822
S'/init/default/presupuestos.json'
p4823
asbasbasbag69
(g85
g71
NtRp4824
(dp4825
g74
(dp4826
sg83
g4782
sg76
(lp4827
g69
(g90
g71
NtRp4828
(dp4829
g74
(dp4830
sg83
g4824
sg76
(lp4831
g69
(g70
g71
NtRp4832
(dp4833
g74
(dp4834
g82
I3
ssg83
g4828
sg76
(lp4835
g69
(g78
g71
NtRp4836
(dp4837
g74
(dp4838
g82
I2
ssg83
Nsg76
(lp4839
sbasbasbasbasbasbasbasbag69
(g85
g71
NtRp4840
(dp4841
g74
(dp4842
sg83
g4415
sg76
(lp4843
g69
(g90
g71
NtRp4844
(dp4845
g74
(dp4846
sg83
g4840
sg76
(lp4847
g69
(g70
g71
NtRp4848
(dp4849
g74
(dp4850
g82
I4
ssg83
g4844
sg76
(lp4851
g69
(g78
g71
NtRp4852
(dp4853
g74
(dp4854
g82
I3
ssg83
Nsg76
(lp4855
g69
(g85
g71
NtRp4856
(dp4857
g74
(dp4858
sg83
g4852
sg76
(lp4859
g69
(g90
g71
NtRp4860
(dp4861
g74
(dp4862
sg83
g4856
sg76
(lp4863
g69
(g70
g71
NtRp4864
(dp4865
g74
(dp4866
g82
I3
ssg83
g4860
sg76
(lp4867
g4447
(S's\x0c\x00\x00\x00Nueva Salida'
tRp4868
asbasbasbag69
(g85
g71
NtRp4869
(dp4870
g74
(dp4871
sg83
g4852
sg76
(lp4872
g69
(g90
g71
NtRp4873
(dp4874
g74
(dp4875
sg83
g4869
sg76
(lp4876
g69
(g70
g71
NtRp4877
(dp4878
g74
(dp4879
g82
I3
ssg83
g4873
sg76
(lp4880
g831
asbasbasbag69
(g85
g71
NtRp4881
(dp4882
g74
(dp4883
sg83
g4852
sg76
(lp4884
g69
(g90
g71
NtRp4885
(dp4886
g74
(dp4887
sg83
g4881
sg76
(lp4888
g69
(g70
g71
NtRp4889
(dp4890
g74
(dp4891
g82
I3
ssg83
g4885
sg76
(lp4892
S'/init/default/movimientos.json'
p4893
asbasbasbag69
(g85
g71
NtRp4894
(dp4895
g74
(dp4896
sg83
g4852
sg76
(lp4897
g69
(g90
g71
NtRp4898
(dp4899
g74
(dp4900
sg83
g4894
sg76
(lp4901
g69
(g70
g71
NtRp4902
(dp4903
g74
(dp4904
g82
I3
ssg83
g4898
sg76
(lp4905
g69
(g78
g71
NtRp4906
(dp4907
g74
(dp4908
g82
I2
ssg83
Nsg76
(lp4909
sbasbasbasbasbasbasbasbasbasbasbasbag69
(g85
g71
NtRp4910
(dp4911
g74
(dp4912
sg83
g3891
sg76
(lp4913
g69
(g90
g71
NtRp4914
(dp4915
g74
(dp4916
g94
g95
ssg83
g4910
sg76
(lp4917
S'meta'
p4918
asbag69
(g90
g71
NtRp4919
(dp4920
g74
(dp4921
g101
g102
ssg83
g4910
sg76
(lp4922
S':'
asbag69
(g90
g71
NtRp4923
(dp4924
g74
(dp4925
sg83
g4910
sg76
(lp4926
g69
(g70
g71
NtRp4927
(dp4928
g74
(dp4929
g82
I5
ssg83
g4923
sg76
(lp4930
g69
(g78
g71
NtRp4931
(dp4932
g74
(dp4933
g82
I4
ssg83
Nsg76
(lp4934
g69
(g85
g71
NtRp4935
(dp4936
g74
(dp4937
sg83
g4931
sg76
(lp4938
g69
(g90
g71
NtRp4939
(dp4940
g74
(dp4941
g94
g95
ssg83
g4935
sg76
(lp4942
S'author'
p4943
asbag69
(g90
g71
NtRp4944
(dp4945
g74
(dp4946
g101
g102
ssg83
g4935
sg76
(lp4947
S':'
asbag69
(g90
g71
NtRp4948
(dp4949
g74
(dp4950
sg83
g4935
sg76
(lp4951
g69
(g70
g71
NtRp4952
(dp4953
g74
(dp4954
g82
I4
ssg83
g4948
sg76
(lp4955
S'jorge a <jorge.agua@gmail.com>'
p4956
asbasbasbag69
(g85
g71
NtRp4957
(dp4958
g74
(dp4959
sg83
g4931
sg76
(lp4960
g69
(g90
g71
NtRp4961
(dp4962
g74
(dp4963
g94
g95
ssg83
g4957
sg76
(lp4964
S'description'
p4965
asbag69
(g90
g71
NtRp4966
(dp4967
g74
(dp4968
g101
g102
ssg83
g4957
sg76
(lp4969
S':'
asbag69
(g90
g71
NtRp4970
(dp4971
g74
(dp4972
sg83
g4957
sg76
(lp4973
g69
(g70
g71
NtRp4974
(dp4975
g74
(dp4976
g82
I4
ssg83
g4970
sg76
(lp4977
S''
asbasbasbag69
(g85
g71
NtRp4978
(dp4979
g74
(dp4980
sg83
g4931
sg76
(lp4981
g69
(g90
g71
NtRp4982
(dp4983
g74
(dp4984
g94
g95
ssg83
g4978
sg76
(lp4985
S'keywords'
p4986
asbag69
(g90
g71
NtRp4987
(dp4988
g74
(dp4989
g101
g102
ssg83
g4978
sg76
(lp4990
S':'
asbag69
(g90
g71
NtRp4991
(dp4992
g74
(dp4993
sg83
g4978
sg76
(lp4994
g69
(g70
g71
NtRp4995
(dp4996
g74
(dp4997
g82
I4
ssg83
g4991
sg76
(lp4998
S''
asbasbasbasbasbasbasbag69
(g85
g71
NtRp4999
(dp5000
g74
(dp5001
sg83
g3891
sg76
(lp5002
g69
(g90
g71
NtRp5003
(dp5004
g74
(dp5005
g94
g95
ssg83
g4999
sg76
(lp5006
S'postprocessing'
p5007
asbag69
(g90
g71
NtRp5008
(dp5009
g74
(dp5010
g101
g102
ssg83
g4999
sg76
(lp5011
S':'
asbag69
(g90
g71
NtRp5012
(dp5013
g74
(dp5014
sg83
g4999
sg76
(lp5015
g69
(g70
g71
NtRp5016
(dp5017
g74
(dp5018
g82
I5
ssg83
g5012
sg76
(lp5019
g69
(g78
g71
NtRp5020
(dp5021
g74
(dp5022
g82
I4
ssg83
Nsg76
(lp5023
sbasbasbasbag69
(g85
g71
NtRp5024
(dp5025
g74
(dp5026
sg83
g3891
sg76
(lp5027
g69
(g90
g71
NtRp5028
(dp5029
g74
(dp5030
g94
g95
ssg83
g5024
sg76
(lp5031
S'session_file'
p5032
asbag69
(g90
g71
NtRp5033
(dp5034
g74
(dp5035
g101
g102
ssg83
g5024
sg76
(lp5036
S':'
asbag69
(g90
g71
NtRp5037
(dp5038
g74
(dp5039
sg83
g5024
sg76
(lp5040
g69
(g70
g71
NtRp5041
(dp5042
g74
(dp5043
g82
I5
ssg83
g5037
sg76
(lp5044
S"<open file 'c:\\Users\\Jorge\\Downloads\\web2py_src\\web2py\\applications\\init\\sessions\\127.0.0.1-db1a5172-e0eb-4779-bead-3eff2ec2fe17', mode 'rb+' at 0x0000000009CD6780>"
p5045
asbasbasbag69
(g85
g71
NtRp5046
(dp5047
g74
(dp5048
sg83
g3891
sg76
(lp5049
g69
(g90
g71
NtRp5050
(dp5051
g74
(dp5052
g94
g95
ssg83
g5046
sg76
(lp5053
S'session_filename'
p5054
asbag69
(g90
g71
NtRp5055
(dp5056
g74
(dp5057
g101
g102
ssg83
g5046
sg76
(lp5058
S':'
asbag69
(g90
g71
NtRp5059
(dp5060
g74
(dp5061
sg83
g5046
sg76
(lp5062
g69
(g70
g71
NtRp5063
(dp5064
g74
(dp5065
g82
I5
ssg83
g5059
sg76
(lp5066
S'c:\\Users\\Jorge\\Downloads\\web2py_src\\web2py\\applications\\init\\sessions\\127.0.0.1-db1a5172-e0eb-4779-bead-3eff2ec2fe17'
p5067
asbasbasbag69
(g85
g71
NtRp5068
(dp5069
g74
(dp5070
sg83
g3891
sg76
(lp5071
g69
(g90
g71
NtRp5072
(dp5073
g74
(dp5074
g94
g95
ssg83
g5068
sg76
(lp5075
S'session_id'
p5076
asbag69
(g90
g71
NtRp5077
(dp5078
g74
(dp5079
g101
g102
ssg83
g5068
sg76
(lp5080
S':'
asbag69
(g90
g71
NtRp5081
(dp5082
g74
(dp5083
sg83
g5068
sg76
(lp5084
g69
(g70
g71
NtRp5085
(dp5086
g74
(dp5087
g82
I5
ssg83
g5081
sg76
(lp5088
S'127.0.0.1-db1a5172-e0eb-4779-bead-3eff2ec2fe17'
p5089
asbasbasbag69
(g85
g71
NtRp5090
(dp5091
g74
(dp5092
sg83
g3891
sg76
(lp5093
g69
(g90
g71
NtRp5094
(dp5095
g74
(dp5096
g94
g95
ssg83
g5090
sg76
(lp5097
S'session_id_name'
p5098
asbag69
(g90
g71
NtRp5099
(dp5100
g74
(dp5101
g101
g102
ssg83
g5090
sg76
(lp5102
S':'
asbag69
(g90
g71
NtRp5103
(dp5104
g74
(dp5105
sg83
g5090
sg76
(lp5106
g69
(g70
g71
NtRp5107
(dp5108
g74
(dp5109
g82
I5
ssg83
g5103
sg76
(lp5110
g3948
asbasbasbag69
(g85
g71
NtRp5111
(dp5112
g74
(dp5113
sg83
g3891
sg76
(lp5114
g69
(g90
g71
NtRp5115
(dp5116
g74
(dp5117
g94
g95
ssg83
g5111
sg76
(lp5118
S'session_locked'
p5119
asbag69
(g90
g71
NtRp5120
(dp5121
g74
(dp5122
g101
g102
ssg83
g5111
sg76
(lp5123
S':'
asbag69
(g90
g71
NtRp5124
(dp5125
g74
(dp5126
sg83
g5111
sg76
(lp5127
g69
(g70
g71
NtRp5128
(dp5129
g74
(dp5130
g82
I5
ssg83
g5124
sg76
(lp5131
g112
asbasbasbag69
(g85
g71
NtRp5132
(dp5133
g74
(dp5134
sg83
g3891
sg76
(lp5135
g69
(g90
g71
NtRp5136
(dp5137
g74
(dp5138
g94
g95
ssg83
g5132
sg76
(lp5139
S'session_new'
p5140
asbag69
(g90
g71
NtRp5141
(dp5142
g74
(dp5143
g101
g102
ssg83
g5132
sg76
(lp5144
S':'
asbag69
(g90
g71
NtRp5145
(dp5146
g74
(dp5147
sg83
g5132
sg76
(lp5148
g69
(g70
g71
NtRp5149
(dp5150
g74
(dp5151
g82
I5
ssg83
g5145
sg76
(lp5152
g831
asbasbasbag69
(g85
g71
NtRp5153
(dp5154
g74
(dp5155
sg83
g3891
sg76
(lp5156
g69
(g90
g71
NtRp5157
(dp5158
g74
(dp5159
g94
g95
ssg83
g5153
sg76
(lp5160
S'status'
p5161
asbag69
(g90
g71
NtRp5162
(dp5163
g74
(dp5164
g101
g102
ssg83
g5153
sg76
(lp5165
S':'
asbag69
(g90
g71
NtRp5166
(dp5167
g74
(dp5168
sg83
g5153
sg76
(lp5169
g69
(g70
g71
NtRp5170
(dp5171
g74
(dp5172
g82
I5
ssg83
g5166
sg76
(lp5173
S'200'
p5174
asbasbasbag69
(g85
g71
NtRp5175
(dp5176
g74
(dp5177
sg83
g3891
sg76
(lp5178
g69
(g90
g71
NtRp5179
(dp5180
g74
(dp5181
g94
g95
ssg83
g5175
sg76
(lp5182
S'subtitle'
p5183
asbag69
(g90
g71
NtRp5184
(dp5185
g74
(dp5186
g101
g102
ssg83
g5175
sg76
(lp5187
S':'
asbag69
(g90
g71
NtRp5188
(dp5189
g74
(dp5190
sg83
g5175
sg76
(lp5191
g69
(g70
g71
NtRp5192
(dp5193
g74
(dp5194
g82
I5
ssg83
g5188
sg76
(lp5195
S'powered by jorge'
p5196
asbasbasbag69
(g85
g71
NtRp5197
(dp5198
g74
(dp5199
sg83
g3891
sg76
(lp5200
g69
(g90
g71
NtRp5201
(dp5202
g74
(dp5203
g94
g95
ssg83
g5197
sg76
(lp5204
S'title'
p5205
asbag69
(g90
g71
NtRp5206
(dp5207
g74
(dp5208
g101
g102
ssg83
g5197
sg76
(lp5209
S':'
asbag69
(g90
g71
NtRp5210
(dp5211
g74
(dp5212
sg83
g5197
sg76
(lp5213
g69
(g70
g71
NtRp5214
(dp5215
g74
(dp5216
g82
I5
ssg83
g5210
sg76
(lp5217
S'mi nueva app'
p5218
asbasbasbag69
(g85
g71
NtRp5219
(dp5220
g74
(dp5221
sg83
g3891
sg76
(lp5222
g69
(g90
g71
NtRp5223
(dp5224
g74
(dp5225
g94
g95
ssg83
g5219
sg76
(lp5226
g2469
asbag69
(g90
g71
NtRp5227
(dp5228
g74
(dp5229
g101
g102
ssg83
g5219
sg76
(lp5230
S':'
asbag69
(g90
g71
NtRp5231
(dp5232
g74
(dp5233
sg83
g5219
sg76
(lp5234
g69
(g70
g71
NtRp5235
(dp5236
g74
(dp5237
g82
I5
ssg83
g5231
sg76
(lp5238
g2482
asbasbasbag69
(g85
g71
NtRp5239
(dp5240
g74
(dp5241
sg83
g3891
sg76
(lp5242
g69
(g90
g71
NtRp5243
(dp5244
g74
(dp5245
g94
g95
ssg83
g5239
sg76
(lp5246
S'view'
p5247
asbag69
(g90
g71
NtRp5248
(dp5249
g74
(dp5250
g101
g102
ssg83
g5239
sg76
(lp5251
S':'
asbag69
(g90
g71
NtRp5252
(dp5253
g74
(dp5254
sg83
g5239
sg76
(lp5255
g69
(g70
g71
NtRp5256
(dp5257
g74
(dp5258
g82
I5
ssg83
g5252
sg76
(lp5259
S'default/features.json'
p5260
asbasbasbasbasbsS'locals'
p5261
(dp5262
g4
S"r'c:\\Users\\Jorge\\Downloads\\web2py_src\\web2py\\applications\\init\\controllers/default.py'"
p5263
sg6
S"'# -*- coding: utf-8 -*-\\nif 0:\\n    from gluon.glo...=form)\\nresponse._vars=response._caller(features)\\n'"
p5264
sssS'traceback'
p5265
S'Traceback (most recent call last):\n  File "c:\\Users\\Jorge\\Downloads\\web2py_src\\web2py\\gluon\\restricted.py", line 204, in restricted\n    ccode = compile2(code,layer)\n  File "c:\\Users\\Jorge\\Downloads\\web2py_src\\web2py\\gluon\\restricted.py", line 189, in compile2\n    return compile(code.rstrip().replace(\'\\r\\n\',\'\\n\')+\'\\n\', layer, \'exec\')\n  File "c:\\Users\\Jorge\\Downloads\\web2py_src\\web2py\\applications\\init\\controllers/default.py", line 266\n    indice =\n            ^\nSyntaxError: invalid syntax\n'
p5266
s.